(lp1
F0.24370982889568676
aF0.32501974288942515
aF0.67875844310784572
aF0.008583743691391435
aF0.59598343210629756
aF0.86499743748660451
aF0.95327930124349558
aF0.83214605536660136
aF0.84729786038720367
aF1.205970806988609
aF1.1157067220274099
aF1.1357912919098638
aF1.1808503869050817
aF0.71084675765934613
aF0.40546510810816438
aF0.30110509278392161
aF0.32423966818557859
aF0.49182267664037527
aF0.38996092157219919
aF0.89097292388986515
aF0.33647223662121289
aF-0.061557892999433317
aF0.057158413839948623
aF0.20935022918187396
aF0.074661528769019561
aF-0.3948829987776275
aF-0.60517840761398811
aF0.17920142945771092
aF0.30748469974796072
aF0.33950714031636697
aF0.10956220251152624
aF0.78667323857076887
aF0.83290912293510388
aF0.76590653484237359
aF0.80647586586694853
aF1.0306249476831768
aF0.69314718055994529
aF0.73236789371322664
aF0.10008345855698263
aF0.85566611005772031
aF0.92897589140147074
aF0.32768740706548005
aF0.62542900650499444
aF0.35667494393873239
aF0.34377153910282454
aF0.24724110289327028
aF0.17544867750619267
aF0.47542369671507478
a.