(lp1
F0.3262157364540238
aF-0.11184830013656891
aF0.55237462667886317
aF0.44895022004790319
aF0.63101539945293916
aF0.068402726884400619
aF0.80381274844746464
aF0.25951119548508461
aF0.67875844310784572
aF0.3060312111199775
aF0.58653744550168707
aF0.79614642003209179
aF0.80733954808560016
aF0.35667494393873239
aF0.29626581614317243
aF0.088553397341445031
aF0.2456726643742379
aF0.24046833497151585
aF0.88154778343028206
aF1.0182307702171496
aF0.65560926124088015
aF0.88388730781949576
aF0.75709590516021885
aF0.91330119302578905
aF0.27107791739974574
aF-0.42956265968722485
aF0.27721077258448551
aF-0.13176927763112334
aF-0.13157635778871932
aF1.000631880307906
aF0.57981849525294216
aF1.8827312474337816
aF1.6582280766035324
aF1.9322113046971514
aF1.5998684614179497
aF0.59205106368857652
aF0.27329333499968134
aF0.69314718055994529
aF0.98373201266968757
aF1.8827312474337816
aF1.9459101490553132
aF1.8718021769015913
aF1.4847344339331432
aF0.42227222642454559
aF0.64829661439459352
aF0.067822596338761088
aF0.046520015634892907
aF0.19735943415849519
a.