(lp1
F-0.11372876532834296
aF0.17958557697507987
aF0.85441532815606758
aF1.4170660197866443
aF0.99390133457907903
aF0.89142266529614167
aF0.50474657768960851
aF1.1887633856624071
aF0.86499743748660451
aF1.3493291668864191
aF1.5873201071804814
aF1.3643154544011153
aF1.3075134832667763
aF1.0459685551826878
aF0.58066919713325493
aF1.4947750041139605
aF0.23483959107740099
aF0.51082562376599072
aF-0.86113891179907498
aF-0.097980408360203788
aF0.27329333499968134
aF-0.20479441264601328
aF0.20763936477824455
aF1.0360919316867758
aF0.36646295030489523
aF-0.62761313918087258
aF-0.27380672595816385
aF0.28768207245178085
aF0.12337902116050457
aF0
aF0.3063742054639334
aF0.19912867511033591
aF0.27286698666664028
aF-0.30616688712588391
aF-0.38566248081198462
aF-0.14571181118139365
aF-0.051293294387550578
aF0.20359895524123955
aF1.1786549963416462
aF0.32423966818557859
aF0.23638877806423034
aF-0.44393138893596051
aF-0.38441169891033206
aF-0.047252884850545497
aF0.2336148511815051
aF0.2769867833350329
aF-0.92168158050903159
aF0.66443707467751389
a.