(lp1
F0.95035437780800236
aF0.11492996667397702
aF0.74193734472937733
aF0.49247648509779424
aF0.91629073187415511
aF1.2504183015361139
aF1.1631508098056809
aF1.0953065005336102
aF0.6818900260353109
aF0.82955903604982195
aF0.51644361607021394
aF0.664976303593249
aF1.0011139241832319
aF1.3616017485295191
aF0.95436267982356293
aF1.0334729864971484
aF0.60728588995355293
aF0.93768192185547261
aF0.76028648339757388
aF0.77814039339333785
aF0.56570223399182495
aF0.40748327226440151
aF0.13720112151348496
aF-0.22137207166582765
aF0.61345901995624585
aF0.23995066963059095
aF0.0093023926623134103
aF0
aF0.43995128417933366
aF0.33935408299610176
aF0.38358239685865669
aF0.76664964255287182
aF0.87546873735389985
aF1.2192402764567245
aF1.0726368022648489
aF0.84078317936600999
aF0.78431656769823876
aF0.30010459245033816
aF0.10236201266156968
aF0.23309388216737781
aF0.038221212820197671
aF0.21687393830061436
aF0.057569851821477912
aF-0.098845834636632601
aF0.1922063160264966
aF0.21905356606268467
aF-0.076733794231389443
aF0.35667494393873239
a.