(lp1
F65.131598294565791
aF21.852256226913962
aF21.139394721449722
aF33.758355946399718
aF29.19833247190677
aF30.011045008761052
aF23.481662088660158
aF17.753340182862924
aF24.146977740777292
aF14.79381753107269
aF25.266367320225388
aF27.914078239998673
aF22.63669293670004
aF21.045124127935541
aF23.886862992674317
aF10.836276918291453
aF22.99028862085569
aF28.853190180201011
aF51.235778608944315
aF36.643590500575058
aF37.964025958925454
aF35.486593699494065
aF27.323776312916369
aF28.08571542561484
aF35.770303576304109
aF34.771459059951674
aF35.814825469649378
aF26.337640130197137
aF21.965644650984043
aF15.3178584552224
aF24.497149798460331
aF26.187861062620392
aF26.950048055842274
aF29.309623897445992
aF28.162953884255085
aF34.444785713053179
aF26.474854764581757
aF23.552786384117539
aF28.265144622088314
aF42.602755031581665
aF39.667034077669385
aF19.905731217060247
aF44.748611289500552
aF38.344856348687955
aF38.905743097847164
aF32.0482023568646
aF29.666467004919316
aF40.788074053459731
a.