(lp1
F-0.33052966383441007
aF-0.32220326682001393
aF-0.28214189207616558
aF-0.094231624963116822
aF0.044451762570833796
aF0.46806376442790892
aF0.56288198572204384
aF0.31015492830383945
aF0.58778666490211906
aF0.40920343021877148
aF0.37833644071991174
aF0.20322824161326825
aF0.021277398447284879
aF0.19585140902620218
aF0.02096512846504487
aF0.075666333073737518
aF-0.33909003916329172
aF-0.16874947924841094
aF-0.26706278524904525
aF0.19549201998369964
aF0.1806700287554816
aF0.23074815069942906
aF-0.24177237114770306
aF-0.2876820724517809
aF-0.54685508734520827
aF-0.61338221209108268
aF-0.40546510810816444
aF-0.079249371654140491
aF-0.5753641449035618
aF-0.011976191046715649
aF-0.11523526357758476
aF0.084387392277547407
aF0.24987970780524582
aF0.55961578793542266
aF0.38946476676172331
aF0.48858001481867092
aF0.69845223278963842
aF1.1438688802562305
aF0.66256375718786498
aF0.45675840249571492
aF0.38077249551779285
aF0.08515780834030677
aF-0.067441280795532535
aF-0.37531206993747684
aF-0.19306609607693181
aF-0.43417521399059583
aF-0.51251910427232372
aF-0.21652831219549049
a.