(lp1
F0.88058383802067031
aF0.82376736297700948
aF0.59060754124376036
aF1.2766511836700636
aF0.85348983063512474
aF0.65898826174862635
aF0.53197444825896723
aF0.77070541490581979
aF0.87424249563065559
aF0.6121781180262782
aF0.5093960309563963
aF0.9433716904768259
aF0.42172562897994464
aF0.66099006892541401
aF0.32593195458578056
aF-0.00638979809877101
aF-0.40989970517603008
aF0.22180036776774209
aF0.045462374076757413
aF0.058840500022933395
aF-0.17185025692665928
aF-0.082691715845113409
aF-0.37923409595929458
aF-0.11350037386438254
aF-0.71398126746278734
aF-0.88319078344781032
aF-0.81744489723752245
aF-0.89097292388986526
aF-0.88985747480599953
aF-0.47608267532211773
aF-0.79379070633963267
aF-0.29479954022064497
aF-0.64869541798911146
aF-0.06136894637629213
aF-0.0067796869853788038
aF-0.29792356650397794
aF-0.095817922897233565
aF-0.35231763856977671
aF-0.2411620568168881
aF-0.19753097545748338
aF-0.036634133179780384
aF0.17022114985986725
aF-0.0093897403498390316
aF0.23875144898020073
aF0
aF0.017699577099400857
aF0.64662716492505246
aF0.43036265972989163
a.