(lp1
F-0.29202047405037912
aF0.38299225225610573
aF0.67116827384117006
aF0.23947997063390319
aF0.35260161855109662
aF0.11563018229528239
aF0.13264447460629469
aF0.90792248220363836
aF0.3587779941355112
aF0.51356160358486547
aF0.90445627422715225
aF0.93724609705014306
aF1.2147837204301515
aF0.66465522476563921
aF0.7326780193165805
aF0.86786413796868067
aF0.48714313912243157
aF1.1125497965118913
aF0.59883650108870401
aF1.3229247471873014
aF1.8392260064669788
aF1.452252328911688
aF0.97798430087949495
aF1.0145291714575684
aF0.69640982619476166
aF0.71631423984147968
aF0.68087708796813096
aF1.5766480896111095
aF1.5626457509273415
aF0.20479441264601322
aF0.69868736093556061
aF1.9538153285624265
aF1.1811333123561132
aF0.98861139345378124
aF1.0628942060660305
aF0.91629073187415511
aF1.316184794932864
aF0.90981821736853763
aF0.28768207245178085
aF0.73186169274063573
aF0.7252354951114458
aF1.2922654114716143
aF0.80821651034473263
aF1.8309801823813363
aF1.0262916270884836
aF0.90078654533818991
aF0.93515921617853781
aF1.0683985100716131
a.