(lp1
F1.2115526998487052
aF1.4180430594344708
aF1.3437347467010947
aF0.90755705190540037
aF1.1055327315126835
aF1.4715386409895004
aF1.2313717785140506
aF0.83198362541416115
aF1.2321436812926323
aF1.1307694003026412
aF0.64918405713882921
aF0.64829661439459352
aF0.65805586074867528
aF0.93749293952475798
aF0.53408248593025787
aF0.6824518914431974
aF0.65058756614114943
aF1.0330150061822965
aF1.0405484877133486
aF0.50610863388785188
aF0.84437815028386887
aF0.43746783919433818
aF0.52280181481270649
aF0.33436918642443408
aF0.56930891714108234
aF-0.65058756614114943
aF-0.015267472130788421
aF0.32790687376228989
aF-0.21357410029805904
aF0.11365931847252148
aF1.205970806988609
aF0.39730179746900346
aF0.2591087000077249
aF-0.50574947073413001
aF-0.14585187701256316
aF-0.41729956575516725
aF0.1941560144409574
aF-0.31299988043607085
aF-0.35282137462274232
aF0.28768207245178085
aF0.94446160884085151
aF1.2497188261141399
aF0.82472353834866463
aF1.1402849850686776
aF0.78726047213042394
aF0.43908171890714937
aF0.12629372532429206
aF0.20972053098206911
a.