(lp1
F0.87618073453598966
aF0.66564053477011176
aF0.73704137411717063
aF1.1720397572229269
aF0.57873682938220106
aF0.48681074756211684
aF0.056089466651043578
aF0.55291783925129501
aF0.78209466657644144
aF0.47743860773325364
aF0.64934455790155243
aF0.54023950897228401
aF0.083769883065458739
aF-0.23638877806423039
aF-0.28232012931039557
aF0.1128793480718536
aF0.14536585027152543
aF0.30477650581108096
aF0.16388785510511664
aF0.014493007302566824
aF0.54333490233128523
aF0.84256412373700473
aF0.14618251017808145
aF1.8870696490323797
aF0.74829900063502541
aF0.5144553918165693
aF0.50681760236845186
aF0.12062798778861472
aF0.25593337413720069
aF0.28483712031954966
aF0.12136085700426753
aF0.23309388216737781
aF0.55131698512072758
aF0.49062291644847122
aF0.54191621083602182
aF0.3957089331627997
aF0.82962234922848122
aF0.76477683669920016
aF0.77538527879691732
aF0.77506430302783214
aF0.80396154690023547
aF0.86750056770472306
aF0.26646623330150837
aF0.25131442828090617
aF0.24469188752041268
aF0.066691374498672143
aF-0.078780877853114342
aF-0.65159817764707284
a.