(lp1
(lp2
V\u575a\u5b88
p3
aF0.24799963815588644
aa(lp4
V\u52b1\u5fd7
p5
aF0.82267518701006315
aa(lp6
V\u5982\u540c
p7
aF0.34805488681194979
aa(lp8
V\u8c08
aF0.41781399382753737
aa(lp9
V\u5230\u73b0
p10
aF0.22071773310026085
aa(lp11
V\u6da8\u4ef7
p12
aF0.88342386316028698
aa(lp13
V\u5206\u7403\u5355
p14
aF1.2927752938729562
aa(lp15
V\u7b2c\u4e94
p16
aF0.92847554183897185
aa(lp17
V\u4e3a\u4e3b
p18
aF0.35711903766915881
aa(lp19
V\u56fe\u5f62
p20
aF0.30580056801702249
aa(lp21
V\u6625\u8282
p22
aF0.22071773310026085
aa(lp23
V\u4e50\u56ed
p24
aF0.36197708228442776
aa(lp25
V\u4ee5\u4f4e
p26
aF0.3770594607129456
aa(lp27
V\u7b51\u5e95
p28
aF0.46423777091948593
aa(lp29
V\u6b64\u5904
p30
aF0.92847554183897185
aa(lp31
V\u7535\u7f51
p32
aF0.22360267929824681
aa(lp33
V\u94f6\u5b50
p34
aF0.2445791096516404
aa(lp35
V\u5927\u5927\u7684
p36
aF0.26615961932678511
aa(lp37
V\u6b32
aF0.82267518701006315
aa(lp38
V\u56de\u672c
p39
aF0.312049208865886
aa(lp40
V\u521d\u4e2d
p41
aF0.19615317805088214
aa(lp42
V\u5546\u4e18\u5e02
p43
aF0.58383400368456095
aa(lp44
V\u4e0b\u5730\u5e72\u6d3b
p45
aF1.809885411422139
aa(lp46
V\u7ebf
aF0.56454303131849759
aa(lp47
V\u6885\u5b89\u68ee
p48
aF0.33516396507817386
aa(lp49
V\u60ca\u559c
p50
aF0.15766565804812729
aa(lp51
V\u9e3f\u8fbe
p52
aF1.2771887826651338
aa(lp53
V\u7ebf\u4e3a
p54
aF0.28297740500385332
aa(lp55
V\u5144\u5f1f\u59d0\u59b9
p56
aF0.59687713403933906
aa(lp57
V\u4e24\u5929
p58
aF0.41572073651952018
aa(lp59
V\u597d\u81ea\u4e3a\u4e4b
p60
aF0.19672667515458031
aa(lp61
V\u5404\u65b9
p62
aF0.39345335030916062
aa(lp63
V\u53cd
aF0.8448475487402205
aa(lp64
V\u6df1\u6210\u6307
p65
aF0.28993946563491346
aa(lp66
V\u6df1\u8bc1
p67
aF0.83562798765507473
aa(lp68
V\u7b2c\u4e8c\u4e2a
p69
aF0.71035169080553806
aa(lp70
V\u78e8\u78e8
p71
aF0.69610977362389959
aa(lp72
V\u6b63\u5e38
p73
aF0.56227144561626874
aa(lp74
V\u53f8\u592a\u7acb
p75
aF1.5082378428517824
aa(lp76
V\u5fa1\u94f6
p77
aF0.95021882633033183
aa(lp78
V\u5355\u65e5
p79
aF0.32989398126739272
aa(lp80
V\u6d6e\u76c8\u76d8
p81
aF0.53231923865357023
aa(lp82
V\u91cf\u67f1
p83
aF0.22071773310026085
aa(lp84
V\u8d5e
aF0.58657669516328848
aa(lp85
V\u8ba2\u9605
p86
aF0.64279075973467292
aa(lp87
V\u5584\u83ab\u5927\u7109
p88
aF0.60329513714071292
aa(lp89
V\u5438\u5bcc
p90
aF0.82267518701006315
aa(lp91
V\u4e09\u7ebf
p92
aF0.46423777091948593
aa(lp93
V\u5927\u62db
p94
aF0.39345335030916062
aa(lp95
V\u53cd\u4e4b
p96
aF0.24846296151383074
aa(lp97
V\u6709\u7406\u6709\u636e
p98
aF0.23814281729238668
aa(lp99
V\u76c8\u5229
p100
aF0.43229851330994379
aa(lp101
V\u7ebf\u4e0b
p102
aF0.65978796253478544
aa(lp103
V\u8111\u6b8b
p104
aF1.2927752938729562
aa(lp105
V\u4ed3\u91cd
p106
aF0.60329513714071292
aa(lp107
V\u957f\u8679
p108
aF0.77566517632377385
aa(lp109
V\u7231\u7406\u4e0d\u7406
p110
aF0.30164756857035646
aa(lp111
V\u63a5\u8fd1
p112
aF0.53763025828923128
aa(lp113
V\u56de\u6765
p114
aF0.5718956780368829
aa(lp115
V\u7eff
aF0.61160113603404498
aa(lp116
V\u4e14
aF0.49653205031269809
aa(lp117
V\u76ca\u535a
p118
aF0.28814758195002577
aa(lp119
V\u8d70\u6cd5
p120
aF1.3927133127584579
aa(lp121
V\u4e70\u8fdb
p122
aF0.48944303426960528
aa(lp123
V\u4e8b\u7269
p124
aF0.16159691173411952
aa(lp125
V\u6761\u4ef6
p126
aF0.48429558268453621
aa(lp127
V\u60ac\u6b8a
p128
aF0.3718942626209874
aa(lp129
V\u6316\u5751
p130
aF0.11789434916908928
aa(lp131
V\u5b98\u5458
p132
aF0.26424595503416559
aa(lp133
V\u5f39\u80fd
p134
aF0.32139537986733646
aa(lp135
V\u5e94
aF0.39345335030916062
aa(lp136
V\u5ba1\u6838
p137
aF0.33128394868510763
aa(lp138
V\u773c\u4e2d
p139
aF0.6463876469364781
aa(lp140
V\u53d1\u75af
p141
aF1.1937542680786781
aa(lp142
V\u7f8e\u5fb7
p143
aF0.20109837904690434
aa(lp144
V\u4e24\u79cd
p145
aF0.87960840805797336
aa(lp146
V\u70b9\u4f4d
p147
aF0.18078498508070254
aa(lp148
V\u5047
aF0.55708532510338316
aa(lp149
V\u5d29
aF0.23814281729238668
aa(lp150
V\u6210\u529f
p151
aF2.0349960259814175
aa(lp152
V\u662f
aF0.15936618355487692
aa(lp153
V\u62c9\u52a8
p154
aF0.4309250979576521
aa(lp155
V\u4e0a\u5929
p156
aF0.4309250979576521
aa(lp157
V\u5237
aF1.1358306812060832
aa(lp158
V\u60c5\u51b5
p159
aF0.21049803172516404
aa(lp160
V\u4e00\u6bb5\u8ddd\u79bb
p161
aF0.21546254897882605
aa(lp162
V\u5e76\u975e
p163
aF0.15589832879299184
aa(lp164
V\u5148\u591a
p165
aF0.34805488681194979
aa(lp166
V\u9ad8\u624b
p167
aF0.36288337939413196
aa(lp168
V\u4ecd\u65e7
p169
aF0.53231923865357023
aa(lp170
V\u4f59\u4e30\u6167\u5085
p171
aF0.21045179202583011
aa(lp172
V\u795e
aF0.8514591884434225
aa(lp173
V\u7a84\u5e45
p174
aF0.39429121013348206
aa(lp175
V\u534d
aF0.33516396507817386
aa(lp176
V\u4e0d\u7528
p177
aF0.63413768560084849
aa(lp178
V\u661f\u7f51
p179
aF0.42826265498590466
aa(lp180
V\u8bc1\u91d1
p181
aF0.45872632995257401
aa(lp182
V\u7855\u8d1d\u5fb7
p183
aF0.39345335030916062
aa(lp184
V\u5165\u573a
p185
aF0.5360547602996758
aa(lp186
V\u6559
aF0.38237015734270541
aa(lp187
V\u6f5c\u529b\u80a1
p188
aF1.062855592096656
aa(lp189
V\u4e5f
aF0.16576472123832642
aa(lp190
V\u4e8f\u672c\u751f\u610f
p191
aF0.60329513714071292
aa(lp192
V\u968f\u610f
p193
aF0.64577426436867091
aa(lp194
V\u66f4\u5f3a
p195
aF0.53231923865357023
aa(lp196
V\u4f19\u4f34
p197
aF0.42692162281662582
aa(lp198
V\u5f00\u5de5
p199
aF0.6385943913325669
aa(lp200
V\u6536\u76ca
p201
aF0.31762347482974945
aa(lp202
V\u5f31\u52bf
p203
aF0.25343792381649649
aa(lp204
V\u4e0d\u660e\u6717
p205
aF1.2771887826651338
aa(lp206
V\u70b9\u4f1a
p207
aF0.56558919106941841
aa(lp208
V\u5b9a\u70b9
p209
aF0.60329513714071292
aa(lp210
V\u4ea7\u54c1
p211
aF0.88793961350692252
aa(lp212
V\u6536\u76d8
p213
aF0.48739061184632076
aa(lp214
V\u6251\u6714\u8ff7\u79bb
p215
aF0.30164756857035646
aa(lp216
V\u5411\u4e0b
p217
aF1.098815799124256
aa(lp218
V\u5411\u4e0a
p219
aF1.1401976718446385
aa(lp220
V\u4e0d\u9519
p221
aF1.2002329537653336
aa(lp222
V\u521a\u624d
p223
aF0.43491653531575913
aa(lp224
V\u53e3\u9ad8\u79d1
p225
aF0.56558919106941841
aa(lp226
V\u817e\u51fa
p227
aF0.12620340902289814
aa(lp228
V\u6708\u521d
p229
aF0.21045179202583011
aa(lp230
V\u963b\u51fb
p231
aF0.13307980966339256
aa(lp232
V\u8d76\u5feb
p233
aF1.2771887826651338
aa(lp234
V\u6700\u540e
p235
aF1.0823681794768616
aa(lp236
V\u53d7\u76ca
p237
aF0.25582814555047395
aa(lp238
V\u540e
aF0.35397221560431663
aa(lp239
V\u5e95
aF0.43528012671720306
aa(lp240
V\u591a\u4fe9
p241
aF0.15876187819492446
aa(lp242
V\u905b\u72d7
p243
aF1.1311783821388368
aa(lp244
V\u5c0f\u5fc3\u7ffc\u7ffc
p245
aF1.2927752938729562
aa(lp246
V\u725b\u54e5\u88c5
p247
aF0.25137297380863038
aa(lp248
V\u574e\u5777
p249
aF0.21426358657822428
aa(lp250
V\u661f\u7ebf
p251
aF0.2186681674485684
aa(lp252
V\u6295\u964d
p253
aF0.36331651637177159
aa(lp254
V\u4e5f\u597d
p255
aF0.21036717646036635
aa(lp256
V\u4e00\u6b21
p257
aF0.1686038709089116
aa(lp258
V\u5403\u996d
p259
aF0.22914570671146386
aa(lp260
V\u4ea7\u751f
p261
aF0.51223172021381291
aa(lp262
V\u70b9\u4ec5
p263
aF0.18468218483899376
aa(lp264
V\u6307\u660e\u65b9\u5411
p265
aF0.7663132695990803
aa(lp266
V\u65e0\u788d
p267
aF0.49154587509122044
aa(lp268
V\u82f1\u5510\u667a
p269
aF0.47628563458477335
aa(lp270
V\u91d1\u4e00
p271
aF1.2927752938729562
aa(lp272
V\u8868\u660e
p273
aF0.24577293754561022
aa(lp274
V\u5de8\u4e8f
p275
aF0.36197708228442776
aa(lp276
V\u718a\u732b
p277
aF0.26502715894808609
aa(lp278
V\u770b\u56fe
p279
aF1.1311783821388368
aa(lp280
V\u79bb
aF0.21546254897882605
aa(lp281
V\u7531\u4e8e
p282
aF0.17402618868738662
aa(lp283
V\u636e\u8bf4
p284
aF0.39754073842212923
aa(lp285
V\u72ed\u5c0f
p286
aF0.75411892142589121
aa(lp287
V\u6405\u548c
p288
aF0.13034122571217352
aa(lp289
V\u5f00\u5c40
p290
aF0.75966180695915886
aa(lp291
V\u6da8\u5ddd\u5927
p292
aF0.90494270571106949
aa(lp293
V\u8d2d\u9001
p294
aF0.75411892142589121
aa(lp295
V\u4e2a\u70b9
p296
aF0.47865794756294849
aa(lp297
V\u53cd\u8f6c
p298
aF1.3493683928233295
aa(lp299
V\u5360\u636e
p300
aF0.99571221649012243
aa(lp301
V\u94dd\u4e1a
p302
aF0.17743974621785674
aa(lp303
V\u798f\u8fbe
p304
aF0.61999909538971609
aa(lp305
V\u5feb\u4e50
p306
aF0.324464965088406
aa(lp307
V\u5c01\u4f4f
p308
aF0.39791808935955936
aa(lp309
V\u4ee5\u4e3a
p310
aF0.35440604315750124
aa(lp311
V\u865a
aF0.29843856701966953
aa(lp312
V\u6ca1\u80fd
p313
aF0.74399891446765931
aa(lp314
V\u4ec5\u9650
p315
aF0.22071773310026085
aa(lp316
V\u62c9\u5347
p317
aF0.79736640481674537
aa(lp318
V\u4ee5\u4e0b
p319
aF1.3303063568624647
aa(lp320
V\u4ee5\u4e0a
p321
aF0.34787840242244378
aa(lp322
V\u4f4e\u5f00
p323
aF0.27871172728241023
aa(lp324
V\u7eba\u7ec7
p325
aF0.26301832133701347
aa(lp326
V\u8fbe\u62c9
p327
aF0.75411892142589121
aa(lp328
V\u8df3
aF0.42351744563372218
aa(lp329
V\u8f74
aF0.2532206023197196
aa(lp330
V\u53f7
aF0.34216973884525159
aa(lp331
V\u518d\u6218
p332
aF0.30949184727965728
aa(lp333
V\u7eff\u7ebf
p334
aF2.2623567642776736
aa(lp335
V\u8fc7\u4e16
p336
aF0.47628563458477335
aa(lp337
V\u8c61\u5f81\u6027
p338
aF0.23875085361573564
aa(lp339
V\u518d\u82e6
p340
aF0.2742250623366877
aa(lp341
V\u770b\u4ee5
p342
aF0.33516396507817386
aa(lp343
V\u5b66\u8d39
p344
aF0.90494270571106949
aa(lp345
V\u8001\u674e
p346
aF0.20295762594443942
aa(lp347
V\u95ea\u4eae
p348
aF0.21990210201449334
aa(lp349
V\u4ea4\u6613
p350
aF0.47560326420063626
aa(lp351
V\u770b\u4ef7
p352
aF0.21546254897882605
aa(lp353
V\u671f\u6307
p354
aF0.78900950464207598
aa(lp355
V\u60f3\u8981
p356
aF0.20499957398326052
aa(lp357
V\u4e00\u6ce2\u70b9
p358
aF0.6463876469364781
aa(lp359
V\u77ed\u671f
p360
aF0.48732250936334165
aa(lp361
V\u4f46\u91cf
p362
aF0.39345335030916062
aa(lp363
V\u603b\u4f53
p364
aF0.29530218456374158
aa(lp365
V\u5f62\u6001
p366
aF0.48587926935354103
aa(lp367
V\u56fd\u6cf0\u541b\u5b89
p368
aF0.47628563458477335
aa(lp369
V\u96c5\u6ea5
p370
aF0.22716613624121668
aa(lp371
V\u6027\u522b
p372
aF0.30164756857035646
aa(lp373
V\u53cc\u91cd
p374
aF0.20156156922158555
aa(lp375
V\u5fb7\u62c9
p376
aF0.47628563458477335
aa(lp377
V\u6570\u91cf
p378
aF0.42351744563372218
aa(lp379
V\u4e00\u5929\u4e24\u5929
p380
aF0.29843856701966953
aa(lp381
V\u6539\u53d8
p382
aF0.22250445108801697
aa(lp383
V\u591a\u957f
p384
aF0.50274594761726077
aa(lp385
V\u4e00\u4e24\u4e2a
p386
aF0.46423777091948593
aa(lp387
V\u8db3\u77e3
p388
aF0.2742250623366877
aa(lp389
V\u9502\u7535\u6c60
p390
aF0.41413135306119109
aa(lp391
V\u52a8\u6447
p392
aF0.75411892142589121
aa(lp393
V\u5438\u5f15
p394
aF0.39791808935955936
aa(lp395
V\u7eff\u7eff
p396
aF0.82267518701006315
aa(lp397
V\u505a\u7a7a
p398
aF0.8514591884434225
aa(lp399
V\u4e00\u8bc4
p400
aF0.33516396507817386
aa(lp401
V\u975e\u8350
p402
aF0.45247135285553475
aa(lp403
V\u4e8c\u516d
p404
aF0.39126657554778371
aa(lp405
V\u524d
aF0.20348440724523256
aa(lp406
V\u4e8c\u516b
p407
aF0.15589832879299184
aa(lp408
V\u574f
aF0.39345335030916062
aa(lp409
V\u4e09\u4e94
p410
aF0.29843856701966953
aa(lp411
V\u59d0
aF0.2742250623366877
aa(lp412
V\u6807\u7684
p413
aF0.26571389802416401
aa(lp414
V\u505a\u7528
p415
aF0.30949184727965728
aa(lp416
V\u5267\u672c
p417
aF0.41781399382753737
aa(lp418
V\u4e0d\u5438
p419
aF0.22623567642776737
aa(lp420
V\u6536\u4f2a
p421
aF0.25655134981643424
aa(lp422
V\u9519\u8bef
p423
aF0.20736193108236112
aa(lp424
V\u4e0d\u540c
p425
aF0.32841997268532014
aa(lp426
V\u4e00\u5e26
p427
aF0.99385184605532295
aa(lp428
V\u6e38\u8d44
p429
aF0.32347778889898232
aa(lp430
V\u7eb5\u6b32
p431
aF0.30580056801702249
aa(lp432
V\u6709\u5229
p433
aF0.92635395709273671
aa(lp434
V\u764c\u75c7
p435
aF0.23578869833817856
aa(lp436
V\u586b\u7a7a
p437
aF1.2927752938729562
aa(lp438
V\u7ed9\u5bb3
p439
aF0.36197708228442776
aa(lp440
V\u53d7\u963b
p441
aF0.35558637772556373
aa(lp442
V\u6307\u6da8
p443
aF0.22623567642776737
aa(lp444
V\u4e0d\u77e5
p445
aF1.0054918952345215
aa(lp446
V\u76ee\u5149
p447
aF0.47628563458477335
aa(lp448
V\u90a3\u5929
p449
aF0.39463982822529886
aa(lp450
V\u5341\u516b\u822c
p451
aF1.1311783821388368
aa(lp452
V\u72d7
aF0.99385184605532295
aa(lp453
V\u542b\u7cca
p454
aF1.6453503740201263
aa(lp455
V\u518d
aF0.58606222759375604
aa(lp456
V\u6781\u9650
p457
aF0.27854266255169158
aa(lp458
V\u7b80\u8981
p459
aF0.20566879675251579
aa(lp460
V\u5c14
aF0.2445791096516404
aa(lp461
V\u6316
aF0.69742648165232357
aa(lp462
V\u5229\u8fbe
p463
aF0.22623567642776737
aa(lp464
V\u8054\u7cfb
p465
aF0.6385943913325669
aa(lp466
V\u4e3a\u5b9c
p467
aF0.55708532510338316
aa(lp468
V\u6587\u5316
p469
aF1.9157831739977007
aa(lp470
V\u4e00\u6b65
p471
aF0.71019389095964713
aa(lp472
V\u51c6\u65f6
p473
aF0.69635665637922894
aa(lp474
V\u9047\u5230
p475
aF0.47643521224462415
aa(lp476
V\u98d8\u7ea2
p477
aF0.29838729124194063
aa(lp478
V\u65f6\u53cd
p479
aF0.32319382346823905
aa(lp480
V\u7206
aF0.53005431789617219
aa(lp481
V\u4e0b\u964d
p482
aF0.49785610824506121
aa(lp483
V\u571f\u571f
p484
aF0.312049208865886
aa(lp485
V\u4e00\u6837
p486
aF0.32877658234893509
aa(lp487
V\u8d2a\u5ff5
p488
aF0.56558919106941841
aa(lp489
V\u4e09\u5ce1
p490
aF0.49154587509122044
aa(lp491
V\u534e\u8054
p492
aF0.4152849987742106
aa(lp493
V\u968f\u7740
p494
aF0.29792184694671625
aa(lp495
V\u677f\u8981
p496
aF0.92847554183897185
aa(lp497
V\u53e4\u5f80\u4eca\u6765
p498
aF0.32139537986733646
aa(lp499
V\u8fdb\u6765
p500
aF0.31533131609625459
aa(lp501
V\u80fd\u6bd4
p502
aF0.56558919106941841
aa(lp503
V\u4e48
aF0.21241034328269129
aa(lp504
V\u7d20\u8d28
p505
aF0.40219675809380867
aa(lp506
V\u6700\u574f
p507
aF0.90494270571106949
aa(lp508
V\u5f3a\u52bf\u80a1
p509
aF0.27278169053172063
aa(lp510
V\u6362
aF0.53615273195621982
aa(lp511
V\u4e4b\u4e2d
p512
aF0.30949184727965728
aa(lp513
V\u503c\u4e0d\u503c\u5f97
p514
aF1.2927752938729562
aa(lp515
V\u5176\u4f59
p516
aF0.56791534060304161
aa(lp517
V\u7ea2\u773c
p518
aF0.39345335030916062
aa(lp519
V\u4e07\u9664
p520
aF0.25137297380863038
aa(lp521
V\u4e0e
aF0.42714765351109341
aa(lp522
V\u5df2\u6709
p523
aF1.2927752938729562
aa(lp524
V\u9664
aF0.36197708228442776
aa(lp525
V\u70b9\u8d8a
p526
aF0.2445791096516404
aa(lp527
V\u5a92\u4f53
p528
aF0.21488688563358335
aa(lp529
V\u963b\u529b
p530
aF0.24290859595779815
aa(lp531
V\u8981\u6da8
p532
aF0.3770594607129456
aa(lp533
V\u6307\u4e3a
p534
aF0.33516396507817386
aa(lp535
V\u5927\u80c6
p536
aF0.29838729124194063
aa(lp537
V\u6211\u5bb6
p538
aF0.60329513714071292
aa(lp539
V\u6012
aF0.36903394514657489
aa(lp540
V\u732a\u8089
p541
aF0.61999909538971609
aa(lp542
V\u7a81\u7136
p543
aF1.9157831739977007
aa(lp544
V\u80a1\u7ea2
p545
aF0.23444715740438191
aa(lp546
V\u6b64\u523b
p547
aF0.64279075973467292
aa(lp548
V\u5fae\u535a\u60f3
p549
aF0.25855505877459128
aa(lp550
V\u6545\u610f
p551
aF0.30164756857035646
aa(lp552
V\u6625\u91d1\u8bfa
p553
aF0.45247135285553475
aa(lp554
V\u60ef\u4f8b
p555
aF0.2827945955347092
aa(lp556
V\u96ea\u4eba
p557
aF0.50274594761726077
aa(lp558
V\u80dc\u8d1f
p559
aF0.21783054160116666
aa(lp560
V\u8d8a
aF0.32416080522181728
aa(lp561
V\u6bcf\u6b21
p562
aF0.27018657081871489
aa(lp563
V\u778e
aF0.13506607547926411
aa(lp564
V\u7b11
aF0.96383456630237818
aa(lp565
V\u8bed\u6c14
p566
aF0.53231923865357023
aa(lp567
V\u5b9e\u76d8
p568
aF0.22360267929824681
aa(lp569
V\u7b2c\u56db\u5c4a
p570
aF0.4309250979576521
aa(lp571
V\u5e95\u90e8
p572
aF0.381544054269777
aa(lp573
V\u56e0\u4e3a
p574
aF0.22530661374203451
aa(lp575
V\u80a5\u7682
p576
aF1.1311783821388368
aa(lp577
V\u4e0b\u56fe
p578
aF1.6712559753101495
aa(lp579
V\u65ed\u5347
p580
aF0.14835126323132286
aa(lp581
V\u8d70\u52bf\u56fe
p582
aF0.43980420402898668
aa(lp583
V\u5623
aF1.2927752938729562
aa(lp584
V\u5230\u680b\u8f89
p585
aF0.23814281729238668
aa(lp586
V\u8d39\u820d\u5c14
p587
aF0.6463876469364781
aa(lp588
V\u591a\u7ffb\u7a7a
p589
aF0.312049208865886
aa(lp590
V\u592a\u725b
p591
aF3.0164756857035648
aa(lp592
V\u7f29
aF0.90494270571106949
aa(lp593
V\u5b88\u7a33
p594
aF0.28255516877520354
aa(lp595
V\u6c89\u95f7
p596
aF0.82267518701006315
aa(lp597
V\u8d70\u574f
p598
aF0.2839576703015208
aa(lp599
V\u5171\u8ba1
p600
aF0.60329513714071292
aa(lp601
V\u76d8\u5c3e
p602
aF0.32127818876745939
aa(lp603
V\u66b4\u6da8
p604
aF0.19672667515458031
aa(lp605
V\u70b9\u8d5e
p606
aF0.59139328411815439
aa(lp607
V\u4fb5\u7565
p608
aF0.2827945955347092
aa(lp609
V\u5ff5
aF0.60329513714071292
aa(lp610
V\u5e78\u8fd0
p611
aF0.312049208865886
aa(lp612
V\u90e8\u5206
p613
aF0.41845588899139419
aa(lp614
V\u5c3f
aF1.5082378428517824
aa(lp615
V\u5e74
aF0.44548696300686247
aa(lp616
V\u72b9\u5728
p617
aF0.12620340902289814
aa(lp618
V\u80da\u80ce
p619
aF0.20109837904690434
aa(lp620
V\u5e73\u7a33
p621
aF0.62292749816131587
aa(lp622
V\u4fdd\u6574
p623
aF0.15082378428517823
aa(lp624
V\u8c03\u8282
p625
aF0.27854266255169158
aa(lp626
V\u76d8\u5c40
p627
aF0.26615961932678511
aa(lp628
V\u770b\u6da8
p629
aF0.44343545228748821
aa(lp630
V\u70b9\u8d27
p631
aF0.6463876469364781
aa(lp632
V\u5b66\u4e60
p633
aF0.35428519736555203
aa(lp634
V\u66b4\u8dcc
p635
aF0.21121168228578358
aa(lp636
V\u4e95\u795e
p637
aF0.5108755130660535
aa(lp638
V\u5b9a\u529b
p639
aF0.25137297380863038
aa(lp640
V\u6545\u6280\u91cd\u65bd
p641
aF0.92847554183897185
aa(lp642
V\u5982\u56de
p643
aF0.50274594761726077
aa(lp644
V\u9886\u57df
p645
aF0.99385184605532295
aa(lp646
V\u65b0\u57ce
p647
aF0.312049208865886
aa(lp648
V\u793c\u7269
p649
aF0.77732836060937183
aa(lp650
V\u5206\u65f6\u91cf
p651
aF0.21546254897882605
aa(lp652
V\u53d8\u8f68
p653
aF0.39345335030916062
aa(lp654
V\u7565
aF0.59687713403933906
aa(lp655
V\u6765\u770b
p656
aF0.5199279455400635
aa(lp657
V\u8fde\u7ef5
p658
aF1.5082378428517824
aa(lp659
V\u4ed3\u5355
p660
aF0.4309250979576521
aa(lp661
V\u6e38\u4e45
p662
aF0.76135583108605265
aa(lp663
V\u5b9a\u52bf
p664
aF0.26615961932678511
aa(lp665
V\u6850\u6606
p666
aF0.6463876469364781
aa(lp667
V\u8fde\u7eed
p668
aF0.20716206721687391
aa(lp669
V\u5728
aF0.13814076178543347
aa(lp670
V\u597d
aF0.31176327997579073
aa(lp671
V\u5929\u6da6
p672
aF2.7854266255169158
aa(lp673
V\u591a\u5927
p674
aF0.23875085361573564
aa(lp675
V\u66d9\u5149
p676
aF0.35077123978423164
aa(lp677
V\u5151\u73b0
p678
aF0.23999964982827718
aa(lp679
V\u4e0b\u5760
p680
aF0.47628563458477335
aa(lp681
V\u8bad\u7ec3
p682
aF0.33516396507817386
aa(lp683
V\u8138\u7ea2
p684
aF0.60329513714071292
aa(lp685
V\u538b
aF0.99571221649012243
aa(lp686
V\u5c0f\u5996\u7cbe
p687
aF0.90494270571106949
aa(lp688
V\u91cd\u5728
p689
aF0.17743974621785674
aa(lp690
V\u522b\u5fd8\u4e86
p691
aF0.74399891446765931
aa(lp692
V\u560e
aF1.2927752938729562
aa(lp693
V\u96be\u6da8
p694
aF0.33317968243438273
aa(lp695
V\u53ef\u591a
p696
aF0.36197708228442776
aa(lp697
V\u9b45\u529b
p698
aF0.2445791096516404
aa(lp699
V\u6216
aF0.97195446301685351
aa(lp700
V\u8d70\u4f4e
p701
aF0.24276918062221597
aa(lp702
V\u4e0a\u7a81
p703
aF0.36197708228442776
aa(lp704
V\u8d9f
aF0.69610977362389959
aa(lp705
V\u56fd\u6295
p706
aF0.82666546051962142
aa(lp707
V\u9634\u7ebf
p708
aF0.21152907765668524
aa(lp709
V\u9022
aF0.31077128665497439
aa(lp710
V\u56de\u843d
p711
aF0.15847194194981587
aa(lp712
V\u5982\u987a\u7f51
p713
aF0.4309250979576521
aa(lp714
V\u4f46\u658c
p715
aF0.46423777091948593
aa(lp716
V\u83ab
aF0.21045179202583011
aa(lp717
V\u957f\u8138
p718
aF0.2742250623366877
aa(lp719
V\u6c11\u822a\u673a\u573a
p720
aF1.1937542680786781
aa(lp721
V\u53ca\u91d1\u8bc1
p722
aF0.17714259868277601
aa(lp723
V\u4e2d\u6d77
p724
aF0.37983090347957943
aa(lp725
V\u4f53\u80b2\u7f51
p726
aF0.22071773310026085
aa(lp727
V\u7f57\u5e73
p728
aF0.48944303426960528
aa(lp729
V\u9996\u9875
p730
aF0.17779318886278186
aa(lp731
V\u778e\u641e
p732
aF0.69610977362389959
aa(lp733
V\u7edf\u8ba1\u5c40
p734
aF0.31929719566628345
aa(lp735
V\u8bc1\u5238
p736
aF0.18196716434404753
aa(lp737
V\u53cc\u65b9
p738
aF0.29447462105342903
aa(lp739
V\u4e0d\u6210\u95ee\u9898
p740
aF0.2742250623366877
aa(lp741
V\u8fdb\u9000\u4e24\u96be
p742
aF0.21045179202583011
aa(lp743
V\u9876\u5c16\u9ad8\u624b
p744
aF0.2827945955347092
aa(lp745
V\u4e70\u6c14
p746
aF0.92847554183897185
aa(lp747
V\u5468\u56db
p748
aF0.28912621921183618
aa(lp749
V\u6548\u5e94
p750
aF0.82733293129845875
aa(lp751
V\u6d1b\u9633\u73bb\u7483
p752
aF0.92847554183897185
aa(lp753
V\u62ac
aF0.2742250623366877
aa(lp754
V\u6da8\u6da8
p755
aF0.4676949863789755
aa(lp756
V\u672c\u6765
p757
aF0.7228013425856894
aa(lp758
V\u70b9\u79bb
p759
aF0.16758198253908693
aa(lp760
V\u52a0\u6cb9
p761
aF1.062855592096656
aa(lp762
V\u6536\u957f
p763
aF0.48384450585884259
aa(lp764
V\u518d\u8005
p765
aF0.312049208865886
aa(lp766
V\u5360
aF0.34897458435086109
aa(lp767
V\u54e5
aF0.32911424215203161
aa(lp768
V\u67e5\u770b
p769
aF1.2096112646471064
aa(lp770
V\u6a2a\u5e97
p771
aF0.90494270571106949
aa(lp772
V\u5fc3\u60c5
p773
aF1.4515335175765278
aa(lp774
V\u6e2f\u80a1
p775
aF0.60324236308188595
aa(lp776
V\u81ea\u884c
p777
aF1.1937542680786781
aa(lp778
V\u6da8\u8dcc
p779
aF0.35008062022696435
aa(lp780
V\u9632\u6b62
p781
aF0.55708532510338316
aa(lp782
V\u675e\u4eba\u5fe7\u5929
p783
aF0.56558919106941841
aa(lp784
V\u5efa\u5316
p785
aF1.5082378428517824
aa(lp786
V\u8ffd\u8d8a
p787
aF1.0054918952345215
aa(lp788
V\u672a
aF0.29030670351530558
aa(lp789
V\u4e0d\u600e\u4e48\u6837
p790
aF0.58947174584544637
aa(lp791
V\u80fd
aF0.30375312346166861
aa(lp792
V\u6405
aF0.2532206023197196
aa(lp793
V\u5916\u5a46
p794
aF0.47628563458477335
aa(lp795
V\u8bf4\u7559
p796
aF0.45247135285553475
aa(lp797
V\u8fdb\u9000\u81ea\u5982
p798
aF0.32319382346823905
aa(lp799
V\u745e\u5c14
p800
aF1.2927752938729562
aa(lp801
V\u6362\u4e2a
p802
aF0.22071773310026085
aa(lp803
V\u4fdd\u8bc1\u91d1
p804
aF0.63066263219250918
aa(lp805
V\u9884\u671f
p806
aF0.3394684601424553
aa(lp807
V\u5230\u5904
p808
aF0.34805488681194979
aa(lp809
V\u610f\u5473\u7740
p810
aF0.26880250325491256
aa(lp811
V\u5fae\u535a\u81ea
p812
aF0.2445791096516404
aa(lp813
V\u6700\u4f4e\u70b9
p814
aF0.69699855154308576
aa(lp815
V\u8349\u5305
p816
aF0.35600663142280226
aa(lp817
V\u674e\u514b\u5f3a
p818
aF0.20109837904690434
aa(lp819
V\u7a0d\u52a0
p820
aF0.55708532510338316
aa(lp821
V\u65e9\u76d8
p822
aF0.33546221135536808
aa(lp823
V\u6df1\u9ad8\u5f00
p824
aF0.13506607547926411
aa(lp825
V\u80a1\u5e02
p826
aF0.18356772838825533
aa(lp827
V\u968f\u624b
p828
aF0.50274594761726077
aa(lp829
V\u5927
aF0.21608965131699231
aa(lp830
V\u5e74\u7ebf
p831
aF0.56511033755040707
aa(lp832
V\u6ca1\u70ed\u60c5
p833
aF0.29191700184228048
aa(lp834
V\u5f62\u6210
p835
aF1.9861282012507924
aa(lp836
V\u4e2a\u6162
p837
aF0.34805488681194979
aa(lp838
V\u770b\u6cd5
p839
aF0.2742250623366877
aa(lp840
V\u7ebf\u6536
p841
aF0.41133759350503157
aa(lp842
V\u4eba\u6c14
p843
aF0.27792753145701277
aa(lp844
V\u9022\u9ad8\u5356\u51fa
p845
aF0.2742250623366877
aa(lp846
V\u7ea2\u76d8
p847
aF1.3939971030861715
aa(lp848
V\u4f18\u52bf
p849
aF0.40064810796846467
aa(lp850
V\u5c1d\u8bd5
p851
aF0.45681349865163162
aa(lp852
V\u91d1\u6cf0
p853
aF0.25137297380863038
aa(lp854
V\u9645\u534e
p855
aF0.45247135285553475
aa(lp856
V\u7f29\u91cf
p857
aF0.74275420791437641
aa(lp858
V\u552f\u6709
p859
aF0.41133759350503157
aa(lp860
V\u7ec8\u6210\u7a7a
p861
aF1.5082378428517824
aa(lp862
V\u6700\u9ad8\u5206
p863
aF0.4309250979576521
aa(lp864
V\u6307\u671b
p865
aF0.37861022706869446
aa(lp866
V\u65e7\u4eba
p867
aF0.82267518701006315
aa(lp868
V\u5f53
aF0.16619039005880237
aa(lp869
V\u4e8c\u8005
p870
aF0.29191700184228048
aa(lp871
V\u65b0\u96c6
p872
aF1.062855592096656
aa(lp873
V\u540a\u70b8\u5929
p874
aF0.90494270571106949
aa(lp875
V\u4f01\u4e1a
p876
aF0.26481709350010568
aa(lp877
V\u4e8b\u513f
p878
aF0.78690670061832124
aa(lp879
V\u5e78\u4e8f
p880
aF0.82267518701006315
aa(lp881
V\u5982\u4f55
p882
aF0.34128829998153459
aa(lp883
V\u74f6\u9888
p884
aF0.26955741537260475
aa(lp885
V\u673a\u5668\u4eba
p886
aF0.19254100121512116
aa(lp887
V\u6765\u4e0d\u53ca
p888
aF0.21286479711085562
aa(lp889
V\u54ce\u5440
p890
aF0.90494270571106949
aa(lp891
V\u4f69\u670d
p892
aF0.83562798765507473
aa(lp893
V\u9177
aF1.9877036921106459
aa(lp894
V\u4f59\u6b3e
p895
aF0.33516396507817386
aa(lp896
V\u75b2\u8f6f
p897
aF0.52226749228442171
aa(lp898
V\u6362\u4e58
p899
aF0.32319382346823905
aa(lp900
V\u915d\u917f
p901
aF0.69664842690825479
aa(lp902
V\u723d\u6b6a\u6b6a
p903
aF0.29191700184228048
aa(lp904
V\u9632\u4e14
p905
aF0.75411892142589121
aa(lp906
V\u4e0d\u51e1
p907
aF0.22623567642776737
aa(lp908
V\u5403\u5c4e
p909
aF2.7854266255169158
aa(lp910
V\u5230\u5e95
p911
aF0.34817832818961447
aa(lp912
V\u4e00\u4e0b
p913
aF0.42170358421220155
aa(lp914
V\u548b
aF0.57230685728281494
aa(lp915
V\u6709\u8d77\u8272
p916
aF2.2623567642776736
aa(lp917
V\u6df7\u4e2a
p918
aF0.19672667515458031
aa(lp919
V\u6280\u672f
p920
aF0.20808911585833739
aa(lp921
V\u6536\u5230
p922
aF0.2445791096516404
aa(lp923
V\u5468\u671f\u6027
p924
aF0.69664842690825479
aa(lp925
V\u4f1a\u56de
p926
aF0.60329513714071292
aa(lp927
V\u9886\u8dcc\u670d
p928
aF0.75966180695915886
aa(lp929
V\u601d\u8003
p930
aF1.0368096554118056
aa(lp931
V\u5f71\u6709
p932
aF0.52226749228442171
aa(lp933
V\u968f\u65f6
p934
aF0.49692592302766148
aa(lp935
V\u771f\u7684
p936
aF1.0568961426680805
aa(lp937
V\u4e70\u5957
p938
aF0.2827945955347092
aa(lp939
V\u4e94\u65e5
p940
aF0.40357965223711351
aa(lp941
V\u5468\u671f
p942
aF0.54590041994429739
aa(lp943
V\u521a\u597d
p944
aF0.88342386316028698
aa(lp945
V\u4e00\u4e2a
p946
aF0.15007433001143233
aa(lp947
V\u2615
aF0.50274594761726077
aa(lp948
V\u70ed\u8bae
p949
aF0.90494270571106949
aa(lp950
V\u84dd\u7b79
p951
aF0.36922578440417136
aa(lp952
V\u5e95\u9650
p953
aF0.38315663479954015
aa(lp954
V\u80fd\u8bf4\u4f1a\u9053
p955
aF0.90494270571106949
aa(lp956
V\u8bb8\u591a
p957
aF0.36469557818459408
aa(lp958
V\u9879\u76ee
p959
aF0.29597987116897417
aa(lp960
V\u5927\u65b9\u5411
p961
aF0.31681752342867536
aa(lp962
V\u786e\u8ba4
p963
aF0.35403256526256777
aa(lp964
V\u533a
aF0.52306986123924271
aa(lp965
V\u5ddd\u91d1\u8bfa\u5343\u79be
p966
aF0.47628563458477335
aa(lp967
V\u9648\u54e5
p968
aF0.494840971901089
aa(lp969
V\u76ef\u4f4f
p970
aF0.3038647227836635
aa(lp971
V\u53d1\u9175
p972
aF0.47628563458477335
aa(lp973
V\u4e00\u4e24\u5929
p974
aF0.22623567642776737
aa(lp975
V\u5f88\u68d2
p976
aF0.28814758195002577
aa(lp977
V\u8ddf\u8e2a
p978
aF0.96894688754394565
aa(lp979
V\u9002\u5f53
p980
aF0.36229737054203109
aa(lp981
V\u540c
aF0.65978796253478544
aa(lp982
V\u6307\u6807
p983
aF0.65645204073226937
aa(lp984
V\u901a\u5b9d
p985
aF1.1311783821388368
aa(lp986
V\u5730\u72f1
p987
aF0.72395416456885553
aa(lp988
V\u5065\u5eb7
p989
aF0.2186681674485684
aa(lp990
V\u9501\u5b9a
p991
aF0.42826265498590466
aa(lp992
V\u664b\u897f
p993
aF0.56791534060304161
aa(lp994
V\u8f6e\u52a8
p995
aF0.17505387752860518
aa(lp996
V\u4e0d\u518d
p997
aF1.1616642525718095
aa(lp998
V\u6700\u5168
p999
aF0.75411892142589121
aa(lp1000
V\u5fae\u535a\u4e2d
p1001
aF0.2827945955347092
aa(lp1002
V\u5413\u6015
p1003
aF0.39345335030916062
aa(lp1004
V\u6df1
aF0.71226330305504826
aa(lp1005
V\u9b54\u5492
p1006
aF0.23203659120796652
aa(lp1007
V\u5438\u9ad8
p1008
aF0.23538816553664077
aa(lp1009
V\u591a\u70b9
p1010
aF0.27018657081871489
aa(lp1011
V\u8f6c\u5f31
p1012
aF0.36197708228442776
aa(lp1013
V\u77ed\u6682
p1014
aF0.22085596579007175
aa(lp1015
V\u7cfb
aF1.8599972861691483
aa(lp1016
V\u78e8
aF0.61160113603404498
aa(lp1017
V\u4e00\u5e06\u98ce\u987a
p1018
aF0.3770594607129456
aa(lp1019
V\u4e0d\u5165
p1020
aF0.36197708228442776
aa(lp1021
V\u89c1\u8bc1
p1022
aF0.46466570102872384
aa(lp1023
V\u79d8\u7b08
p1024
aF0.22071773310026085
aa(lp1025
V\u52c7\u6c14
p1026
aF0.47628563458477335
aa(lp1027
V\u5e93\u91cc
p1028
aF1.1358306812060832
aa(lp1029
V\u722c\u5347
p1030
aF0.50274594761726077
aa(lp1031
V\u5341\u4e09
p1032
aF0.2827945955347092
aa(lp1033
V\u7f51\u6e38
p1034
aF0.22071773310026085
aa(lp1035
V\u51e0\u5929
p1036
aF1.1582661038178423
aa(lp1037
V\u65f6\u81f3
p1038
aF0.2445791096516404
aa(lp1039
V\u9636\u6bb5
p1040
aF0.62768383348709134
aa(lp1041
V\u89c6\u89c9
p1042
aF0.33496927328689108
aa(lp1043
V\u4e00\u4e9b
p1044
aF0.22415023223693589
aa(lp1045
V\u91cd\u70b9
p1046
aF0.32767278545877337
aa(lp1047
V\u8fd4\u56de
p1048
aF0.17779318886278186
aa(lp1049
V\u5438\u8fdb\u53bb
p1050
aF0.30164756857035646
aa(lp1051
V\u65e5\u7ecf
p1052
aF0.49599927631177287
aa(lp1053
V\u7b2c\u4e00\u4e2a
p1054
aF1.7424963788577144
aa(lp1055
V\u6f2b\u6b65
p1056
aF0.34568759862793841
aa(lp1057
V\u5929
aF0.35509694547982357
aa(lp1058
V\u5feb\u8baf
p1059
aF0.56558919106941841
aa(lp1060
V\u51cf\u6301
p1061
aF0.47894579349942518
aa(lp1062
V\u6253\u538b
p1063
aF0.30024523096936356
aa(lp1064
V\u6b21\u5e95
p1065
aF0.69635665637922894
aa(lp1066
V\u9633\u666e
p1067
aF0.8514591884434225
aa(lp1068
V\u96be\u8a00
p1069
aF0.56558919106941841
aa(lp1070
V\u4e71\u52a8
p1071
aF1.5082378428517824
aa(lp1072
V\u5408\u7ea6
p1073
aF0.6385943913325669
aa(lp1074
V\u57fa\u91d1
p1075
aF0.44207757934028868
aa(lp1076
V\u8fd9\u4f4d
p1077
aF0.28814758195002577
aa(lp1078
V\u843d\u5e55
p1079
aF0.50274594761726077
aa(lp1080
V\u4e0d\u6b7b\u9e1f
p1081
aF0.56558919106941841
aa(lp1082
V\u5f00\u59cb
p1083
aF0.18984914400398697
aa(lp1084
V\u4e0d\u7528\u8c22
p1085
aF0.56558919106941841
aa(lp1086
V\u53d1\u51fa
p1087
aF0.34817832818961447
aa(lp1088
V\u6d41\u901a\u76d8
p1089
aF0.50274594761726077
aa(lp1090
V\u65e5\u7ebf
p1091
aF0.53144013894080455
aa(lp1092
V\u56fe\u7247\u5427
p1093
aF0.47628563458477335
aa(lp1094
V\u660f\u660f\u6b32\u7761
p1095
aF0.29191700184228048
aa(lp1096
V\u81ea\u4fe1
p1097
aF0.22623567642776737
aa(lp1098
V\u7ae0\u9c7c
p1099
aF0.75966180695915886
aa(lp1100
V\u4e00\u4ee3
p1101
aF0.99385184605532295
aa(lp1102
V\u53ef\u7eed
p1103
aF0.45549234322121529
aa(lp1104
V\u52e4
aF0.4309250979576521
aa(lp1105
V\u5de6
aF0.90494270571106949
aa(lp1106
V\u90fd
aF0.2187061187968434
aa(lp1107
V\u7ebf\u81f3
p1108
aF0.30878465236424557
aa(lp1109
V\u4e00\u6ee9
p1110
aF0.47628563458477335
aa(lp1111
V\u7231\u65bd
p1112
aF0.56791534060304161
aa(lp1113
V\u5e02\u76c8\u7387
p1114
aF0.31673960877677726
aa(lp1115
V\u4f20\u7403
p1116
aF0.22909941916735935
aa(lp1117
V\u91d1\u8bc1
p1118
aF0.22198490337673063
aa(lp1119
V\u4e00\u4ef6
p1120
aF0.18098854114221388
aa(lp1121
V\u8ff7\u60d1
p1122
aF0.2742250623366877
aa(lp1123
V\u5957\u73b0
p1124
aF0.39791808935955936
aa(lp1125
V\u65b9\u5411
p1126
aF0.24611463360328012
aa(lp1127
V\u5b63\u7ebf
p1128
aF0.75411892142589121
aa(lp1129
V\u770b\u5c11\u52a8
p1130
aF0.82267518701006315
aa(lp1131
V\u7a7f
aF0.24093378086189648
aa(lp1132
V\u80a1\u795e
p1133
aF0.54438944961048241
aa(lp1134
V\u6539\u9769
p1135
aF1.0623514877654652
aa(lp1136
V\u591a\u91cd
p1137
aF0.33425119506202988
aa(lp1138
V\u5e45\u5ea6
p1139
aF0.2079139952789667
aa(lp1140
V\u8fd9\u624d
p1141
aF0.29473587292272319
aa(lp1142
V\u6ed1\u5934
p1143
aF1.3927133127584579
aa(lp1144
V\u66f4\u9ad8
p1145
aF0.6463876469364781
aa(lp1146
V\u52a8\u80fd
p1147
aF0.53419747729128619
aa(lp1148
V\u7ec8\u5f52
p1149
aF0.39791808935955936
aa(lp1150
V\u7b11\u8bdd
p1151
aF1.2927752938729562
aa(lp1152
V\u62bd\u51fa
p1153
aF0.82267518701006315
aa(lp1154
V\u7b54\u5377
p1155
aF0.32319382346823905
aa(lp1156
V\u540c\u6837
p1157
aF0.21990210201449334
aa(lp1158
V\u5927\u8d5b
p1159
aF0.67032793015634773
aa(lp1160
V\u6ca1\u4ec0\u4e48
p1161
aF0.5116562911009479
aa(lp1162
V\u91d1\u878d\u80a1
p1163
aF0.68433947769050318
aa(lp1164
V\u6cb9\u4ef7
p1165
aF0.51295579151242476
aa(lp1166
V\u5173\u4e8e
p1167
aF0.95789158699885035
aa(lp1168
V\u667a\u80dc
p1169
aF1.2432427426108956
aa(lp1170
V\u80fd\u6e90
p1171
aF0.87124818942885718
aa(lp1172
V\u5c42\u9762
p1173
aF0.53231923865357023
aa(lp1174
V\u80a1\u9886
p1175
aF0.75966180695915886
aa(lp1176
V\u800c\u540e
p1177
aF0.17821238827885588
aa(lp1178
V\u6cd5\u5c14
p1179
aF0.20736193108236112
aa(lp1180
V\u9633\u67f1
p1181
aF0.27571203721776016
aa(lp1182
V\u8c03\u4ed3\u6362
p1183
aF0.29328834758164424
aa(lp1184
V\u8d5b\u5b63
p1185
aF1.1937542680786781
aa(lp1186
V\u65b0\u4e9a
p1187
aF0.36197708228442776
aa(lp1188
V\u7d22\u53d6
p1189
aF0.66215319930078254
aa(lp1190
V\u6781\u5176
p1191
aF0.75966180695915886
aa(lp1192
V\u70b9
aF0.38758472339845773
aa(lp1193
V\u5bf9\u5e94
p1194
aF0.56558919106941841
aa(lp1195
V\u8c03\u6574
p1196
aF0.14984860595096042
aa(lp1197
V\u5b9e\u6218
p1198
aF0.6385943913325669
aa(lp1199
V\u7a81\u7136\u88ad\u51fb
p1200
aF0.2742250623366877
aa(lp1201
V\u8fc7
aF0.23536944235099624
aa(lp1202
V\u6628\u5929
p1203
aF0.473342108525726
aa(lp1204
V\u7f3a\u4e4f
p1205
aF0.56791534060304161
aa(lp1206
V\u53ef\u4f4e
p1207
aF1.809885411422139
aa(lp1208
V\u80fd\u4ee5
p1209
aF0.33317968243438273
aa(lp1210
V\u5168\u7403
p1211
aF0.34237300008386795
aa(lp1212
V\u6682\u505c
p1213
aF0.83562798765507473
aa(lp1214
V\u5d1b\u8d77
p1215
aF0.58083212628590475
aa(lp1216
V\u5e94\u8be5
p1217
aF0.49385531929373827
aa(lp1218
V\u4f5c
aF0.29191700184228048
aa(lp1219
V\u4f4e\u70b9
p1220
aF1.1434445093870982
aa(lp1221
V\u8239\u8236
p1222
aF1.4746376252736615
aa(lp1223
V\u5927\u5927
p1224
aF1.1358306812060832
aa(lp1225
V\u6d3e\u795e
p1226
aF0.39345335030916062
aa(lp1227
V\u7968
aF0.20617490780756761
aa(lp1228
V\u5546\u573a
p1229
aF0.4676949863789755
aa(lp1230
V\u6301\u57fa\u5f85
p1231
aF0.29191700184228048
aa(lp1232
V\u4e09\u5bb6
p1233
aF0.36331651637177159
aa(lp1234
V\u8d70
aF0.45039394027842405
aa(lp1235
V\u516b\u83f1
p1236
aF2.2623567642776736
aa(lp1237
V\u8fb9\u8d70\u8fb9\u770b
p1238
aF0.30652530783963211
aa(lp1239
V\u5fc3\u8df3
p1240
aF1.5082378428517824
aa(lp1241
V\u4ed3\u6709
p1242
aF0.41781399382753737
aa(lp1243
V\u540e\u5df4\u54e5
p1244
aF0.25855505877459128
aa(lp1245
V\u65e0\u5948
p1246
aF1.5082378428517824
aa(lp1247
V\u7092\u80a1
p1248
aF0.27571203721776016
aa(lp1249
V\u4e2d\u6bc5
p1250
aF0.33516396507817386
aa(lp1251
V\u4e73\u4e1a
p1252
aF0.69610977362389959
aa(lp1253
V\u4e0b\u4e00\u6ce2
p1254
aF0.60329513714071292
aa(lp1255
V\u4ee3\u8868
p1256
aF0.4781702856195752
aa(lp1257
V\u610f\u6deb
p1258
aF0.25855505877459128
aa(lp1259
V\u6709\u9650
p1260
aF0.28217417464214289
aa(lp1261
V\u5f3a\u5ea6
p1262
aF0.36952954357290679
aa(lp1263
V\u6d88\u5316
p1264
aF0.30618723584736163
aa(lp1265
V\u8017\u7740
p1266
aF0.33516396507817386
aa(lp1267
V\u95ee\u8fc7
p1268
aF0.3770594607129456
aa(lp1269
V\u5c11
aF0.60468470766475668
aa(lp1270
V\u4e0d\u4e0a\u4e0d\u4e0b
p1271
aF0.45247135285553475
aa(lp1272
V\u8fce\u9a7e
p1273
aF0.67032793015634773
aa(lp1274
V\u81ea\u8eab
p1275
aF0.69635665637922894
aa(lp1276
V\u5c24\u592b
p1277
aF0.24892805412253061
aa(lp1278
V\u79fb\u52a8
p1279
aF0.61898369455931457
aa(lp1280
V\u5eb7\u65af\u7279
p1281
aF0.49599927631177287
aa(lp1282
V\u7f34\u8d39
p1283
aF0.32452305177316665
aa(lp1284
V\u603b\u51a0\u519b
p1285
aF0.6463876469364781
aa(lp1286
V\u4e0b\u91cf
p1287
aF0.36197708228442776
aa(lp1288
V\u592a\u8d85\u524d
p1289
aF0.18468218483899376
aa(lp1290
V\u8c31
aF1.3493683928233295
aa(lp1291
V\u4e3b\u6d41
p1292
aF0.33375667663202546
aa(lp1293
V\u65b9\u901a
p1294
aF0.6463876469364781
aa(lp1295
V\u7fd8\u5c3e
p1296
aF0.49154587509122044
aa(lp1297
V\u677f\u4e0a
p1298
aF0.92847554183897185
aa(lp1299
V\u53ca
aF0.36871248437060805
aa(lp1300
V\u6210\u578b
p1301
aF0.4309250979576521
aa(lp1302
V\u4e00\u8fb9
p1303
aF0.48186756172379297
aa(lp1304
V\u6ef4
aF0.64279075973467292
aa(lp1305
V\u76d8\u680b\u8f89
p1306
aF0.23814281729238668
aa(lp1307
V\u5728\u7ebf
p1308
aF0.63065265917608915
aa(lp1309
V\u8c22\u8c22
p1310
aF0.45681349865163162
aa(lp1311
V\u524d\u9762
p1312
aF0.19461690159055836
aa(lp1313
V\u5acc\u7591
p1314
aF0.2742250623366877
aa(lp1315
V\u7f1d\u9ad8
p1316
aF0.90494270571106949
aa(lp1317
V\u9519\u8fc7
p1318
aF0.66256789737021526
aa(lp1319
V\u5206\u65f6\u56fe
p1320
aF0.30580056801702249
aa(lp1321
V\u8d70\u8981
p1322
aF0.69610977362389959
aa(lp1323
V\u6307\u6807\u80a1
p1324
aF0.16667734788987962
aa(lp1325
V\u998b\u5634
p1326
aF3.5812628042360344
aa(lp1327
V\u65b9\u5531
p1328
aF0.47628563458477335
aa(lp1329
V\u738b\u9053
p1330
aF0.90494270571106949
aa(lp1331
V\u4fdd\u5b88
p1332
aF0.51711011754918257
aa(lp1333
V\u5927\u6768
p1334
aF0.62409841773177199
aa(lp1335
V\u7b56\u7565
p1336
aF0.26094992118945548
aa(lp1337
V\u5e73\u5e73
p1338
aF0.6463876469364781
aa(lp1339
V\u5238\u5546
p1340
aF0.14506783030102291
aa(lp1341
V\u6c34\u5e73
p1342
aF0.2254542165053513
aa(lp1343
V\u7ebd\u7ea6
p1344
aF0.28075430734628654
aa(lp1345
V\u8bf4
aF0.24166545665746608
aa(lp1346
V\u653e\u91cf
p1347
aF0.69643425531643666
aa(lp1348
V\u592a\u9505
p1349
aF0.82267518701006315
aa(lp1350
V\u52a8\u6001
p1351
aF1.5901629536885169
aa(lp1352
V\u6500\u5347
p1353
aF0.34560321847060183
aa(lp1354
V\u4e0d\u901a
p1355
aF0.33516396507817386
aa(lp1356
V\u6781
aF0.2445791096516404
aa(lp1357
V\u672a\u80fd
p1358
aF0.28381972948114081
aa(lp1359
V\u7537\u54e5
p1360
aF0.41133759350503157
aa(lp1361
V\u98ce\u4e91
p1362
aF0.82267518701006315
aa(lp1363
V\u8822\u8822\u6b32\u52a8
p1364
aF0.37861022706869446
aa(lp1365
V\u63a7\u5236
p1366
aF0.28460742828067209
aa(lp1367
V\u6301\u4e45\u6218
p1368
aF0.2742250623366877
aa(lp1369
V\u4e0d\u53ef
p1370
aF0.45360422424266494
aa(lp1371
V\u66f2\u6c5f
p1372
aF0.36197708228442776
aa(lp1373
V\u6c14
aF2.0890699691376868
aa(lp1374
V\u5f80\u5f80
p1375
aF0.19895904467977968
aa(lp1376
V\u8d77\u6da8
p1377
aF0.34805488681194979
aa(lp1378
V\u667a\u80fd
p1379
aF0.31359918967117772
aa(lp1380
V\u5ffd\u60a0
p1381
aF0.51629522336524869
aa(lp1382
V\u6218
aF0.29191700184228048
aa(lp1383
V\u811a
aF1.2927752938729562
aa(lp1384
V\u56f4\u89c2
p1385
aF0.53231923865357023
aa(lp1386
V\u5192\u4e2a
p1387
aF0.83562798765507473
aa(lp1388
V\u9644\u8fd1
p1389
aF0.52726244043405812
aa(lp1390
V\u50bb\u5b50
p1391
aF0.46423777091948593
aa(lp1392
V\u7ed3\u679c
p1393
aF0.33093317251938353
aa(lp1394
V\u4e0d\u5927
p1395
aF0.75061307742340888
aa(lp1396
V\u5404\u5927
p1397
aF0.26309321881686593
aa(lp1398
V\u6f02\u4eae
p1399
aF0.40999914796652104
aa(lp1400
V\u5317\u4eac
p1401
aF1.1733638198463734
aa(lp1402
V\u9047\u963b
p1403
aF0.49599927631177287
aa(lp1404
V\u52a0\u901f\u4e0a\u626c
p1405
aF0.21045179202583011
aa(lp1406
V\u8d5e\u52a9
p1407
aF0.92847554183897185
aa(lp1408
V\u6109\u5feb
p1409
aF0.312049208865886
aa(lp1410
V\u7eb5\u5bb9
p1411
aF0.60329513714071292
aa(lp1412
V\u75db\u82e6
p1413
aF0.2445791096516404
aa(lp1414
V\u540e\u6765\u5c45\u4e0a
p1415
aF0.39345335030916062
aa(lp1416
V\u611f\u52a8
p1417
aF0.69610977362389959
aa(lp1418
V\u96c4\u8d77
p1419
aF0.2839576703015208
aa(lp1420
V\u4e09\u89d2\u5f62
p1421
aF0.99385184605532295
aa(lp1422
V\u98de\u5347
p1423
aF0.55828212214481843
aa(lp1424
V\u6478\u5956
p1425
aF2.2623567642776736
aa(lp1426
V\u4e0d\u53d8
p1427
aF0.46317697854636836
aa(lp1428
V\u7ed3\u6784
p1429
aF0.39345335030916062
aa(lp1430
V\u504f\u504f
p1431
aF0.312049208865886
aa(lp1432
V\u592a\u96be
p1433
aF0.34805488681194979
aa(lp1434
V\u4e0a
aF0.31356226737500964
aa(lp1435
V\u65e0\u5fe7
p1436
aF0.50274594761726077
aa(lp1437
V\u7ea2\u5305
p1438
aF0.53005431789617219
aa(lp1439
V\u4e0d\u592a\u52a8
p1440
aF0.30580056801702249
aa(lp1441
V\u5f81\u7a0b
p1442
aF0.82267518701006315
aa(lp1443
V\u7a0d\u5fae
p1444
aF0.93778862961752762
aa(lp1445
V\u50cf
aF0.39230239592943206
aa(lp1446
V\u62d2\u63a5
p1447
aF0.2445791096516404
aa(lp1448
V\u7ec6\u8282
p1449
aF0.26113374614221085
aa(lp1450
V\u9001\u51fa\u53bb
p1451
aF0.41133759350503157
aa(lp1452
V\u63a5\u4e0b\u53bb
p1453
aF0.82267518701006315
aa(lp1454
V\u6ca1\u628a\u63e1
p1455
aF0.66256789737021526
aa(lp1456
V\u6df1\u8dcc
p1457
aF0.46423777091948593
aa(lp1458
V\u56fd\u5bb6\u961f
p1459
aF0.18773157478834177
aa(lp1460
V\u65e0\u5fc3
p1461
aF0.47628563458477335
aa(lp1462
V\u795e\u96fe
p1463
aF0.45247135285553475
aa(lp1464
V\u6c47\u4e7e\u666f
p1465
aF0.53005431789617219
aa(lp1466
V\u635f\u5931
p1467
aF0.46423777091948593
aa(lp1468
V\u6d77\u901a
p1469
aF0.95789158699885035
aa(lp1470
V\u4e70
aF2.0025503157104576
aa(lp1471
V\u9738\u6c14
p1472
aF0.18468218483899376
aa(lp1473
V\u6295\u8d44\u8005
p1474
aF0.41260854072000536
aa(lp1475
V\u8303\u56f4
p1476
aF0.34216973884525159
aa(lp1477
V\u9b3c\u8c37
p1478
aF0.19672667515458031
aa(lp1479
V\u51fa\u81ea
p1480
aF0.6463876469364781
aa(lp1481
V\u8f86
aF0.58894924210685806
aa(lp1482
V\u7b14\u8bb0\u672c
p1483
aF0.29843856701966953
aa(lp1484
V\u5341\u5143
p1485
aF0.29191700184228048
aa(lp1486
V\u900f
aF0.56558919106941841
aa(lp1487
V\u4e0d\u80a5
p1488
aF0.41133759350503157
aa(lp1489
V\u8fd8\u4f1a
p1490
aF0.41441424753696515
aa(lp1491
V\u5546\u54c1
p1492
aF0.33317968243438273
aa(lp1493
V\u73af\u4fdd
p1494
aF0.30580056801702249
aa(lp1495
V\u8001\u8054
p1496
aF1.0054918952345215
aa(lp1497
V\u4fe1\u53f7
p1498
aF0.87214115399203618
aa(lp1499
V\u4f7f\u7528
p1500
aF0.57297375693810304
aa(lp1501
V\u901a\u5408
p1502
aF0.50274594761726077
aa(lp1503
V\u63a5\u5fae\u535a
p1504
aF0.33516396507817386
aa(lp1505
V\u770b\u89c1
p1506
aF0.36331651637177159
aa(lp1507
V\u9488\u5bf9
p1508
aF0.34148781347587526
aa(lp1509
V\u5206\u7834
p1510
aF0.39345335030916062
aa(lp1511
V\u89e6\u5e95
p1512
aF1.809885411422139
aa(lp1513
V\u6ca1\u6709
p1514
aF0.24525260193220205
aa(lp1515
V\u8f83\u6162
p1516
aF0.61160113603404498
aa(lp1517
V\u6765\u4e2a
p1518
aF0.2742250623366877
aa(lp1519
V\u5fc3\u7406\u538b\u529b
p1520
aF0.60329513714071292
aa(lp1521
V\u8bba\u5e02
p1522
aF0.61700639025754733
aa(lp1523
V\u53d7\u5176
p1524
aF0.16758198253908693
aa(lp1525
V\u5929\u6c83
p1526
aF0.30949184727965728
aa(lp1527
V\u770b\u4e0d\u51fa
p1528
aF0.75411892142589121
aa(lp1529
V\u6253\u51fa
p1530
aF0.67636264951605396
aa(lp1531
V\u6218\u4e89
p1532
aF0.2742250623366877
aa(lp1533
V\u5929\u6cfd
p1534
aF0.16128150195294755
aa(lp1535
V\u6c47
aF0.20339334390065889
aa(lp1536
V\u563b\u563b
p1537
aF0.77483607642602992
aa(lp1538
V\u5171\u8fdb
p1539
aF0.5108755130660535
aa(lp1540
V\u51cf\u6162
p1541
aF0.13307980966339256
aa(lp1542
V\u592a\u9633
p1543
aF1.9283722792040188
aa(lp1544
V\u5c31\u8981
p1545
aF0.64326571235961094
aa(lp1546
V\u6487\u5f00
p1547
aF0.312049208865886
aa(lp1548
V\u6ca1\u677f
p1549
aF3.0164756857035648
aa(lp1550
V\u5730\u4f4d
p1551
aF0.37983090347957943
aa(lp1552
V\u5e7f\u665f
p1553
aF0.64279075973467292
aa(lp1554
V\u652f\u4ed8\u5b9d
p1555
aF0.90494270571106949
aa(lp1556
V\u52a0\u4ed3\u70b9
p1557
aF0.60329513714071292
aa(lp1558
V\u7ed3\u675f
p1559
aF0.33738788039449658
aa(lp1560
V\u6846\u67b6
p1561
aF0.47999929965655436
aa(lp1562
V\u4e0a\u5f71
p1563
aF0.47356779387035869
aa(lp1564
V\u6700\u53f3
p1565
aF5.0137679259304484
aa(lp1566
V\u540c\u6bd4
p1567
aF0.46961446753417335
aa(lp1568
V\u901f\u6765
p1569
aF0.4309250979576521
aa(lp1570
V\u51fa
aF0.55917840254883311
aa(lp1571
V\u4eba\u6c11\u5e01
p1572
aF0.5774114343013621
aa(lp1573
V\u9e21\u9e21
p1574
aF0.25855505877459128
aa(lp1575
V\u5a31\u4e50
p1576
aF0.31625549906651423
aa(lp1577
V\u521a\u521a
p1578
aF0.56791534060304161
aa(lp1579
V\u8d8a\u591a
p1580
aF0.30676023922409135
aa(lp1581
V\u53d1\u73b0
p1582
aF0.61590552992145298
aa(lp1583
V\u5c1a
aF0.19254100121512116
aa(lp1584
V\u578b
aF0.64279075973467292
aa(lp1585
V\u80a1\u53cb\u4eec
p1586
aF0.53760500650982512
aa(lp1587
V\u53ea\u7231
p1588
aF3.0164756857035648
aa(lp1589
V\u8d5e\u7ed9\u529b
p1590
aF0.51711011754918257
aa(lp1591
V\u6301\u4ed3
p1592
aF0.51840482770590279
aa(lp1593
V\u6e90\u80a1
p1594
aF0.12065902742814261
aa(lp1595
V\u4e09\u79cd
p1596
aF0.6463876469364781
aa(lp1597
V\u51b7\u8272
p1598
aF0.60329513714071292
aa(lp1599
V\u8fc5\u731b
p1600
aF0.25855505877459128
aa(lp1601
V\u8bcd\u513f
p1602
aF0.33516396507817386
aa(lp1603
V\u96be\u5f97
p1604
aF0.30304284849699381
aa(lp1605
V\u53e3\u53f7
p1606
aF0.19157831739977008
aa(lp1607
V\u521b\u4e1a\u677f
p1608
aF0.18517736963010845
aa(lp1609
V\u770b\u4e0d\u61c2
p1610
aF0.87960840805797336
aa(lp1611
V\u7cfb\u5c0f\u6709
p1612
aF2.2623567642776736
aa(lp1613
V\u7ea2\u7ebf
p1614
aF0.11752502671572332
aa(lp1615
V\u4e70\u7968
p1616
aF0.69610977362389959
aa(lp1617
V\u4ea4\u901a\u5de5\u5177
p1618
aF0.32319382346823905
aa(lp1619
V\u592a\u91cd
p1620
aF0.30949184727965728
aa(lp1621
V\u5229\u6c11
p1622
aF1.1358306812060832
aa(lp1623
V\u503e\u5411
p1624
aF0.18930511353434723
aa(lp1625
V\u582a
aF0.20566879675251579
aa(lp1626
V\u5b89\u5168
p1627
aF0.61049880779442534
aa(lp1628
V\u5341\u8db3
p1629
aF0.95021882633033183
aa(lp1630
V\u62c9\u952f
p1631
aF0.49154587509122044
aa(lp1632
V\u8de8\u5883
p1633
aF0.65970630604348002
aa(lp1634
V\u4e4b\u6218
p1635
aF0.55708532510338316
aa(lp1636
V\u6570\u636e
p1637
aF0.26670859556781779
aa(lp1638
V\u5c11\u91cf
p1639
aF1.0054918952345215
aa(lp1640
V\u81ea\u8c03
p1641
aF1.5082378428517824
aa(lp1642
V\u5269\u4f59\u65f6\u95f4
p1643
aF0.17779318886278186
aa(lp1644
V\u6740
aF2.2489473213722158
aa(lp1645
V\u7cfb\u6570
p1646
aF0.60480563232355322
aa(lp1647
V\u5df2\u6210
p1648
aF0.4309250979576521
aa(lp1649
V\u611f\u53d7
p1650
aF0.30367302631333032
aa(lp1651
V\u57cb
aF0.44143546620052171
aa(lp1652
V\u6536\u661f\u7ebf
p1653
aF0.60329513714071292
aa(lp1654
V\u4e0d\u52a8
p1655
aF0.57101687331453954
aa(lp1656
V\u77ed\u671f\u5185
p1657
aF0.1856951083677944
aa(lp1658
V\u548c
aF0.31989469817243743
aa(lp1659
V\u6309\u9009\u80a1
p1660
aF1.2927752938729562
aa(lp1661
V\u6700\u725b
p1662
aF0.37983090347957943
aa(lp1663
V\u8fdb
aF1.2096112646471064
aa(lp1664
V\u4e00\u8d5e
p1665
aF0.33516396507817386
aa(lp1666
V\u9760
aF1.3303063568624647
aa(lp1667
V\u65e0\u4eba\u9a7e\u9a76
p1668
aF0.26521852119172873
aa(lp1669
V\u5462
aF0.32152400697968136
aa(lp1670
V\u5927\u8df3\u6c34
p1671
aF0.19672667515458031
aa(lp1672
V\u5c31\u6837
p1673
aF0.312049208865886
aa(lp1674
V\u627f\u53d7
p1675
aF0.6385943913325669
aa(lp1676
V\u5929\u8d50
p1677
aF0.2670987386456431
aa(lp1678
V\u4e24\u5e02
p1679
aF0.23306728708681554
aa(lp1680
V\u4e1a\u52a1
p1681
aF0.29191700184228048
aa(lp1682
V\u5929\u8d4b
p1683
aF0.3770594607129456
aa(lp1684
V\u4e00\u8d77
p1685
aF1.6628829460780807
aa(lp1686
V\u5404\u9879
p1687
aF0.19254100121512116
aa(lp1688
V\u5f00\u7a7a
p1689
aF0.26955741537260475
aa(lp1690
V\u8ddf\u4e0d\u4e0a
p1691
aF0.36331651637177159
aa(lp1692
V\u7ffb
aF0.78315675207122026
aa(lp1693
V\u5f00\u76d8\u4ef7
p1694
aF0.83562798765507473
aa(lp1695
V\u4e0d\u529b
p1696
aF0.20566879675251579
aa(lp1697
V\u7164\u70ad
p1698
aF0.27029771953219495
aa(lp1699
V\u8005
aF0.36024876109161985
aa(lp1700
V\u6bcf\u4e2a
p1701
aF0.23221614230275162
aa(lp1702
V\u4e86
aF0.1312370673682762
aa(lp1703
V\u770b
aF0.23748698786982253
aa(lp1704
V\u65b9\u9762
p1705
aF0.35609969315039425
aa(lp1706
V\u540d
aF0.69635665637922894
aa(lp1707
V\u906d\u9047
p1708
aF0.41133759350503157
aa(lp1709
V\u53ea\u516d\u8fde\u677f
p1710
aF0.20736193108236112
aa(lp1711
V\u98de\u98de\u98de
p1712
aF1.2927752938729562
aa(lp1713
V\u6df1\u8c03
p1714
aF0.25137297380863038
aa(lp1715
V\u6dfb\u52a0
p1716
aF0.2445791096516404
aa(lp1717
V\u6253\u6cd5
p1718
aF0.29191700184228048
aa(lp1719
V\u76d1\u63a7
p1720
aF0.25855505877459128
aa(lp1721
V\u6696
aF0.25137297380863038
aa(lp1722
V\u4e94\u5927
p1723
aF0.33516396507817386
aa(lp1724
V\u4fee\u590d
p1725
aF0.24892805412253061
aa(lp1726
V\u4e3a\u5854\u724c
p1727
aF0.56558919106941841
aa(lp1728
V\u5438\u7d2b\u96e8
p1729
aF0.53231923865357023
aa(lp1730
V\u6df1\u6c34
p1731
aF0.13922195472477991
aa(lp1732
V\u7ea6
aF0.45872632995257401
aa(lp1733
V\u8bc1\u5238\u4ea4\u6613
p1734
aF0.1885297303564728
aa(lp1735
V\u811a\u6b65
p1736
aF0.69610977362389959
aa(lp1737
V\u8dcc\u8dcc
p1738
aF0.53231923865357023
aa(lp1739
V\u91cd\u538b
p1740
aF0.21990210201449334
aa(lp1741
V\u513f\u5b50
p1742
aF0.48442202182902883
aa(lp1743
V\u52a8\u624b
p1744
aF0.75966180695915886
aa(lp1745
V\u9c7c\u8dc3
p1746
aF1.0054918952345215
aa(lp1747
V\u73a9\u610f
p1748
aF0.36197708228442776
aa(lp1749
V\u4e2a\u4eba\u611f\u89c9
p1750
aF0.60329513714071292
aa(lp1751
V\u5171\u4eab
p1752
aF0.22071773310026085
aa(lp1753
V\u5e72\u676f
p1754
aF1.3574140585666041
aa(lp1755
V\u62a5\u4e2a
p1756
aF0.75411892142589121
aa(lp1757
V\u4e09\u5251\u5ba2
p1758
aF0.90720844848532989
aa(lp1759
V\u5de6\u53f3
p1760
aF0.23480723376708668
aa(lp1761
V\u6d88\u606f\u9762
p1762
aF0.22104723198260121
aa(lp1763
V\u5bb3\u7f9e
p1764
aF0.83562798765507473
aa(lp1765
V\u56e0\u6b64
p1766
aF0.42242377437011025
aa(lp1767
V\u4fbf\u5b9c\u8d27
p1768
aF0.45247135285553475
aa(lp1769
V\u9634\u9669
p1770
aF0.51711011754918257
aa(lp1771
V\U0001f44d
aF1.1311783821388368
aa(lp1772
V\u52a0\u4ed3
p1773
aF0.34521506974685351
aa(lp1774
V\u4e00\u8dcc
p1775
aF0.50274594761726077
aa(lp1776
V\u8ffd\u5165
p1777
aF1.3927133127584579
aa(lp1778
V\u66f4\u597d
p1779
aF0.94702187118736991
aa(lp1780
V\u8ba4\u4e3a
p1781
aF1.1046133064989065
aa(lp1782
V\u59d4
aF0.33128394868510763
aa(lp1783
V\u4e0d\u723d
p1784
aF1.809885411422139
aa(lp1785
V\u7231\u65bd\u5fb7
p1786
aF0.41216728899644195
aa(lp1787
V\u8ffd\u9010
p1788
aF0.2445791096516404
aa(lp1789
V\u7ecf\u6d4e
p1790
aF1.517644982522093
aa(lp1791
V\u8fd9\u80a1
p1792
aF0.52709249844419037
aa(lp1793
V\u6b63\u5982
p1794
aF0.13777757675327024
aa(lp1795
V\u4eba\u4eba\u4e50
p1796
aF0.66256789737021526
aa(lp1797
V\u56de\u60f3
p1798
aF0.75966180695915886
aa(lp1799
V\u4e00\u8def
p1800
aF0.1847647717864534
aa(lp1801
V\u7ba1\u4f4f
p1802
aF0.59687713403933906
aa(lp1803
V\u8650\u5fc3
p1804
aF0.4309250979576521
aa(lp1805
V\u4e09\u5929
p1806
aF0.20666636512990536
aa(lp1807
V\u65e0\u5f0a
p1808
aF0.3770594607129456
aa(lp1809
V\u4e09\u592b
p1810
aF0.47628563458477335
aa(lp1811
V\u7834\u706d
p1812
aF0.23814281729238668
aa(lp1813
V\u4e92\u8054\u7f51
p1814
aF0.22920162663777743
aa(lp1815
V\u53ec\u96c6
p1816
aF0.53231923865357023
aa(lp1817
V\u7279
aF1.2927752938729562
aa(lp1818
V\u9884\u5224
p1819
aF0.25949392169679414
aa(lp1820
V\u997f
aF0.92847554183897185
aa(lp1821
V\u4e00\u5b57
p1822
aF0.2839576703015208
aa(lp1823
V\u8981
aF0.20629096537829578
aa(lp1824
V\u4e09\u56db
p1825
aF0.2742250623366877
aa(lp1826
V\u61d2\u60f0
p1827
aF0.23814281729238668
aa(lp1828
V\u53cd\u6620
p1829
aF0.26615961932678511
aa(lp1830
V\u770b\u6765
p1831
aF0.58949797269537796
aa(lp1832
V\u7d20\u6765
p1833
aF0.25137297380863038
aa(lp1834
V\u4ee5\u6765
p1835
aF0.21525808812289032
aa(lp1836
V\u4e0d\u5dee
p1837
aF0.25369703243054925
aa(lp1838
V\u76f8\u7ee7
p1839
aF0.16758198253908693
aa(lp1840
V\u6740\u8dcc
p1841
aF0.4781702856195752
aa(lp1842
V\u7279\u9ad8\u538b
p1843
aF0.87044582047403618
aa(lp1844
V\u6b66\u94a2
p1845
aF1.1311783821388368
aa(lp1846
V\u7f8e\u5986
p1847
aF0.4309250979576521
aa(lp1848
V\u5f53\u4e2d
p1849
aF0.17053632401123972
aa(lp1850
V\u97ed\u83dc
p1851
aF0.25137297380863038
aa(lp1852
V\u9001\u7ed9
p1853
aF0.6463876469364781
aa(lp1854
V\u53ea\u65e0\u4e00
p1855
aF0.23203659120796652
aa(lp1856
V\u4e00\u6218
p1857
aF0.30580056801702249
aa(lp1858
V\u4f1a
aF0.39155022072586632
aa(lp1859
V\u4e09\u96c4
p1860
aF0.26615961932678511
aa(lp1861
V\u5148\u51fa
p1862
aF0.60480563232355322
aa(lp1863
V\u65e9\u76d8\u4f1a
p1864
aF0.50274594761726077
aa(lp1865
V\u96f7\u58f0\u5927\u96e8
p1866
aF0.24577293754561022
aa(lp1867
V\u665a
aF0.20381170430611578
aa(lp1868
V\u817e\u98de
p1869
aF0.32139537986733646
aa(lp1870
V\u5b8c\u7f8e
p1871
aF0.69742648165232357
aa(lp1872
V\u5428
aF0.82666546051962142
aa(lp1873
V\u88ab
aF0.35715676627520976
aa(lp1874
V\u5927\u5510\u7535\u4fe1
p1875
aF1.0368096554118056
aa(lp1876
V\u522b\u4e71
p1877
aF0.39345335030916062
aa(lp1878
V\u8868\u6f14
p1879
aF0.75966180695915886
aa(lp1880
V\u6d3b\u8dc3
p1881
aF0.65259820757769982
aa(lp1882
V\u7d20\u6750
p1883
aF0.24464045441361798
aa(lp1884
V\u795e\u51c6
p1885
aF0.95257126916954671
aa(lp1886
V\u4e0b\u4e2d\u91d1
p1887
aF1.5082378428517824
aa(lp1888
V\u5356\u70b9
p1889
aF0.3770594607129456
aa(lp1890
V\u50bb
aF0.58894924210685806
aa(lp1891
V\u5f3a
aF0.31116002816245408
aa(lp1892
V\u4fdd\u9669
p1893
aF0.46466570102872384
aa(lp1894
V\u5fc3\u75bc
p1895
aF0.4309250979576521
aa(lp1896
V\u53ef\u7231
p1897
aF0.79508147684425845
aa(lp1898
V\u89c1
aF1.3664770296636459
aa(lp1899
V\u7ad9\u4e0a
p1900
aF0.3052557013093064
aa(lp1901
V\u518d\u6b21
p1902
aF0.30789376403035323
aa(lp1903
V\u9510\u6377
p1904
aF0.42826265498590466
aa(lp1905
V\u8bb0\u5f55
p1906
aF1.2096112646471064
aa(lp1907
V\u5564\u9152\u82b1
p1908
aF0.18245554038073339
aa(lp1909
V\u656c\u610f
p1910
aF0.53231923865357023
aa(lp1911
V\u76f8\u7ea6
p1912
aF0.90494270571106949
aa(lp1913
V\u9e3f\u7279
p1914
aF0.47628563458477335
aa(lp1915
V\u672c\u4e8b
p1916
aF0.23814281729238668
aa(lp1917
V\u91d1
aF0.95789158699885035
aa(lp1918
V\u533b\u7597
p1919
aF0.71226330305504826
aa(lp1920
V\u540d\u5bb6
p1921
aF0.19392668737993166
aa(lp1922
V\u7092\u4f5c
p1923
aF0.78253315109556743
aa(lp1924
V\u9646\u9646\u7eed\u7eed
p1925
aF0.33516396507817386
aa(lp1926
V\u6d8c\u51fa
p1927
aF0.6463876469364781
aa(lp1928
V\u5173\u952e\u70b9
p1929
aF0.83562798765507473
aa(lp1930
V\u6ca1\u89c1
p1931
aF0.2532206023197196
aa(lp1932
V\u5347\u5c71
p1933
aF0.39791808935955936
aa(lp1934
V\u4e0d\u5229\u4e8e
p1935
aF0.34817832818961447
aa(lp1936
V\u6b62\u8dcc
p1937
aF0.79508147684425845
aa(lp1938
V\u5468
aF0.69664842690825479
aa(lp1939
V\u70b9\u4e8e
p1940
aF0.69610977362389959
aa(lp1941
V\u6bdb\u7ebf
p1942
aF0.33516396507817386
aa(lp1943
V\u65e0\u91cf
p1944
aF0.45788355196395958
aa(lp1945
V\u63a7\u80a1
p1946
aF2.7854266255169158
aa(lp1947
V\u8a00
aF1.5082378428517824
aa(lp1948
V\u6674
aF0.4509084330107026
aa(lp1949
V\u53ef\u64cd\u4f5c\u6027
p1950
aF0.1653330921039243
aa(lp1951
V\u4e09\u8fde\u9634
p1952
aF0.43980420402898668
aa(lp1953
V\u4e00\u6279
p1954
aF0.49692592302766148
aa(lp1955
V\u5feb\u677f
p1956
aF2.2623567642776736
aa(lp1957
V\u524d\u9ad8
p1958
aF0.59139328411815439
aa(lp1959
V\u76f8\u5e94
p1960
aF0.33516396507817386
aa(lp1961
V\u8214
aF0.55404655451698126
aa(lp1962
V\u5904\u4e8e
p1963
aF0.4308767386859646
aa(lp1964
V\u8c03
aF0.4309250979576521
aa(lp1965
V\u5b88\u5019
p1966
aF0.75411892142589121
aa(lp1967
V\u6d6a\u8d39
p1968
aF0.3614006712928447
aa(lp1969
V\u7686
aF0.33516396507817386
aa(lp1970
V\u6b65\u5165
p1971
aF0.58176693427628656
aa(lp1972
V\u4ea4\u6613\u7cfb\u7edf
p1973
aF0.16159691173411952
aa(lp1974
V\u5fc3\u6001
p1975
aF0.46889431480876381
aa(lp1976
V\u7ecf\u53d7\u8003\u9a8c
p1977
aF0.82267518701006315
aa(lp1978
V\u52c7\u8005
p1979
aF0.47628563458477335
aa(lp1980
V\u5348\u76d8\u4f1a
p1981
aF0.47628563458477335
aa(lp1982
V\u5fc3\u601d
p1983
aF0.21546254897882605
aa(lp1984
V\u8f6c\u53d1
p1985
aF0.27352168363844553
aa(lp1986
V\u8fd9\u8fd1
p1987
aF0.32319382346823905
aa(lp1988
V\u805a\u4f1a
p1989
aF0.39345335030916062
aa(lp1990
V\u4ea4\u5272
p1991
aF0.56791534060304161
aa(lp1992
V\u9502\u4e1a
p1993
aF1.6453503740201263
aa(lp1994
V\u6211\u8981
p1995
aF1.2927752938729562
aa(lp1996
V\u5ba2
aF0.53231923865357023
aa(lp1997
V\u4eba\u6709
p1998
aF0.34107264802247944
aa(lp1999
V\u9501
aF1.1311783821388368
aa(lp2000
V\u5e38\u7406
p2001
aF0.33516396507817386
aa(lp2002
V\u53ef\u52a0
p2003
aF0.39754073842212923
aa(lp2004
V\u540d\u5b57
p2005
aF1.1937542680786781
aa(lp2006
V\u8463\u79d8
p2007
aF0.90494270571106949
aa(lp2008
V\u6298\u817e
p2009
aF0.3723990377345236
aa(lp2010
V\u52a0\u8fdb\u53bb
p2011
aF0.30164756857035646
aa(lp2012
V\u5fae\u5f31
p2013
aF0.36197708228442776
aa(lp2014
V\u91d1\u878d
p2015
aF0.26881512914461564
aa(lp2016
V\u963f
aF0.99385184605532295
aa(lp2017
V\u591a\u65b9
p2018
aF0.71035169080553806
aa(lp2019
V\u85cf\u836f
p2020
aF0.2445791096516404
aa(lp2021
V\u62c9\u9ad8
p2022
aF1.062855592096656
aa(lp2023
V\u529b\u62a4
p2024
aF1.1358306812060832
aa(lp2025
V\u6295\u8d44\u4eba
p2026
aF0.40320375488236881
aa(lp2027
V\u5012\u817e
p2028
aF0.30949184727965728
aa(lp2029
V\u4e4b\u8def
p2030
aF0.4309250979576521
aa(lp2031
V\u5acc
aF0.19254100121512116
aa(lp2032
V\u7f3a\u53e3
p2033
aF0.37436265684170317
aa(lp2034
V\u65e0\u5173
p2035
aF0.57230685728281494
aa(lp2036
V\u7ed9\u529b
p2037
aF0.95021882633033183
aa(lp2038
V\u61c2\u5417
p2039
aF0.39345335030916062
aa(lp2040
V\u51cf\u8f7b
p2041
aF0.26615961932678511
aa(lp2042
V\u6709\u5229\u4e8e
p2043
aF0.21286479711085562
aa(lp2044
V\u4e0a\u65b9
p2045
aF0.67790885198664619
aa(lp2046
V\u7f51
aF0.80664554694640023
aa(lp2047
V\u4e2d\u8f74\u7ebf
p2048
aF0.43980420402898668
aa(lp2049
V\u4ef7\u6ca1\u7968
p2050
aF0.46423777091948593
aa(lp2051
V\u60f3\u60f3
p2052
aF0.75966180695915886
aa(lp2053
V\u9884\u8bbe\u7acb\u573a
p2054
aF0.59687713403933906
aa(lp2055
V\u857e\u857e\u857e
p2056
aF0.69610977362389959
aa(lp2057
V\u6cea\u6d41\u6ee1\u9762
p2058
aF0.77732836060937183
aa(lp2059
V\u57cb\u5934
p2060
aF0.4309250979576521
aa(lp2061
V\u5783\u573e
p2062
aF0.30164756857035646
aa(lp2063
V\u4f3c\u4e4e
p2064
aF0.19433209015234296
aa(lp2065
V\u53d8\u6570
p2066
aF0.21781204735721429
aa(lp2067
V\u7a33\u4e00\u7a33
p2068
aF0.33516396507817386
aa(lp2069
V\u5c11\u4e0d\u4e86
p2070
aF0.53231923865357023
aa(lp2071
V\u5438\u53d6\u6559\u8bad
p2072
aF0.2827945955347092
aa(lp2073
V\u8001
aF0.92635395709273671
aa(lp2074
V\u5348\u76d8
p2075
aF1.1230879705251096
aa(lp2076
V\u732a
aF0.56558919106941841
aa(lp2077
V\u505c\u5f97
p2078
aF0.47628563458477335
aa(lp2079
V\u5783\u573e\u80a1
p2080
aF0.36197708228442776
aa(lp2081
V\u5f00\u540e
p2082
aF0.20381170430611578
aa(lp2083
V\u653e\u4e00\u70ae
p2084
aF0.6463876469364781
aa(lp2085
V\u5904\u4f1a
p2086
aF0.39345335030916062
aa(lp2087
V\u5c5e\u4e8e
p2088
aF0.22916863860586068
aa(lp2089
V\u4ef7\u683c
p2090
aF0.40262710196879259
aa(lp2091
V\u66b4\u98ce\u96e8
p2092
aF1.1311783821388368
aa(lp2093
V\u6e05\u4ed3
p2094
aF0.87124818942885718
aa(lp2095
V\u641e
aF0.87124818942885718
aa(lp2096
V\u821e
aF0.38315663479954015
aa(lp2097
V\u8ddf\u98ce\u76d8
p2098
aF0.39791808935955936
aa(lp2099
V\u7b2c\u56db\u4e2a
p2100
aF0.47628563458477335
aa(lp2101
V\u6307\u6570
p2102
aF0.30437834541004122
aa(lp2103
V\u7528
aF0.44978946427444316
aa(lp2104
V\u5fae\u7ea2
p2105
aF0.59687713403933906
aa(lp2106
V\u521b\u80a1
p2107
aF0.17074390673793763
aa(lp2108
V\u540e\u4fa7
p2109
aF0.53231923865357023
aa(lp2110
V\u62c6
aF0.3770594607129456
aa(lp2111
V\u53d1\u5c04
p2112
aF0.2532206023197196
aa(lp2113
V\u53e0\u52a0
p2114
aF0.25855505877459128
aa(lp2115
V\u5e84\u5bb6
p2116
aF0.22211978828958848
aa(lp2117
V\u529b\u8dcc
p2118
aF0.69610977362389959
aa(lp2119
V\u62c9\u4e86\u4e00\u628a
p2120
aF0.53231923865357023
aa(lp2121
V\u9700\u6c42
p2122
aF0.25937910798596631
aa(lp2123
V\u627e\u70b9
p2124
aF0.50274594761726077
aa(lp2125
V\u6b63\u5728
p2126
aF1.0360356188424129
aa(lp2127
V\u7c89\u4e1d
p2128
aF0.25253916564996531
aa(lp2129
V\u7a33\u59a5
p2130
aF0.30164756857035646
aa(lp2131
V\u4e00\u634b
p2132
aF0.47628563458477335
aa(lp2133
V\u897f\u6cf5
p2134
aF0.41133759350503157
aa(lp2135
V\u5356\u91cf
p2136
aF0.90494270571106949
aa(lp2137
V\u8ddf\u968f
p2138
aF0.34821712765821833
aa(lp2139
V\u6cb8\u817e
p2140
aF0.69610977362389959
aa(lp2141
V\u5927\u4e8e
p2142
aF0.56791534060304161
aa(lp2143
V\u91cf\u4ef7
p2144
aF0.33516396507817386
aa(lp2145
V\u632b\u6298
p2146
aF0.46014035883613702
aa(lp2147
V\u6301\u80a1
p2148
aF0.47902618441180306
aa(lp2149
V\u8fd9\u4e2a
p2150
aF0.21903863693765288
aa(lp2151
V\u53d1\u5c55
p2152
aF0.88793961350692252
aa(lp2153
V\u597d\u73a9\u513f
p2154
aF0.60329513714071292
aa(lp2155
V\u54e9
aF1.2065902742814258
aa(lp2156
V\u4e8c\u79cd
p2157
aF0.6463876469364781
aa(lp2158
V\u5b9d\u6cf0\u9686
p2159
aF0.56558919106941841
aa(lp2160
V\u4f4d\u6708\u7ebf
p2161
aF0.67636264951605396
aa(lp2162
V\u8fd9\u4e3a
p2163
aF0.3770594607129456
aa(lp2164
V\u597d\u4e45\u6ca1
p2165
aF1.0445349845688434
aa(lp2166
V\u9700\u8981
p2167
aF0.26412601059888186
aa(lp2168
V\u51fa\u4e16
p2169
aF1.3927133127584579
aa(lp2170
V\u6d41\u51fa
p2171
aF0.67009618065424537
aa(lp2172
V\u51cf\u4ed3
p2173
aF0.30377229032512509
aa(lp2174
V\u7ebf\u5904
p2175
aF0.59687713403933906
aa(lp2176
V\u5c31\u662f
p2177
aF0.16433534140721606
aa(lp2178
V\u4f4d\u5230
p2179
aF0.22071773310026085
aa(lp2180
V\u6c89\u9ed8
p2181
aF0.44143546620052171
aa(lp2182
V\u8f6e\u52a8\u6027
p2183
aF0.25137297380863038
aa(lp2184
V\u5fc3\u810f
p2185
aF0.12684851621527463
aa(lp2186
V\u6307
aF0.23973292462943185
aa(lp2187
V\u5c40
aF0.82267518701006315
aa(lp2188
V\u7a33\u5f53
p2189
aF0.1885297303564728
aa(lp2190
V\u9700\u8981\u7684\u8bdd
p2191
aF0.50274594761726077
aa(lp2192
V\u9002\u5408
p2193
aF0.29194596906376341
aa(lp2194
V\u5b8c
aF0.53615273195621982
aa(lp2195
V\u5f0f
aF0.47628563458477335
aa(lp2196
V\u540e\u626c
p2197
aF1.5082378428517824
aa(lp2198
V\u5f3a\u52bf
p2199
aF0.39982095594944367
aa(lp2200
V\u6676\u6676
p2201
aF0.40762340861223156
aa(lp2202
V\u4e0b\u5df4
p2203
aF0.2445791096516404
aa(lp2204
V\u4ee5\u5b63\u7ebf
p2205
aF0.75411892142589121
aa(lp2206
V\u5b89\u5fc3
p2207
aF0.61999909538971609
aa(lp2208
V\u94c1\u5b9a
p2209
aF0.21546254897882605
aa(lp2210
V\u5438\u7b79\u4e2d
p2211
aF0.25137297380863038
aa(lp2212
V\u4f11\u606f
p2213
aF0.62162137130544781
aa(lp2214
V\u6e29\u5ea6
p2215
aF0.69610977362389959
aa(lp2216
V\u6709\u7a7a
p2217
aF0.20890699691376868
aa(lp2218
V\u56de\u8001\u5bb6
p2219
aF0.47628563458477335
aa(lp2220
V\u7fa4
aF0.26113374614221085
aa(lp2221
V\u5f31\u53cd
p2222
aF0.60329513714071292
aa(lp2223
V\u5f3a\u8005
p2224
aF0.69635665637922894
aa(lp2225
V\u6253\u5e95
p2226
aF0.33516396507817386
aa(lp2227
V\u836f\u623f
p2228
aF0.67032793015634773
aa(lp2229
V\u8bf8\u845b
p2230
aF0.18245554038073339
aa(lp2231
V\u5173\u952e
p2232
aF0.23962381159534432
aa(lp2233
V\u725b\u54e5
p2234
aF0.92847554183897185
aa(lp2235
V\u6c34\u5229
p2236
aF0.49154587509122044
aa(lp2237
V\u7a7a\u5355
p2238
aF0.99385184605532295
aa(lp2239
V\u8bc4\u8bf4
p2240
aF0.83562798765507473
aa(lp2241
V\u5fae\u535a\u7ed9
p2242
aF0.69610977362389959
aa(lp2243
V\u723d
aF1.1311783821388368
aa(lp2244
V\u4e0a\u9022
p2245
aF0.30164756857035646
aa(lp2246
V\u6d88\u606f
p2247
aF0.23165322076356848
aa(lp2248
V\u91cd\u5de5
p2249
aF0.53231923865357023
aa(lp2250
V\u541b\u5b50
p2251
aF0.22071773310026085
aa(lp2252
V\u6c34\u725b
p2253
aF0.69610977362389959
aa(lp2254
V\u4f55\u987b
p2255
aF0.45247135285553475
aa(lp2256
V\u672c\u5468\u4e00
p2257
aF0.36491108076146678
aa(lp2258
V\u9f13\u638c
p2259
aF0.99571221649012243
aa(lp2260
V\u597d\u597d\u5b66\u4e60
p2261
aF0.39345335030916062
aa(lp2262
V\u5fae\u5e45
p2263
aF0.29191700184228048
aa(lp2264
V\u4e0d\u59a8
p2265
aF0.26615961932678511
aa(lp2266
V\u8fd9\u4e9b
p2267
aF0.20823397258008902
aa(lp2268
V\u7f8e\u56fd
p2269
aF0.3614006712928447
aa(lp2270
V\u592a\u592a
p2271
aF0.44423957657917695
aa(lp2272
V\u4e24\u70b9
p2273
aF0.97888606853921056
aa(lp2274
V\u53ef\u53d7
p2275
aF1.1311783821388368
aa(lp2276
V\u8fd0\u52a8
p2277
aF0.20109837904690434
aa(lp2278
V\u592a\u5927
p2279
aF1.3927133127584579
aa(lp2280
V\u5c0f\u5e45\u5ea6
p2281
aF0.26880250325491256
aa(lp2282
V\u79c1\u52df
p2283
aF0.3606422357776039
aa(lp2284
V\u795e\u5947
p2285
aF0.52226749228442171
aa(lp2286
V\u505a\u996d
p2287
aF0.90494270571106949
aa(lp2288
V\u6b62\u635f
p2289
aF0.62080128970082371
aa(lp2290
V\u6d41\u5165
p2291
aF0.47946584925886371
aa(lp2292
V\u7cbe\u795e
p2293
aF0.6463876469364781
aa(lp2294
V\u7eff\u76d8
p2295
aF0.68522024797744752
aa(lp2296
V\u76d8\u9762
p2297
aF0.7647360766794985
aa(lp2298
V\u57ce\u5e02
p2299
aF0.48944303426960528
aa(lp2300
V\u65e9\u4e0a\u597d
p2301
aF1.3129040814645387
aa(lp2302
V\u8d8a\u77ed
p2303
aF0.23203659120796652
aa(lp2304
V\u677f\u624d
p2305
aF0.47628563458477335
aa(lp2306
V\u4e0d\u5c11
p2307
aF0.58949797269537796
aa(lp2308
V\u6d4b\u8bd5
p2309
aF0.56558919106941841
aa(lp2310
V\u7b2c\u4e09\u4f4d
p2311
aF0.6463876469364781
aa(lp2312
V\u56db\u4e2a
p2313
aF0.33818132475802698
aa(lp2314
V\u6254
aF1.1494699043986203
aa(lp2315
V\u8d85\u5356
p2316
aF0.25137297380863038
aa(lp2317
V\u9884\u4e8f
p2318
aF0.19433209015234296
aa(lp2319
V\u91d1\u4e9a
p2320
aF1.5082378428517824
aa(lp2321
V\u8d85
aF0.58689986332167554
aa(lp2322
V\u6700
aF0.32299198640491245
aa(lp2323
V\u5b9d\u5b9d
p2324
aF0.87529284055018741
aa(lp2325
V\u5e03\u5c40
p2326
aF0.35049321198543398
aa(lp2327
V\u7f8e\u9526
p2328
aF0.36288337939413196
aa(lp2329
V\uff0e
aF0.44978946427444316
aa(lp2330
V\u4e0a\u7a9c\u4e0b\u8df3
p2331
aF2.0890699691376868
aa(lp2332
V\u5154\u5b50
p2333
aF0.75966180695915886
aa(lp2334
V\u901a\u6da6\u6b23
p2335
aF0.47628563458477335
aa(lp2336
V\u629b
aF0.35572366602709238
aa(lp2337
V\u5341\u56db
p2338
aF0.33516396507817386
aa(lp2339
V\u5f00\u5e02
p2340
aF0.41133759350503157
aa(lp2341
V\u70b9\u65f6
p2342
aF0.21045179202583011
aa(lp2343
V\u4e0d\u5fc5
p2344
aF0.29138044215888342
aa(lp2345
V\u4f3c\u66fe\u76f8\u8bc6
p2346
aF0.37983090347957943
aa(lp2347
V\u5168\u9762
p2348
aF0.20016348731290903
aa(lp2349
V\u8f6c\u5165
p2350
aF0.39345335030916062
aa(lp2351
V\u9752\u7750
p2352
aF0.59687713403933906
aa(lp2353
V\u7075\u6d3b
p2354
aF0.46423777091948593
aa(lp2355
V\u4e0a\u53bb
p2356
aF0.27854266255169158
aa(lp2357
V\u5f02\u52a8
p2358
aF0.39735840640093734
aa(lp2359
V\u5c3c\u739b
p2360
aF1.1358306812060832
aa(lp2361
V\u5965\u5c3c\u5c14
p2362
aF0.6463876469364781
aa(lp2363
V\u9006\u52bf
p2364
aF0.41333273025981071
aa(lp2365
V\u96c6\u56e2
p2366
aF0.83144147303904037
aa(lp2367
V\u56de\u8d2d
p2368
aF0.88342386316028698
aa(lp2369
V\u6700\u5f3a
p2370
aF0.91567983260354657
aa(lp2371
V\u903c
aF2.4799963815588644
aa(lp2372
V\u5171\u632f
p2373
aF0.37199945723382966
aa(lp2374
V\u575a\u51b3
p2375
aF0.58947174584544637
aa(lp2376
V\u6bc1
aF0.82267518701006315
aa(lp2377
V\u65b0\u7f51
p2378
aF1.3927133127584579
aa(lp2379
V\u75af\u8d77\u6765
p2380
aF0.25137297380863038
aa(lp2381
V\u8bf7\u6765
p2382
aF0.53231923865357023
aa(lp2383
V\u950c
aF0.48191728315118909
aa(lp2384
V\u4f4e\u5438
p2385
aF0.24768817189408135
aa(lp2386
V\u63a8\u52a8
p2387
aF0.13711253116834385
aa(lp2388
V\u56de\u6d4b
p2389
aF0.69411493695552673
aa(lp2390
V\u7ea2\u7eff
p2391
aF0.57230685728281494
aa(lp2392
V\u9633\u7ebf
p2393
aF0.24704918378800955
aa(lp2394
V\u8d5a
aF1.2927244695579481
aa(lp2395
V\u4e91
aF0.23247549388410788
aa(lp2396
V\u51b2\u9ad8\u540e
p2397
aF0.29843856701966953
aa(lp2398
V\u97e9
aF0.50274594761726077
aa(lp2399
V\u5566
aF0.26502505601102239
aa(lp2400
V\u8f6e
aF0.21894664845688008
aa(lp2401
V\u6218\u8230
p2402
aF0.30878465236424557
aa(lp2403
V\u56de\u6536
p2404
aF0.45788355196395958
aa(lp2405
V\u8fc7\u65e9
p2406
aF0.39754073842212923
aa(lp2407
V\u68a6\u60f3
p2408
aF0.64279075973467292
aa(lp2409
V\u4e24\u53ea
p2410
aF0.46566882950436173
aa(lp2411
V\u7ea2\u8272
p2412
aF0.30164756857035646
aa(lp2413
V\u592a\u7a7a
p2414
aF0.88342386316028698
aa(lp2415
V\u770b\u7ea2
p2416
aF1.5082378428517824
aa(lp2417
V\u6709
aF0.26568707936331898
aa(lp2418
V\u5f80\u540e
p2419
aF0.20566879675251579
aa(lp2420
V\u5c0f
aF0.4416614327093023
aa(lp2421
V\u98de\u5f97
p2422
aF1.2927752938729562
aa(lp2423
V\u8116\u5b50
p2424
aF0.45247135285553475
aa(lp2425
V\u540e\u536b
p2426
aF0.34805488681194979
aa(lp2427
V\u4e8b\u9879
p2428
aF0.26571389802416401
aa(lp2429
V\u5b50\u975e\u9c7c
p2430
aF0.32319382346823905
aa(lp2431
V\u522b\u5fd9
p2432
aF0.2445791096516404
aa(lp2433
V\u6027\u8d28
p2434
aF0.1856951083677944
aa(lp2435
V\u9634\u973e
p2436
aF0.2742250623366877
aa(lp2437
V\u901a
aF0.3614006712928447
aa(lp2438
V\u518d\u89c1
p2439
aF0.32127818876745939
aa(lp2440
V\u52a8\u4f5c
p2441
aF0.33844648182978615
aa(lp2442
V\u6ce1\u6cab
p2443
aF0.51223172021381291
aa(lp2444
V\u5929\u6d25
p2445
aF0.26955741537260475
aa(lp2446
V\u7edd\u5bf9
p2447
aF0.24494885889846138
aa(lp2448
V\u5c31\u884c
p2449
aF0.55499891617675035
aa(lp2450
V\u4e8f\u635f
p2451
aF0.42692162281662582
aa(lp2452
V\u6709\u7968
p2453
aF0.46423777091948593
aa(lp2454
V\u806a\u660e
p2455
aF1.3251357947404305
aa(lp2456
V\u8ba1\u5212
p2457
aF0.3606422357776039
aa(lp2458
V\u5230\u6b64\u7ed3\u675f
p2459
aF0.39791808935955936
aa(lp2460
V\u5bb6
aF0.25408833287649452
aa(lp2461
V\u5145\u7535
p2462
aF1.3927133127584579
aa(lp2463
V\u56db\u6d6a
p2464
aF0.33128394868510763
aa(lp2465
V\u8d39\u65b0\u96e8
p2466
aF0.33516396507817386
aa(lp2467
V\u800c\u5b9a
p2468
aF1.2927752938729562
aa(lp2469
V\u9ad8\u53ef\u5148
p2470
aF0.83562798765507473
aa(lp2471
V\u4e00\u4ee3\u65b0\u4eba
p2472
aF0.82267518701006315
aa(lp2473
V\u97f6\u94a2
p2474
aF0.50274594761726077
aa(lp2475
V\u4ef7
aF0.5411840897384308
aa(lp2476
V\u90fd\u5173
p2477
aF0.50274594761726077
aa(lp2478
V\u7136\u70e7
p2479
aF0.90494270571106949
aa(lp2480
V\u914d\u7f6e
p2481
aF0.22584540206893913
aa(lp2482
V\u6240\u6709\u4eba
p2483
aF0.37861022706869446
aa(lp2484
V\u7784\u7740
p2485
aF0.30164756857035646
aa(lp2486
V\u552f\u4e00
p2487
aF0.28193381302822423
aa(lp2488
V\u4e0a\u5348
p2489
aF0.20490725755376313
aa(lp2490
V\u4e0d\u592a\u597d
p2491
aF0.312049208865886
aa(lp2492
V\u625b
aF0.49154587509122044
aa(lp2493
V\u4eba\u6570
p2494
aF0.83562798765507473
aa(lp2495
V\u80dc
aF0.31270096231685046
aa(lp2496
V\u4e0d\u5f3a
p2497
aF0.3334909369003991
aa(lp2498
V\u5927\u725b\u80a1
p2499
aF0.59687713403933906
aa(lp2500
V\u624d\u884c
p2501
aF0.66256789737021526
aa(lp2502
V\u6b62\u4f4f
p2503
aF0.25855505877459128
aa(lp2504
V\u65b0\u9f99\u5934
p2505
aF0.21990210201449334
aa(lp2506
V\u60c5\u610f\u7ef5\u7ef5
p2507
aF0.82267518701006315
aa(lp2508
V\u9752\u5e74
p2509
aF0.30676023922409135
aa(lp2510
V\u5355\u4f4d
p2511
aF1.2927752938729562
aa(lp2512
V\u5305\u88c5
p2513
aF0.18991545173978971
aa(lp2514
V\u671d\u6c14
p2515
aF0.15193236139183175
aa(lp2516
V\u8f83
aF0.57082267240917195
aa(lp2517
V\u4e0b\u5348
p2518
aF0.83332502690486465
aa(lp2519
V\u76c8\u4e8f\u81ea\u8d1f
p2520
aF0.60329513714071292
aa(lp2521
V\u6536\u7d27
p2522
aF0.2445791096516404
aa(lp2523
V\u6708
aF0.61142357567336414
aa(lp2524
V\u5356\u538b
p2525
aF0.46423777091948593
aa(lp2526
V\u4fdd\u7559
p2527
aF0.19433209015234296
aa(lp2528
V\u53f8\u4ee4
p2529
aF0.30164756857035646
aa(lp2530
V\u5229\u5c14
p2531
aF0.41133759350503157
aa(lp2532
V\u7b97\u4e0d\u4e0a
p2533
aF0.16517995618081349
aa(lp2534
V\u5012
aF0.21783054160116666
aa(lp2535
V\u8f89\u714c
p2536
aF0.4309250979576521
aa(lp2537
V\u9632\u8303
p2538
aF0.34261012398872376
aa(lp2539
V\u56de\u8c03
p2540
aF0.54361833641478463
aa(lp2541
V\u53cd\u653b
p2542
aF0.30878465236424557
aa(lp2543
V\u8d44\u91d1
p2544
aF0.64388165676403919
aa(lp2545
V\u6211\u53d1
p2546
aF0.33516396507817386
aa(lp2547
V\u8f74\u627f
p2548
aF0.36491108076146678
aa(lp2549
V\u6a2a\u76d8
p2550
aF0.26447942509618955
aa(lp2551
V\u4e1a\u7ee9
p2552
aF0.83692787036237715
aa(lp2553
V\u6210\u591a
p2554
aF1.1937542680786781
aa(lp2555
V\u4e4b\u4e0a
p2556
aF0.51898784339358828
aa(lp2557
V\u653e\u7f13
p2558
aF0.1710848694226258
aa(lp2559
V\u8df3\u6c34
p2560
aF0.37019463304294759
aa(lp2561
V\u62b1
aF0.53030677089940426
aa(lp2562
V\u7b2c\u4e8c\u5929
p2563
aF0.37482455356203598
aa(lp2564
V\u5965\u98de
p2565
aF0.23578869833817856
aa(lp2566
V\u5927\u6982
p2567
aF0.42572959422171125
aa(lp2568
V\u9707\u8361
p2569
aF0.31836424068591224
aa(lp2570
V\u8d85\u8dcc\u80a1
p2571
aF0.53231923865357023
aa(lp2572
V\u4e0d\u7edd
p2573
aF0.19672667515458031
aa(lp2574
V\u53bb
aF0.44244542438264234
aa(lp2575
V\u653e\u5f03
p2576
aF0.26502715894808609
aa(lp2577
V\u901a\u5b87
p2578
aF0.29473587292272319
aa(lp2579
V\u54b1\u4eec
p2580
aF1.3493683928233295
aa(lp2581
V\u4e00\u9f13\u4f5c\u6c14
p2582
aF0.34805488681194979
aa(lp2583
V\u8ba8\u8bba
p2584
aF0.30164756857035646
aa(lp2585
V\u4e24\u65e5
p2586
aF0.25107353339483651
aa(lp2587
V\u8d44
aF0.20890699691376868
aa(lp2588
V\u731b\u5e72
p2589
aF1.2927752938729562
aa(lp2590
V\u7535\u6c14
p2591
aF0.31929719566628345
aa(lp2592
V\u62dc\u62dc
p2593
aF0.8224980794940604
aa(lp2594
V\u7b2c\u4e8c\u5957
p2595
aF0.2445791096516404
aa(lp2596
V\u6563
aF0.31752375638984892
aa(lp2597
V\u884c\u52a8
p2598
aF0.32347778889898232
aa(lp2599
V\u505c\u7559
p2600
aF0.17408916409480724
aa(lp2601
V\u6b7b\u53c9\u533a
p2602
aF0.25137297380863038
aa(lp2603
V\u672a\u6da8
p2604
aF0.39345335030916062
aa(lp2605
V\u6bd4\u8f83\u590d\u6742
p2606
aF0.25137297380863038
aa(lp2607
V\u626e\u6f14\u7740
p2608
aF0.21783054160116666
aa(lp2609
V\u751f\u7269\u82af\u7247
p2610
aF0.25240681804579629
aa(lp2611
V\u4e92\u8054
p2612
aF0.26571389802416401
aa(lp2613
V\u8d8a\u957f
p2614
aF0.46407318241593304
aa(lp2615
V\u8fd0\u901a
p2616
aF0.23203659120796652
aa(lp2617
V\u4f4e\u9501
p2618
aF0.75411892142589121
aa(lp2619
V\u6e17\u4eba
p2620
aF0.33516396507817386
aa(lp2621
V\u62f1
aF0.36491108076146678
aa(lp2622
V\u76f4\u64ad
p2623
aF0.68220100619529755
aa(lp2624
V\u7a81\u7834
p2625
aF0.4665145535401366
aa(lp2626
V\u7acb\u6cd5
p2627
aF0.71442845187716009
aa(lp2628
V\u7a7a\u519b
p2629
aF2.6502715894808611
aa(lp2630
V\u522b\u53bb
p2631
aF0.15338011961204567
aa(lp2632
V\u661f\u54e5
p2633
aF0.34805488681194979
aa(lp2634
V\u8fd1\u524d
p2635
aF0.5958384603752378
aa(lp2636
V\u7cbe\u5bc6
p2637
aF0.47628563458477335
aa(lp2638
V\u7bb1\u4f53
p2639
aF0.3606422357776039
aa(lp2640
V\u52a8\u5411
p2641
aF0.21546254897882605
aa(lp2642
V\u6625\u98ce\u6765
p2643
aF0.21045179202583011
aa(lp2644
V\u8282\u8282
p2645
aF0.83562798765507473
aa(lp2646
V\u89c6\u9891
p2647
aF1.4207033816110761
aa(lp2648
V\u618b\u4e0d\u4f4f
p2649
aF0.32319382346823905
aa(lp2650
V\u53d1\u9ebb
p2651
aF1.2927752938729562
aa(lp2652
V\u524d\u5929
p2653
aF0.31929719566628345
aa(lp2654
V\u7248\u5757
p2655
aF0.75966180695915886
aa(lp2656
V\u6da8\u505c\u677f
p2657
aF0.96522175318153525
aa(lp2658
V\u8dcc\u81f3
p2659
aF0.29597987116897417
aa(lp2660
V\u57fa\u5efa
p2661
aF0.38067791554302632
aa(lp2662
V\u9752\u5c9b
p2663
aF1.0445349845688434
aa(lp2664
V\u661f\u7403
p2665
aF0.92847554183897185
aa(lp2666
V\u5be5\u5be5\u65e0\u51e0
p2667
aF0.26615961932678511
aa(lp2668
V\u53c2\u8d5b
p2669
aF0.36197708228442776
aa(lp2670
V\u62a5\u590d
p2671
aF0.25655134981643424
aa(lp2672
V\u5e93\u5b58
p2673
aF0.46443228460550323
aa(lp2674
V\u629b\u70b9
p2675
aF0.33516396507817386
aa(lp2676
V\u51e0\u4e0d\u8bef
p2677
aF0.61160113603404498
aa(lp2678
V\u9f99\u6d25
p2679
aF0.34805488681194979
aa(lp2680
V\u9634\u9633
p2681
aF0.21045179202583011
aa(lp2682
V\u4e0a\u722c
p2683
aF0.15290028400851124
aa(lp2684
V\u7ed9\u51fa
p2685
aF0.64844776996491582
aa(lp2686
V\u6293\u4f4f
p2687
aF0.79583617871911871
aa(lp2688
V\u5e02\u503c
p2689
aF0.35517584540276903
aa(lp2690
V\u80a1\u8001\u4ed9
p2691
aF0.45247135285553475
aa(lp2692
V\u8d8b\u52bf\u6027
p2693
aF0.50274594761726077
aa(lp2694
V\u96be
aF1.0089491305927836
aa(lp2695
V\u8fd8\u624b
p2696
aF0.33516396507817386
aa(lp2697
V\u4e00\u65e5\u6e38
p2698
aF0.65978796253478544
aa(lp2699
V\u6536\u5de5
p2700
aF1.0054918952345215
aa(lp2701
V\u544a\u522b\u8d5b
p2702
aF1.370440495954895
aa(lp2703
V\u627e\u5230
p2704
aF0.36197708228442776
aa(lp2705
V\u6700\u7ec8
p2706
aF0.33035991236162698
aa(lp2707
V\u54c1\u79cd
p2708
aF0.71312373877417135
aa(lp2709
V\u6df1\u5733
p2710
aF0.25369703243054925
aa(lp2711
V\u5251
aF0.61160113603404498
aa(lp2712
V\u5347\u7231\u65bd
p2713
aF0.30652530783963211
aa(lp2714
V\u56fd\u52a1\u9662
p2715
aF0.39157837603561013
aa(lp2716
V\u5348\u540e
p2717
aF0.86797937115967194
aa(lp2718
V\u8ffd\u51fb
p2719
aF0.22071773310026085
aa(lp2720
V\u8fde\u57ce
p2721
aF0.29191700184228048
aa(lp2722
V\u8fd8
aF0.14604437034861784
aa(lp2723
V\u5f00\u76d8
p2724
aF0.68998847884779801
aa(lp2725
V\u7b49\u4e00\u7b49
p2726
aF0.38315663479954015
aa(lp2727
V\u5206\u754c
p2728
aF0.29447462105342903
aa(lp2729
V\u5f3a\u70c8
p2730
aF0.24093378086189648
aa(lp2731
V\u534a\u70b9
p2732
aF0.32319382346823905
aa(lp2733
V\u65e5\u5185
p2734
aF0.41846393518118857
aa(lp2735
V\u6280\u672f\u6027
p2736
aF0.20566879675251579
aa(lp2737
V\u4e0a\u653b
p2738
aF0.87379409455672896
aa(lp2739
V\u770b\u9ad8\u5230
p2740
aF0.21045179202583011
aa(lp2741
V\u670b\u53cb
p2742
aF0.14546036482772032
aa(lp2743
V\u4e0d\u6b7b\u4e0d\u6d3b
p2744
aF0.43980420402898668
aa(lp2745
V\u4e00\u81f4
p2746
aF0.40332277347320011
aa(lp2747
V\u5927\u9762\u79ef
p2748
aF0.22489473213722158
aa(lp2749
V\u52a0
aF0.63142372516047829
aa(lp2750
V\u89e6\u53ca
p2751
aF0.27528236082714408
aa(lp2752
V\u653e\u5fc3
p2753
aF0.83562798765507473
aa(lp2754
V\u725b\u76ae
p2755
aF0.30164756857035646
aa(lp2756
V\u9192\u6765
p2757
aF0.34805488681194979
aa(lp2758
V\u4e8e\u5fc3
p2759
aF0.13034122571217352
aa(lp2760
V\u81ea\u8d38\u533a
p2761
aF0.20108078769396198
aa(lp2762
V\u558a\u591a\u540e
p2763
aF0.12855815194693457
aa(lp2764
V\u653b\u51fb
p2765
aF2.0349960259814175
aa(lp2766
V\u6bcf\u65a4
p2767
aF0.26615961932678511
aa(lp2768
V\u5410
aF2.7854266255169158
aa(lp2769
V\u672c\u5e94
p2770
aF0.2445791096516404
aa(lp2771
V\u8010\u6027
p2772
aF0.90494270571106949
aa(lp2773
V\u6b27\u80a1
p2774
aF0.1816582581858858
aa(lp2775
V\u4e2a\u4eba\u89c2\u70b9
p2776
aF0.82267518701006315
aa(lp2777
V\u5c0f\u6d77
p2778
aF0.83562798765507473
aa(lp2779
V\u66b4\u529b
p2780
aF0.38198250462540206
aa(lp2781
V\u9634\u6536\u9633
p2782
aF0.45247135285553475
aa(lp2783
V\u60b2\u4f24
p2784
aF2.2623567642776736
aa(lp2785
V\u6982\u5ff5
p2786
aF0.90771351011876866
aa(lp2787
V\u53cd\u538b\u9022
p2788
aF0.7663132695990803
aa(lp2789
V\u4f7f\u5f97
p2790
aF0.13056687307110543
aa(lp2791
V\u5730\u65b9
p2792
aF0.33190407216337414
aa(lp2793
V\u4efb\u5b50\u884c
p2794
aF1.0445349845688434
aa(lp2795
V\u654f\u611f
p2796
aF0.21286479711085562
aa(lp2797
V\u51b3\u5b9a
p2798
aF0.29334095496159335
aa(lp2799
V\u4e0d\u5f31
p2800
aF0.2445791096516404
aa(lp2801
V\u8138\u719f
p2802
aF0.19672667515458031
aa(lp2803
V\u4e2d\u8272
p2804
aF0.25137297380863038
aa(lp2805
V\u7838
aF1.173153390326577
aa(lp2806
V\u77ed\u7ebf
p2807
aF0.45472262565695676
aa(lp2808
V\u8865\u4ed3
p2809
aF0.41028252545766836
aa(lp2810
V\u675f\u7f1a
p2811
aF0.31762347482974945
aa(lp2812
V\u7784\u51c6
p2813
aF0.29759956578706376
aa(lp2814
V\u6740\u4e0d\u52a8
p2815
aF0.50274594761726077
aa(lp2816
V\u6bcf\u65e5
p2817
aF0.34560321847060183
aa(lp2818
V\u4e00\u5b63\u5ea6
p2819
aF0.51425502966796033
aa(lp2820
V\u53e3
aF0.30304284849699381
aa(lp2821
V\u63a8\u51fa
p2822
aF0.44171193158014349
aa(lp2823
V\u54b1\u8981
p2824
aF0.56558919106941841
aa(lp2825
V\u5450
aF0.92847554183897185
aa(lp2826
V\u865a\u62df
p2827
aF0.83562798765507473
aa(lp2828
V\u4e0b\u7834
p2829
aF0.17743974621785674
aa(lp2830
V\u9976\u4eba
p2831
aF0.41133759350503157
aa(lp2832
V\u6709\u5f85
p2833
aF0.53005431789617219
aa(lp2834
V\u62df
aF0.48989771779692276
aa(lp2835
V\u666e\u6da8
p2836
aF0.65645204073226937
aa(lp2837
V\u4f8b\u5982
p2838
aF0.36331651637177159
aa(lp2839
V\u7f62
aF0.47628563458477335
aa(lp2840
V\u52a1\u5fc5
p2841
aF0.47628563458477335
aa(lp2842
V\u4e0d\u5982
p2843
aF0.30652530783963211
aa(lp2844
V\u8fd9\u6b21
p2845
aF0.66256789737021526
aa(lp2846
V\u5065\u5065\u5eb7\u5eb7
p2847
aF1.0646384773071405
aa(lp2848
V\u6ca1\u8dcc
p2849
aF0.19672667515458031
aa(lp2850
V\u4f4e\u5206
p2851
aF0.33516396507817386
aa(lp2852
V\u9ad8\u4ee5
p2853
aF0.75966180695915886
aa(lp2854
V\u80a1\u91d1
p2855
aF0.41133759350503157
aa(lp2856
V\u60f3
aF0.84524292240327381
aa(lp2857
V\u53cd\u6251
p2858
aF0.46423777091948593
aa(lp2859
V\u5927\u5e45\u5ea6
p2860
aF0.2217177261437441
aa(lp2861
V\u9009\u80a1
p2862
aF1.2399981907794322
aa(lp2863
V\u751f\u54e5
p2864
aF0.18490266903354846
aa(lp2865
V\u76f4\u63a5
p2866
aF0.62719837934235545
aa(lp2867
V\u6700\u597d
p2868
aF0.24557520328037125
aa(lp2869
V\u6d17\u6e05
p2870
aF0.20109837904690434
aa(lp2871
V\u4e2d\u592e
p2872
aF0.4676949863789755
aa(lp2873
V\u5168\u7ebf
p2874
aF0.52844807133404026
aa(lp2875
V\u786c\u9053\u7406
p2876
aF0.34817832818961447
aa(lp2877
V\u5927\u4e3e
p2878
aF0.36331651637177159
aa(lp2879
V\u5206\u521a
p2880
aF0.53231923865357023
aa(lp2881
V\u6c42\u9053
p2882
aF0.32319382346823905
aa(lp2883
V\u5e73\u9759
p2884
aF0.60329513714071292
aa(lp2885
V\u4e70\u83dc
p2886
aF0.64279075973467292
aa(lp2887
V\u6d41\u5411
p2888
aF0.34568759862793841
aa(lp2889
V\u76d8\u521d
p2890
aF0.23947289674971259
aa(lp2891
V\u50cf\u6837
p2892
aF0.19672667515458031
aa(lp2893
V\u5fae\u7b11
p2894
aF1.0723054639124396
aa(lp2895
V\u9898\u6750
p2896
aF0.39883508245078336
aa(lp2897
V\u4e07\u91cc
p2898
aF0.79508147684425845
aa(lp2899
V\u65f6\u7a7a
p2900
aF1.809885411422139
aa(lp2901
V\u77ee\u5927\u7d27
p2902
aF0.36197708228442776
aa(lp2903
V\u6536\u7a84
p2904
aF1.3493683928233295
aa(lp2905
V\u624b\u5de5
p2906
aF0.82267518701006315
aa(lp2907
V\u6210\u5e95
p2908
aF0.34805488681194979
aa(lp2909
V\u5357
aF0.36197708228442776
aa(lp2910
V\u771f\u4e0d\u9519
p2911
aF0.7228013425856894
aa(lp2912
V\u76d8\u524d
p2913
aF0.52844807133404026
aa(lp2914
V\u6253\u7b97
p2915
aF0.44978946427444316
aa(lp2916
V\u597d\u4e9b
p2917
aF0.47628563458477335
aa(lp2918
V\u94f6\u4e4b\u6770
p2919
aF0.53231923865357023
aa(lp2920
V\u80a1\u6027\u6d3b
p2921
aF0.20566879675251579
aa(lp2922
V\u5939
aF0.3770594607129456
aa(lp2923
V\u543b
aF1.2927752938729562
aa(lp2924
V\u62c9\u7ea2
p2925
aF0.66256789737021526
aa(lp2926
V\u59da\u8bb0
p2927
aF0.22071773310026085
aa(lp2928
V\u5e02\u573a
p2929
aF0.197242540459831
aa(lp2930
V\u5dee\u4ef7
p2931
aF0.64103697274954352
aa(lp2932
V\u677f\u677f
p2933
aF0.55708532510338316
aa(lp2934
V\u8d77\u6765
p2935
aF0.56862238048737423
aa(lp2936
V\u4f4d\u7f6e
p2937
aF0.29885233403004696
aa(lp2938
V\u5b9e\u65bd\u7ec6\u5219
p2939
aF0.4309250979576521
aa(lp2940
V\u6311\u5934
p2941
aF0.22071773310026085
aa(lp2942
V\u5c0f\u6da8
p2943
aF0.66256789737021526
aa(lp2944
V\u4f9b\u7ed9
p2945
aF0.14566238110083618
aa(lp2946
V\u8f6c\u578b
p2947
aF0.24924620730018876
aa(lp2948
V\u770b\u6837\u5b50
p2949
aF0.20923196759059429
aa(lp2950
V\u9053
aF0.53142779604832802
aa(lp2951
V\u7cbe\u529b
p2952
aF0.33516396507817386
aa(lp2953
V\u5355
aF0.79508147684425845
aa(lp2954
V\u822a\u5929
p2955
aF1.8144168969706598
aa(lp2956
V\u98de
aF0.8514591884434225
aa(lp2957
V\u9ad8\u5347
p2958
aF0.90494270571106949
aa(lp2959
V\u65f6\u4f1a
p2960
aF0.23814281729238668
aa(lp2961
V\u7ea7\u5927\u5355
p2962
aF1.5082378428517824
aa(lp2963
V\u6551
aF0.51898784339358828
aa(lp2964
V\u6709\u5f3a
p2965
aF0.47628563458477335
aa(lp2966
V\u53ea
aF0.24775412474442968
aa(lp2967
V\u4eec
aF0.3422993946116023
aa(lp2968
V\u56fd\u8d44
p2969
aF0.90494270571106949
aa(lp2970
V\u53ef\u80fd\u6027
p2971
aF0.55828212214481843
aa(lp2972
V\u60ca\u5929
p2973
aF0.30164756857035646
aa(lp2974
V\u4e28
aF0.83562798765507473
aa(lp2975
V\u98ce\u9669\u6295\u8d44
p2976
aF1.1311783821388368
aa(lp2977
V\u5bb9\u6613
p2978
aF0.48191728315118909
aa(lp2979
V\u540e\u7eed
p2980
aF0.33425119506202988
aa(lp2981
V\u4efb\u7531
p2982
aF0.90494270571106949
aa(lp2983
V\u53ef\u770b
p2984
aF0.33516396507817386
aa(lp2985
V\u6362\u80a1
p2986
aF0.33190407216337414
aa(lp2987
V\u5f81\u5146
p2988
aF0.45247135285553475
aa(lp2989
V\u53db\u53d8
p2990
aF1.1311783821388368
aa(lp2991
V\u7ade\u4e3b\u64ad
p2992
aF0.53231923865357023
aa(lp2993
V\u60f3\u4e0d\u5230
p2994
aF0.36197708228442776
aa(lp2995
V\u6b7b\u4ea1
p2996
aF0.13115111676972022
aa(lp2997
V\u76f8\u5bf9
p2998
aF0.29767311826743642
aa(lp2999
V\u829d\u9ebb
p3000
aF0.41133759350503157
aa(lp3001
V\u8036\u8036
p3002
aF2.7854266255169158
aa(lp3003
V\u5f00\u901a
p3004
aF0.82267518701006315
aa(lp3005
V\u62c9\u5f00
p3006
aF0.17701628263128388
aa(lp3007
V\u7814\u5224
p3008
aF0.45247135285553475
aa(lp3009
V\u5e84\u80a1
p3010
aF0.15082378428517823
aa(lp3011
V\u6797\u4e1a
p3012
aF1.809885411422139
aa(lp3013
V\u5ba3\u5e03
p3014
aF0.41333273025981071
aa(lp3015
V\u5929\u671f
p3016
aF0.88342386316028698
aa(lp3017
V\u5b83\u4eec
p3018
aF0.2445791096516404
aa(lp3019
V\u60ef\u6027
p3020
aF0.44171193158014349
aa(lp3021
V\u8fde\u63a5
p3022
aF0.34805488681194979
aa(lp3023
V\u9884\u6d4b\u503c
p3024
aF0.69137519725587682
aa(lp3025
V\u975e\u5e38\u4f4e
p3026
aF0.13711253116834385
aa(lp3027
V\u57fa\u7840
p3028
aF0.79508147684425845
aa(lp3029
V\u6301\u7eed\u6027
p3030
aF0.48587926935354103
aa(lp3031
V\u4e0a\u4e14
p3032
aF0.17701628263128388
aa(lp3033
V\u4e09\u53ea
p3034
aF0.27854266255169158
aa(lp3035
V\u4ee5\u8bda\u76f8\u5f85
p3036
aF0.41133759350503157
aa(lp3037
V\u5fb7
aF1.2399981907794322
aa(lp3038
V\u624b\u6c14
p3039
aF0.3770594607129456
aa(lp3040
V\u5468\u4e00
p3041
aF0.33664207217039455
aa(lp3042
V\u5965\u62d3
p3043
aF0.56558919106941841
aa(lp3044
V\u903e
aF0.24494885889846138
aa(lp3045
V\u4f4d\u4ee5
p3046
aF0.69635665637922894
aa(lp3047
V\u7a33\u5b9a
p3048
aF0.61045322173569772
aa(lp3049
V\u667a\u6167
p3050
aF0.38784462285085775
aa(lp3051
V\u5174\u4e1a
p3052
aF1.2399981907794322
aa(lp3053
V\u56fd\u6cf0
p3054
aF0.19392231142542887
aa(lp3055
V\u7ebf\u5947\u4fa0
p3056
aF0.59519913157412752
aa(lp3057
V\u5200\u5b50
p3058
aF0.21546254897882605
aa(lp3059
V\u4e94\u53ea
p3060
aF0.3770594607129456
aa(lp3061
V\u7f3a\u9677
p3062
aF0.27368331057110007
aa(lp3063
V\u4e24\u540d
p3064
aF0.34805488681194979
aa(lp3065
V\u6709\u8272\u91d1\u5c5e
p3066
aF0.7926721070010605
aa(lp3067
V\u5466
aF0.95789158699885035
aa(lp3068
V\u67e5\u5904
p3069
aF0.39754073842212923
aa(lp3070
V\u5168\u7f51
p3071
aF0.83562798765507473
aa(lp3072
V\u5c0f\u8c03
p3073
aF1.0054918952345215
aa(lp3074
V\u6570
aF0.3770594607129456
aa(lp3075
V\u5ddd\u5927
p3076
aF0.33375667663202546
aa(lp3077
V\u52a8\u7269
p3078
aF0.25855505877459128
aa(lp3079
V\u504f\u5411
p3080
aF0.11752502671572332
aa(lp3081
V\u7a7a
aF0.5108755130660535
aa(lp3082
V\u6b21\u6570
p3083
aF0.4309250979576521
aa(lp3084
V\u91d1\u82b1
p3085
aF0.17743974621785674
aa(lp3086
V\u840e\u7f29
p3087
aF0.44850394094173024
aa(lp3088
V\u949d\u5316
p3089
aF2.0890699691376868
aa(lp3090
V\u65b0\u9896
p3091
aF0.21045179202583011
aa(lp3092
V\u51b3\u4e0d\u80fd
p3093
aF0.23203659120796652
aa(lp3094
V\u4e0a\u4e0b
p3095
aF0.30524940389721267
aa(lp3096
V\u5fc5\u8981
p3097
aF0.83562798765507473
aa(lp3098
V\u6f5c\u529b
p3099
aF0.93778862961752762
aa(lp3100
V\u65e0\u754f
p3101
aF0.47628563458477335
aa(lp3102
V\u5206\u65f6\u7ebf
p3103
aF1.370440495954895
aa(lp3104
V\u5f69\u7968
p3105
aF0.7663132695990803
aa(lp3106
V\u7236\u4eb2
p3107
aF0.39345335030916062
aa(lp3108
V\u4f60\u5bb6
p3109
aF0.26615961932678511
aa(lp3110
V\u4e70\u7eff\u5356
p3111
aF0.75411892142589121
aa(lp3112
V\u5f71\u9022
p3113
aF0.83562798765507473
aa(lp3114
V\u6bd4\u8ba8\u53e3
p3115
aF1.2927752938729562
aa(lp3116
V\u610f\u5ff5
p3117
aF0.13506607547926411
aa(lp3118
V\u4e3a\u5565
p3119
aF0.69610977362389959
aa(lp3120
V\u6628\u65e5
p3121
aF0.17176003639249679
aa(lp3122
V\u4e3b\u6218\u573a
p3123
aF0.17074390673793763
aa(lp3124
V\u7ea2
aF1.1839194846758967
aa(lp3125
V\u767d\u4e91
p3126
aF0.28956652595446059
aa(lp3127
V\u6708\u7ebf
p3128
aF1.0530474846384867
aa(lp3129
V\u9707
aF0.42572959422171125
aa(lp3130
V\u4e00\u67aa
p3131
aF0.6463876469364781
aa(lp3132
V\u5e38\u52a1\u4f1a\u8bae
p3133
aF0.24577293754561022
aa(lp3134
V\u91cd\u5927
p3135
aF0.38880362077942709
aa(lp3136
V\u4e2d
aF0.46609773198568349
aa(lp3137
V\u65b0
aF0.89791876235225132
aa(lp3138
V\u540e\u4f1a
p3139
aF0.75411892142589121
aa(lp3140
V\u77f3\u58a8
p3141
aF0.53231923865357023
aa(lp3142
V\u6b62\u76c8
p3143
aF0.29843856701966953
aa(lp3144
V\u6015
aF0.29138044215888342
aa(lp3145
V\u80a1\u901a
p3146
aF0.37616459562854793
aa(lp3147
V\u7528\u5730
p3148
aF0.70698648883677295
aa(lp3149
V\u9ad8\u4f4e
p3150
aF0.2532206023197196
aa(lp3151
V\u9ad8\u4f4d
p3152
aF0.28213408436825038
aa(lp3153
V\u8282\u64cd
p3154
aF1.2927752938729562
aa(lp3155
V\u4e09\u9ad8\u5f00
p3156
aF0.42572959422171125
aa(lp3157
V\u76d8\u5347
p3158
aF0.20109837904690434
aa(lp3159
V\u5feb\u70b9
p3160
aF1.7237003918306084
aa(lp3161
V\u4e0d\u7834
p3162
aF0.49756535686130776
aa(lp3163
V\u5907\u53d7
p3164
aF0.312049208865886
aa(lp3165
V\u6218\u6597
p3166
aF0.59687713403933906
aa(lp3167
V\u80a1\u707e
p3168
aF0.27321218877136078
aa(lp3169
V\u9ad8\u6f6e
p3170
aF0.40773409068936323
aa(lp3171
V\u597d\u8fd0
p3172
aF2.2623567642776736
aa(lp3173
V\u54e6
aF0.63134791412491331
aa(lp3174
V\u53d1\u98d9
p3175
aF2.0890699691376868
aa(lp3176
V\u680b\u8f89
p3177
aF0.44548696300686247
aa(lp3178
V\u7a0d\u540e
p3179
aF0.79508147684425845
aa(lp3180
V\u8dcc\u7834
p3181
aF0.46427078098464403
aa(lp3182
V\u591a\u4e00\u5206
p3183
aF0.19672667515458031
aa(lp3184
V\u5dee\u770b
p3185
aF0.6463876469364781
aa(lp3186
V\u5747\u7ebf
p3187
aF0.34384045060000445
aa(lp3188
V\u591a\u5934
p3189
aF0.22582204718318263
aa(lp3190
V\u5e26\u6709
p3191
aF0.56558919106941841
aa(lp3192
V\u5883\u5730
p3193
aF0.32319382346823905
aa(lp3194
V\u767d
aF0.49154587509122044
aa(lp3195
V\u53d1\u529b
p3196
aF0.47068580628737822
aa(lp3197
V\u4e8c\u5ea6
p3198
aF0.17074390673793763
aa(lp3199
V\u957f\u8fbe
p3200
aF0.4309250979576521
aa(lp3201
V\u6784\u6210
p3202
aF0.29792184694671625
aa(lp3203
V\u4e94\u70b9
p3204
aF0.3770594607129456
aa(lp3205
V\u6389
aF0.27408809919097898
aa(lp3206
V\u5356
aF0.21745826765787957
aa(lp3207
V\u5c71\u4e1c
p3208
aF0.23211888545974296
aa(lp3209
V\u8001\u516c
p3210
aF0.19615317805088214
aa(lp3211
V\u5438\u70b9
p3212
aF0.1885297303564728
aa(lp3213
V\u8c22
aF0.36331651637177159
aa(lp3214
V\u84dd\u5149
p3215
aF0.50274594761726077
aa(lp3216
V\u4e00\u6ce2\u5f3a
p3217
aF0.56558919106941841
aa(lp3218
V\u6628\u665a
p3219
aF0.88803053043635383
aa(lp3220
V\u80a1\u6027
p3221
aF0.34568759862793841
aa(lp3222
V\u6ce2\u5206
p3223
aF0.29843856701966953
aa(lp3224
V\u5316\u89e3
p3225
aF0.55213991447517941
aa(lp3226
V\u4ee5\u7231\u65bd
p3227
aF1.5082378428517824
aa(lp3228
V\u771f\u8ba9\u4eba
p3229
aF0.82267518701006315
aa(lp3230
V\u5353\u8d8a
p3231
aF0.33516396507817386
aa(lp3232
V\u73a9
aF0.37861022706869446
aa(lp3233
V\u53cd\u800c
p3234
aF0.34216973884525159
aa(lp3235
V\u7a00\u7f3a\u8d44\u6e90
p3236
aF0.22071773310026085
aa(lp3237
V\u7136\u540e
p3238
aF0.37286234001753199
aa(lp3239
V\u597d\u60f3\u4f60
p3240
aF0.4309250979576521
aa(lp3241
V\u6446\u6b63
p3242
aF0.33516396507817386
aa(lp3243
V\u4eca\u65e5
p3244
aF0.26815417986342616
aa(lp3245
V\u8001\u6881
p3246
aF0.33317968243438273
aa(lp3247
V\u591a\u559c\u7231
p3248
aF0.2362828441301543
aa(lp3249
V\u51e0\u53ea
p3250
aF0.61999909538971609
aa(lp3251
V\u4ed3\u70b9
p3252
aF1.2927752938729562
aa(lp3253
V\u771f\u80fd
p3254
aF0.33516396507817386
aa(lp3255
V\u968f\u4fbf
p3256
aF0.75411892142589121
aa(lp3257
V\u89d2\u5ea6
p3258
aF0.3483242134541274
aa(lp3259
V\u6c7d\u8f66
p3260
aF0.32716914279234088
aa(lp3261
V\u5230\u54ea\u53bb
p3262
aF0.1856951083677944
aa(lp3263
V\u62c9\u5c4e
p3264
aF1.1311783821388368
aa(lp3265
V\u5356\u76d8
p3266
aF0.59687713403933906
aa(lp3267
V\u6d6a\u8be5
p3268
aF0.39754073842212923
aa(lp3269
V\u542c\u8bdd
p3270
aF1.0445349845688434
aa(lp3271
V\u9f3b
aF1.7760610608727077
aa(lp3272
V\u524d\u9ad8\u5957
p3273
aF0.33425119506202988
aa(lp3274
V\u4ef7\u4f4d
p3275
aF0.60329513714071292
aa(lp3276
V\u7f8e\u5143
p3277
aF0.18939913634718542
aa(lp3278
V\u56f0\u96be
p3279
aF0.52226749228442171
aa(lp3280
V\u67f1
aF0.21546254897882605
aa(lp3281
V\u4e0d\u7b97
p3282
aF0.37530653871170444
aa(lp3283
V\u5bf9
aF0.33546221135536808
aa(lp3284
V\u4e0d\u5b9c
p3285
aF0.16159691173411952
aa(lp3286
V\u6ca1\u8fdb
p3287
aF0.29843856701966953
aa(lp3288
V\u5f00\u5934
p3289
aF1.0054918952345215
aa(lp3290
V\u597d\u6c49
p3291
aF1.1311783821388368
aa(lp3292
V\u8bef\u4f1a
p3293
aF1.0054918952345215
aa(lp3294
V\u98ce\u9669
p3295
aF0.55805744730501528
aa(lp3296
V\u8fd8\u6709
p3297
aF0.32531888396197362
aa(lp3298
V\u6362\u6321
p3299
aF0.22071773310026085
aa(lp3300
V\u6309
aF0.21586289284481136
aa(lp3301
V\u8d44\u91d1\u9762
p3302
aF0.34128829998153459
aa(lp3303
V\u6ce2\u52a8
p3304
aF0.21017605663919459
aa(lp3305
V\u529e\u6cd5
p3306
aF0.21286479711085562
aa(lp3307
V\u9884\u8a00
p3308
aF0.90494270571106949
aa(lp3309
V\u670d\u52a1\u751f
p3310
aF0.39345335030916062
aa(lp3311
V\u6e29\u99a8
p3312
aF0.1856951083677944
aa(lp3313
V\u4e3b\u573a
p3314
aF0.41846393518118857
aa(lp3315
V\u653b\u5360
p3316
aF0.19672667515458031
aa(lp3317
V\u4e0b\u53bb
p3318
aF0.64844776996491582
aa(lp3319
V\u6709\u5907\u65e0\u60a3
p3320
aF0.21286479711085562
aa(lp3321
V\u8c03\u4ed3
p3322
aF0.53231923865357023
aa(lp3323
V\u8f93\u8d62
p3324
aF1.0054918952345215
aa(lp3325
V\u6269\u6563
p3326
aF0.88342386316028698
aa(lp3327
V\u849c
aF0.26615961932678511
aa(lp3328
V\u51b2\u4e0a
p3329
aF0.4309250979576521
aa(lp3330
V\u70ed\u8840
p3331
aF0.75411892142589121
aa(lp3332
V\uff21
aF0.2827945955347092
aa(lp3333
V\u51e0\u70b9
p3334
aF0.16159691173411952
aa(lp3335
V\u54c8\u54c8\u54c8\u54c8
p3336
aF1.6867104910291619
aa(lp3337
V\u6e38\u620f
p3338
aF1.6411301018306734
aa(lp3339
V\u5427
aF0.87719759259972541
aa(lp3340
V\u52a8
aF0.63413768560084849
aa(lp3341
V\u5b9a\u578b
p3342
aF0.90494270571106949
aa(lp3343
V\u8d2d
aF0.32989398126739272
aa(lp3344
V\u6781\u7aef
p3345
aF0.34817832818961447
aa(lp3346
V\u5bf9\u8c61
p3347
aF0.6385943913325669
aa(lp3348
V\u9876\u80cc\u79bb
p3349
aF0.53231923865357023
aa(lp3350
V\u4e4f\u529b
p3351
aF0.2839576703015208
aa(lp3352
V\u591a\u7a7a
p3353
aF0.30618723584736163
aa(lp3354
V\u90a3\u53e5\u8bdd
p3355
aF0.33425119506202988
aa(lp3356
V\u4e0b\u9ad8
p3357
aF0.34805488681194979
aa(lp3358
V\u6309\u7167
p3359
aF0.62768383348709134
aa(lp3360
V\u8054\u793e
p3361
aF1.6712559753101495
aa(lp3362
V\u4ee5\u524d
p3363
aF0.26502715894808609
aa(lp3364
V\u6301\u6709
p3365
aF0.38454203700338985
aa(lp3366
V\u63a7\u5236\u4e0d\u4e86
p3367
aF0.312049208865886
aa(lp3368
V\u5751
aF1.1311783821388368
aa(lp3369
V\u5148\u770b
p3370
aF0.64279075973467292
aa(lp3371
V\u590d\u5236
p3372
aF0.34805488681194979
aa(lp3373
V\u9570\u5200
p3374
aF0.69610977362389959
aa(lp3375
V\u65e7\u6b22
p3376
aF0.47628563458477335
aa(lp3377
V\u53cc\u7ebf
p3378
aF0.26615961932678511
aa(lp3379
V\u5b8c\u597d
p3380
aF0.61999909538971609
aa(lp3381
V\u8be6\u7ec6
p3382
aF0.75966180695915886
aa(lp3383
V\u5410\u5410
p3384
aF3.0164756857035648
aa(lp3385
V\u8fd0
aF0.25855505877459128
aa(lp3386
V\u80a1\u8001\u9f99
p3387
aF0.45247135285553475
aa(lp3388
V\u62c9\u56de\u6765
p3389
aF0.75411892142589121
aa(lp3390
V\u80a1\u963f\u5cf0
p3391
aF0.45247135285553475
aa(lp3392
V\u4e1c\u65b9
p3393
aF0.59139328411815439
aa(lp3394
V\u4e09\u7231\u5bcc
p3395
aF0.6463876469364781
aa(lp3396
V\u52c7\u8005\u80dc
p3397
aF1.1311783821388368
aa(lp3398
V\u4f9d\u636e
p3399
aF0.88342386316028698
aa(lp3400
V\u54fc
aF1.3932968538165096
aa(lp3401
V\u4e0a\u9762
p3402
aF0.74399891446765931
aa(lp3403
V\u4e0d\u5230
p3404
aF0.55429431535936025
aa(lp3405
V\u5413\u6b7b
p3406
aF0.22071773310026085
aa(lp3407
V\u7f51\u65b0
p3408
aF1.1244736606861079
aa(lp3409
V\u5e76\u80a9\u4f5c\u6218
p3410
aF0.6463876469364781
aa(lp3411
V\u8c03\u4f4e
p3412
aF0.14207033816110762
aa(lp3413
V\u817e\u90a6
p3414
aF0.22489473213722158
aa(lp3415
V\u624b\u4e2d
p3416
aF0.37199945723382966
aa(lp3417
V\u6253\u7834
p3418
aF0.24719782890292913
aa(lp3419
V\u9690\u60a3
p3420
aF0.25857367848205565
aa(lp3421
V\u5b89\u5168\u7cfb\u6570
p3422
aF0.19254100121512116
aa(lp3423
V\u5916\u76d8
p3424
aF0.69699855154308576
aa(lp3425
V\u9505
aF0.82267518701006315
aa(lp3426
V\u624b\u6e38
p3427
aF1.1358306812060832
aa(lp3428
V\u4f1a\u62c9
p3429
aF0.82267518701006315
aa(lp3430
V\u7a7a\u95f2
p3431
aF0.41133759350503157
aa(lp3432
V\u5927\u6da8
p3433
aF0.15696903218013886
aa(lp3434
V\u94b1
aF1.5083222888224552
aa(lp3435
V\u957f\u4e9b
p3436
aF0.21045179202583011
aa(lp3437
V\u72ed\u8def\u76f8\u9022
p3438
aF1.1311783821388368
aa(lp3439
V\u4eb2\u4eb2
p3440
aF3.8783258816188688
aa(lp3441
V\u7ea0\u7ed3
p3442
aF0.57535901911063647
aa(lp3443
V\u5927\u8001\u7237
p3444
aF0.90494270571106949
aa(lp3445
V\u884c\u4e3a
p3446
aF0.6463876469364781
aa(lp3447
V\u6ca1\u4e8b
p3448
aF0.7228013425856894
aa(lp3449
V\u7d2b\u96e8
p3450
aF0.49154587509122044
aa(lp3451
V\u6536\u590d
p3452
aF0.28623732339297203
aa(lp3453
V\u9884\u8ba1
p3454
aF0.40488208286330246
aa(lp3455
V\u8d5e\u5192\u4e2a
p3456
aF0.34805488681194979
aa(lp3457
V\u811a\u6b65\u58f0
p3458
aF0.82267518701006315
aa(lp3459
V\u5916\u56f4
p3460
aF0.2705920448692154
aa(lp3461
V\u62bd\u5956
p3462
aF0.34805488681194979
aa(lp3463
V\u8bfb\u8005
p3464
aF1.9157831739977007
aa(lp3465
V\u5141\u8bb8
p3466
aF0.46423777091948593
aa(lp3467
V\u5c3d\u91cf\u5c11
p3468
aF0.69610977362389959
aa(lp3469
V\u641e\u4e0d\u597d
p3470
aF1.5082378428517824
aa(lp3471
V\u4ebf\u5143
p3472
aF0.24668629057399677
aa(lp3473
V\u540e\u9022
p3474
aF0.75411892142589121
aa(lp3475
V\u5b9a\u5f0f
p3476
aF0.69610977362389959
aa(lp3477
V\u8db3\u591f
p3478
aF1.014788129722197
aa(lp3479
V\u9ad8\u6536\u957f
p3480
aF0.83562798765507473
aa(lp3481
V\u7528\u529b
p3482
aF0.90494270571106949
aa(lp3483
V\u8f6c\u540e
p3484
aF0.52226749228442171
aa(lp3485
V\u66b4\u5229
p3486
aF0.56558919106941841
aa(lp3487
V\u653b\u52bf
p3488
aF0.27854266255169158
aa(lp3489
V\u6ee1\u5730
p3490
aF0.50274594761726077
aa(lp3491
V\u534a\u540e
p3492
aF0.15499977384742902
aa(lp3493
V\u6ce2\u62c9
p3494
aF0.55759884123446857
aa(lp3495
V\u8f6c\u5411
p3496
aF0.76135583108605265
aa(lp3497
V\u652f\u6491\u4f4f
p3498
aF0.37861022706869446
aa(lp3499
V\u4e2a\u5ea6
p3500
aF0.2742250623366877
aa(lp3501
V\u559d\u591a
p3502
aF0.60329513714071292
aa(lp3503
V\u822a\u7a7a\u822a\u5929
p3504
aF1.0054918952345215
aa(lp3505
V\u5475\u5475
p3506
aF1.6628829460780807
aa(lp3507
V\u5206\u51fa
p3508
aF0.49154587509122044
aa(lp3509
V\u9648\u5fb7
p3510
aF0.45247135285553475
aa(lp3511
V\u8d5a\u94b1
p3512
aF0.19146165670238272
aa(lp3513
V\u4e0d\u820d
p3514
aF0.41133759350503157
aa(lp3515
V\u98de\u9a6c
p3516
aF0.20381170430611578
aa(lp3517
V\u5317\u65b9
p3518
aF0.33516396507817386
aa(lp3519
V\u5e76
aF0.28653370883333701
aa(lp3520
V\u4eb2\u4eec
p3521
aF0.4309250979576521
aa(lp3522
V\u597d\u80a1
p3523
aF0.39791808935955936
aa(lp3524
V\u56fe\u7247
p3525
aF0.52306986123924271
aa(lp3526
V\u5fc3\u7406
p3527
aF0.38315663479954015
aa(lp3528
V\u56de\u8865
p3529
aF0.66721162437636339
aa(lp3530
V\u8fd9\u6837
p3531
aF0.27238743819494682
aa(lp3532
V\u629b\u538b\u76d8
p3533
aF0.56558919106941841
aa(lp3534
V\u6469\u767b
p3535
aF0.47628563458477335
aa(lp3536
V\u5357\u4eac
p3537
aF0.53231923865357023
aa(lp3538
V\u6c5f\u5357style
p3539
aF1.2927752938729562
aa(lp3540
V\u522b
aF0.67477576078899315
aa(lp3541
V\u70ed\u800c
p3542
aF0.56558919106941841
aa(lp3543
V\u6fc0\u70c8
p3544
aF0.33516396507817386
aa(lp3545
V\u5927\u8d3c
p3546
aF0.23733775428186815
aa(lp3547
V\u4e3b\u677f
p3548
aF0.2791845577155484
aa(lp3549
V\u52a0\u606f
p3550
aF0.1500153729894827
aa(lp3551
V\u8fd9\u4e48\u4e45
p3552
aF0.64279075973467292
aa(lp3553
V\u91d1\u80a1
p3554
aF0.22584540206893913
aa(lp3555
V\u9886\u5934
p3556
aF0.55708532510338316
aa(lp3557
V\u5e73\u76d8
p3558
aF0.69610977362389959
aa(lp3559
V\u521b\u6307
p3560
aF0.61305061567926422
aa(lp3561
V\u5dee\u8ddd
p3562
aF1.014788129722197
aa(lp3563
V\u6d17
aF0.33826270990739904
aa(lp3564
V\u7a33
aF0.69664842690825479
aa(lp3565
V\u53d8\u6210
p3566
aF0.28615342864140747
aa(lp3567
V\u7f3a\u94b1
p3568
aF0.4309250979576521
aa(lp3569
V\u770b\u80fd
p3570
aF0.7663132695990803
aa(lp3571
V\u8ffd\u6da8\u6740\u8dcc
p3572
aF0.2839576703015208
aa(lp3573
V\u4e71
aF0.36491108076146678
aa(lp3574
V\u8bf4\u597d
p3575
aF0.41846393518118857
aa(lp3576
V\u8fd8\u662f
p3577
aF0.41404634199692059
aa(lp3578
V\u5145\u5206
p3579
aF0.5073940648610985
aa(lp3580
V\u5229
aF0.33516396507817386
aa(lp3581
V\u6d88\u5931
p3582
aF0.19672667515458031
aa(lp3583
V\u5149\u7535
p3584
aF0.312049208865886
aa(lp3585
V\u5077\u7b11
p3586
aF0.56511033755040707
aa(lp3587
V\u5148
aF0.7283119055041809
aa(lp3588
V\u9886\u6da8
p3589
aF0.83876760382324966
aa(lp3590
V\u8001\u9f99\u5934
p3591
aF0.25855505877459128
aa(lp3592
V\u8981\u95fb
p3593
aF0.60329513714071292
aa(lp3594
V\u9ec4\u91d1
p3595
aF1.0441571321243197
aa(lp3596
V\u89e3\u5957
p3597
aF0.16619039005880237
aa(lp3598
V\u513f
aF1.2927752938729562
aa(lp3599
V\u9886\u8dd1
p3600
aF0.35403256526256777
aa(lp3601
V\u968f\u673a\u6027
p3602
aF0.47628563458477335
aa(lp3603
V\u503c
aF0.39345335030916062
aa(lp3604
V\u5927\u8d70
p3605
aF0.37983090347957943
aa(lp3606
V\u522b\u770b
p3607
aF0.56558919106941841
aa(lp3608
V\u65b0\u9ad8
p3609
aF0.40918449002234869
aa(lp3610
V\u8fea\u65af\u5c3c
p3611
aF1.0054918952345215
aa(lp3612
V\u4f9d\u6258
p3613
aF0.19423246944523101
aa(lp3614
V\u90e8\u961f
p3615
aF0.29191700184228048
aa(lp3616
V\u4e24\u96be
p3617
aF0.26615961932678511
aa(lp3618
V\u6ca1\u4e70
p3619
aF0.45247135285553475
aa(lp3620
V\u8036\u8036\u8036
p3621
aF1.809885411422139
aa(lp3622
V\u8d44\u91d1\u6d41
p3623
aF0.33425119506202988
aa(lp3624
V\u4ed6
aF0.44548696300686247
aa(lp3625
V\u9ed1\u66fc\u5df4
p3626
aF0.53231923865357023
aa(lp3627
V\u7531\u6b64\u53ef\u89c1
p3628
aF0.20109837904690434
aa(lp3629
V\u9886\u8dcc
p3630
aF0.20108078769396198
aa(lp3631
V\u65b9\u5f0f
p3632
aF0.49440992222422447
aa(lp3633
V\u4e00\u65e5
p3634
aF0.4152849987742106
aa(lp3635
V\u6d3e\u53d1
p3636
aF0.26615961932678511
aa(lp3637
V\u8def\u53e3
p3638
aF0.2445791096516404
aa(lp3639
V\u6cb9\u6c14
p3640
aF0.66256789737021526
aa(lp3641
V\u5bc6\u7801
p3642
aF0.72395416456885553
aa(lp3643
V\u81f4
aF0.43980420402898668
aa(lp3644
V\u8f6c\u94b1
p3645
aF0.52226749228442171
aa(lp3646
V\u7b26\u5408
p3647
aF0.32629535617973687
aa(lp3648
V\u804c\u4e1a
p3649
aF0.30949184727965728
aa(lp3650
V\u9ec4\u6cb3
p3651
aF0.33128394868510763
aa(lp3652
V\u3000
aF0.29473587292272319
aa(lp3653
V\u9f50\u79f0
p3654
aF0.29191700184228048
aa(lp3655
V\u8ddf\u8fdb
p3656
aF0.15717126636395323
aa(lp3657
V\U0001f604
aF1.2340127805150947
aa(lp3658
V\u5c31\u4f1a\u751f
p3659
aF0.22623567642776737
aa(lp3660
V\u5927\u52bf
p3661
aF0.33190407216337414
aa(lp3662
V\u80a1\u6da8
p3663
aF0.30164756857035646
aa(lp3664
V\u88c5\u5907
p3665
aF0.61160113603404498
aa(lp3666
V\u7761\u5348\u89c9
p3667
aF0.32319382346823905
aa(lp3668
V\u5343\u4e07
p3669
aF0.14835126323132286
aa(lp3670
V\u8fde\u7eed\u6027
p3671
aF0.11605944272987148
aa(lp3672
V\u8d85\u795e
p3673
aF1.809885411422139
aa(lp3674
V\u592a\u60e8
p3675
aF0.21881734691075647
aa(lp3676
V\u592a\u591a\u4eba
p3677
aF0.56558919106941841
aa(lp3678
V\u540e\u52bf
p3679
aF0.2742250623366877
aa(lp3680
V\u76d8\u70b9
p3681
aF0.75966180695915886
aa(lp3682
V\u663e\u5f97
p3683
aF0.41133759350503157
aa(lp3684
V\u5b57\u53f7
p3685
aF0.41133759350503157
aa(lp3686
V\u6743\u5229
p3687
aF0.41781399382753737
aa(lp3688
V\u7cfb\u5217
p3689
aF0.75411892142589121
aa(lp3690
V\u9898\u76ee
p3691
aF0.34805488681194979
aa(lp3692
V\u94a2\u534f
p3693
aF0.25137297380863038
aa(lp3694
V\u901a\u4fe1
p3695
aF2.4799963815588644
aa(lp3696
V\u62d6\u7d2f
p3697
aF0.64577426436867091
aa(lp3698
V\u56fd\u5185
p3699
aF0.72576675878826391
aa(lp3700
V\u94ed\u8bb0
p3701
aF0.13034122571217352
aa(lp3702
V\u677f\u5b88
p3703
aF0.34805488681194979
aa(lp3704
V\u5206\u4eab
p3705
aF1.9571244089209161
aa(lp3706
V\u6536\u4e2a
p3707
aF0.32347778889898232
aa(lp3708
V\u4ebf
aF1.352960224346077
aa(lp3709
V\u6d3e
aF0.71035169080553806
aa(lp3710
V\u4e00\u534a
p3711
aF0.23999964982827718
aa(lp3712
V\u6ce1
aF0.79508147684425845
aa(lp3713
V\u5404\u4f4d
p3714
aF0.19005188631314501
aa(lp3715
V\u4e2d\u5b89\u6d88
p3716
aF0.35117746392980509
aa(lp3717
V\u4e0d\u65ad
p3718
aF0.21937027622001798
aa(lp3719
V\u78b0
aF0.20566879675251579
aa(lp3720
V\u8282\u594f
p3721
aF0.20971058269361498
aa(lp3722
V\u8865\u52a0
p3723
aF0.60329513714071292
aa(lp3724
V\u6574\u4f53
p3725
aF0.31181150291026716
aa(lp3726
V\u4f59\u989d
p3727
aF0.64577426436867091
aa(lp3728
V\u51fa\u573a
p3729
aF1.2927752938729562
aa(lp3730
V\u5dde\u9645
p3731
aF0.69635665637922894
aa(lp3732
V\u652f\u6491
p3733
aF0.68344452778875431
aa(lp3734
V\u770b\u5206
p3735
aF0.29191700184228048
aa(lp3736
V\u5dee\u522b
p3737
aF0.23814281729238668
aa(lp3738
V\u5fc3\u5e73\u6c14\u548c
p3739
aF0.29597987116897417
aa(lp3740
V\u4e34\u65f6
p3741
aF0.16226152588658332
aa(lp3742
V\u4e00\u6765
p3743
aF0.30164756857035646
aa(lp3744
V\u901a\u8fbe
p3745
aF0.56558919106941841
aa(lp3746
V\u5173\u6ce8
p3747
aF0.94694567700468824
aa(lp3748
V\u5947\u6b63
p3749
aF0.2445791096516404
aa(lp3750
V\u5e03\u83b1\u6069\u7279
p3751
aF0.99385184605532295
aa(lp3752
V\u5de5\u7a0b\u673a\u68b0
p3753
aF0.22623567642776737
aa(lp3754
V\u76d8\u53e3
p3755
aF0.30776373777034555
aa(lp3756
V\u6478
aF0.47628563458477335
aa(lp3757
V\u6df1\u6851\u8fbe
p3758
aF2.7854266255169158
aa(lp3759
V\u52c7\u58eb
p3760
aF0.43985864168985694
aa(lp3761
V\u5bf9\u6bd4
p3762
aF0.22103878967014434
aa(lp3763
V\u5403
aF0.27714715767968012
aa(lp3764
V\u9762\u5927
p3765
aF0.34805488681194979
aa(lp3766
V\u7684
aF0.14338148025790012
aa(lp3767
V\u6bcf\u5929
p3768
aF1.0360356188424129
aa(lp3769
V\u534a\u5c0f\u65f6
p3770
aF0.31259620987250919
aa(lp3771
V\u5149\u97f5
p3772
aF0.75411892142589121
aa(lp3773
V\u4e00\u9635\u5b50
p3774
aF0.34805488681194979
aa(lp3775
V\u6643
aF0.54736662114220014
aa(lp3776
V\u4e30\u4e1c
p3777
aF0.37861022706869446
aa(lp3778
V\u51b7\u95e8
p3779
aF0.18307184112494976
aa(lp3780
V\u8001\u4ed9
p3781
aF0.33317968243438273
aa(lp3782
V\u535a\u654f
p3783
aF0.41846393518118857
aa(lp3784
V\u4e0d\u5927\u65e5\u7ebf
p3785
aF0.2742250623366877
aa(lp3786
V\u9519
aF0.7336826858348271
aa(lp3787
V\u6fc0\u8fdb
p3788
aF0.70459742844538709
aa(lp3789
V\u6d41\u52a8\u8d44\u91d1
p3790
aF0.21045179202583011
aa(lp3791
V\u786e
aF0.25137297380863038
aa(lp3792
V\u5927\u5229
p3793
aF0.47628563458477335
aa(lp3794
V\u6210\u672c\u4ef7
p3795
aF1.1937542680786781
aa(lp3796
V
aF1.1769071877882962
aa(lp3797
V\u6284\u5e95
p3798
aF0.52709249844419037
aa(lp3799
V\u4f20\u627f
p3800
aF0.82267518701006315
aa(lp3801
V\u4ecb\u5165
p3802
aF0.35732640918346814
aa(lp3803
V\u76d8\u4e2d
p3804
aF0.33833163932045252
aa(lp3805
V\u6447\u6447\u6b32\u5760
p3806
aF1.1311783821388368
aa(lp3807
V\u60e0\u7a0b
p3808
aF0.88342386316028698
aa(lp3809
V\u8ffd\u661f
p3810
aF0.50274594761726077
aa(lp3811
V\u8d5a\u5927
p3812
aF0.31146374908065794
aa(lp3813
V\u81f3
aF0.23833538415009511
aa(lp3814
V\u53cd\u5e94
p3815
aF1.0368096554118056
aa(lp3816
V\u7406\u89e3
p3817
aF0.40332277347320011
aa(lp3818
V\u6837\u5b50
p3819
aF1.0947332422844003
aa(lp3820
V\u8d5a\u5934
p3821
aF0.25855505877459128
aa(lp3822
V\u64b8
aF1.0054918952345215
aa(lp3823
V\u4f2f\u9675
p3824
aF0.21546254897882605
aa(lp3825
V\u624b
aF0.56791534060304161
aa(lp3826
V\u6da8\u5e45
p3827
aF1.4950262885476191
aa(lp3828
V\u5ef6\u7eed
p3829
aF0.40357965223711351
aa(lp3830
V\u7559\u8a00
p3831
aF0.75411892142589121
aa(lp3832
V\u5bf9\u6b64
p3833
aF0.46423777091948593
aa(lp3834
V\u7b2c\u4e09\u4e2a
p3835
aF0.49692592302766148
aa(lp3836
V\u8bf4\u660e
p3837
aF0.36627193304141864
aa(lp3838
V\u6b22
aF0.56558919106941841
aa(lp3839
V\u98ce\u683c
p3840
aF0.63363504685735073
aa(lp3841
V\U0001f44f
aF5.5708532510338316
aa(lp3842
V\u77ed\u6253
p3843
aF0.22071773310026085
aa(lp3844
V\u4e4b\u95f4
p3845
aF0.69069041256160857
aa(lp3846
V\u80a5\u8089
p3847
aF0.17074390673793763
aa(lp3848
V\u8fd1\u51e0\u65e5
p3849
aF0.21990210201449334
aa(lp3850
V\u600e\u4e48
p3851
aF0.39243421397294853
aa(lp3852
V\u62c9\u4e00\u81f3
p3853
aF0.47628563458477335
aa(lp3854
V\u6570\u94b1
p3855
aF0.3770594607129456
aa(lp3856
V\u6765
aF0.45835189384561104
aa(lp3857
V\u540e\u524d
p3858
aF0.34805488681194979
aa(lp3859
V\u4f4e\u4e8e
p3860
aF0.15183651315666516
aa(lp3861
V\u9ad8\u6500\u4e0d\u8d77
p3862
aF0.30164756857035646
aa(lp3863
V\u5927\u725b
p3864
aF0.45247135285553475
aa(lp3865
V\u906d\u53d7
p3866
aF0.90494270571106949
aa(lp3867
V\u8e0f\u5b9e
p3868
aF0.56223683034305394
aa(lp3869
V\u6682\u65f6
p3870
aF0.66698187380079821
aa(lp3871
V\u79d2
aF0.82267518701006315
aa(lp3872
V\u5370\u5ea6
p3873
aF0.60329513714071292
aa(lp3874
V\u8e29\u4e0b\u6765
p3875
aF0.53231923865357023
aa(lp3876
V\u8fd8\u597d
p3877
aF1.3927133127584579
aa(lp3878
V\u4e2d\u7ebf
p3879
aF0.65710364902017149
aa(lp3880
V\u6e7f
aF1.5082378428517824
aa(lp3881
V\u8c01
aF0.29505590723622382
aa(lp3882
V\u975e\u5e38\u660e\u663e
p3883
aF0.14811566505882937
aa(lp3884
V\u559c\u65b0\u538c\u65e7
p3885
aF0.75411892142589121
aa(lp3886
V\u6625\u5929
p3887
aF0.90494270571106949
aa(lp3888
V\u5e2d\u4f4d
p3889
aF0.77732836060937183
aa(lp3890
V\u56f4\u7ed5
p3891
aF0.32347778889898232
aa(lp3892
V\u7535\u7ade
p3893
aF0.38784462285085775
aa(lp3894
V\u4e2d\u957f\u7ebf
p3895
aF0.19004376526606637
aa(lp3896
V\u8e0f\u7a7a
p3897
aF0.29838729124194063
aa(lp3898
V\u627f\u53d7\u80fd\u529b
p3899
aF1.0947332422844003
aa(lp3900
V\u5c0f\u65f6
p3901
aF0.47946584925886371
aa(lp3902
V\u6210\u672c\u4f4e
p3903
aF0.15474592363982864
aa(lp3904
V\u561a
aF0.45247135285553475
aa(lp3905
V\u53cd\u5f39
p3906
aF0.20769163865733006
aa(lp3907
V\u65f6\u597d
p3908
aF0.34805488681194979
aa(lp3909
V\u52a0\u5267
p3910
aF0.30652530783963211
aa(lp3911
V\u80a1
aF1.2674676616500691
aa(lp3912
V\u7eff\u76d8\u91cf
p3913
aF0.32319382346823905
aa(lp3914
V\u5404\u4e2a
p3915
aF0.90494270571106949
aa(lp3916
V\u9888\u7ebf
p3917
aF0.13307980966339256
aa(lp3918
V\u5904\u5728
p3919
aF0.47628563458477335
aa(lp3920
V\u589e\u957f
p3921
aF0.48261087659076762
aa(lp3922
V\u8d28
aF0.56558919106941841
aa(lp3923
V\u6562\u4e8e
p3924
aF0.33818132475802698
aa(lp3925
V\u4e2a
aF0.42128125545388939
aa(lp3926
V\u4f5c\u4e3a
p3927
aF0.71226330305504826
aa(lp3928
V\u4e4b\u540e
p3929
aF0.2700121755483299
aa(lp3930
V\u7b2c\u4e00\u5b63\u5ea6
p3931
aF0.88342386316028698
aa(lp3932
V\u8fc7\u5ea6
p3933
aF0.28615342864140747
aa(lp3934
V\u7535\u5668
p3935
aF0.32174058439384506
aa(lp3936
V\u8fde\u8d2f
p3937
aF0.16517995618081349
aa(lp3938
V\u54c6\u55e6
p3939
aF0.60329513714071292
aa(lp3940
V\u52a0\u7ed9
p3941
aF0.56558919106941841
aa(lp3942
V\u5927\u738b
p3943
aF0.30164756857035646
aa(lp3944
V\u767d\u7ebf
p3945
aF0.24494885889846138
aa(lp3946
V\u4fbf
aF0.17743974621785674
aa(lp3947
V\u63d0\u9632
p3948
aF0.24577293754561022
aa(lp3949
V\u628a
aF0.17550791410641442
aa(lp3950
V\u4ec1\u5144
p3951
aF0.75411892142589121
aa(lp3952
V\u725b\u6c14
p3953
aF0.19649058194848212
aa(lp3954
V\u5dee\u4e0d\u591a
p3955
aF0.69069041256160857
aa(lp3956
V\u4e09\u5341\u5206
p3957
aF0.23875085361573564
aa(lp3958
V\u67cf
aF0.56558919106941841
aa(lp3959
V\u7684\u8bdd
p3960
aF0.19178603818631459
aa(lp3961
V\u64a4\u79bb
p3962
aF1.2399981907794322
aa(lp3963
V\u5ff5\u7ecf
p3964
aF0.90494270571106949
aa(lp3965
V\u670d\u52a1\u5e73\u53f0
p3966
aF0.21045179202583011
aa(lp3967
V\u5565
aF0.29474898634768898
aa(lp3968
V\u4ea4\u6613\u65e5
p3969
aF0.52648459264447378
aa(lp3970
V\u4e2a\u80a1
p3971
aF0.38344501090136879
aa(lp3972
V\u5c5e
aF0.32139537986733646
aa(lp3973
V\u8d44\u8baf
p3974
aF0.75411892142589121
aa(lp3975
V\u5176\u5b83
p3976
aF1.2399981907794322
aa(lp3977
V\u603b\u5f97
p3978
aF0.69610977362389959
aa(lp3979
V\u6628\u591c
p3980
aF0.37983090347957943
aa(lp3981
V\u8001\u5b50
p3982
aF0.36197708228442776
aa(lp3983
V\u8fdb\u53bb
p3984
aF0.77702671413180968
aa(lp3985
V\u51b2\u51fb
p3986
aF0.2087783970518792
aa(lp3987
V\u4e8c
aF0.21894664845688008
aa(lp3988
V\u591a\u4e00\u4e9b
p3989
aF0.16453503740201261
aa(lp3990
V\u8d21\u9152
p3991
aF0.67032793015634773
aa(lp3992
V\u524d\u63d0
p3993
aF0.6463876469364781
aa(lp3994
V\u76d6\u9876
p3995
aF0.28814758195002577
aa(lp3996
V\u4e4c\u4e91
p3997
aF0.28814758195002577
aa(lp3998
V\u4e2d\u53d1
p3999
aF0.24892805412253061
aa(lp4000
V\u8336\u7f38
p4001
aF1.1311783821388368
aa(lp4002
V\u4e00\u7b79
p4003
aF0.18468218483899376
aa(lp4004
V\u6d1b\u6749\u77f6
p4005
aF0.47628563458477335
aa(lp4006
V\u5b81\u613f
p4007
aF0.30164756857035646
aa(lp4008
V\u9001
aF0.63065265917608915
aa(lp4009
V\u706b\u7206
p4010
aF0.24944119034479842
aa(lp4011
V\u5927\u591a
p4012
aF0.20109837904690434
aa(lp4013
V\u75af\u72c2
p4014
aF1.3493683928233295
aa(lp4015
V\u6295\u8be5
p4016
aF0.50274594761726077
aa(lp4017
V\u5cad\u5357
p4018
aF1.2096112646471064
aa(lp4019
V\u91cd\u65b0
p4020
aF0.66204273375026412
aa(lp4021
V\u53ef\u52a0\u4ed3
p4022
aF1.0054918952345215
aa(lp4023
V\u4e00\u5b9a
p4024
aF0.35513497237178382
aa(lp4025
V\u6709\u6240
p4026
aF0.42242377437011025
aa(lp4027
V\u8bc4\u80a1
p4028
aF0.47628563458477335
aa(lp4029
V\u770b\u7eff
p4030
aF1.5082378428517824
aa(lp4031
V\u65f6\u6025
p4032
aF0.29597987116897417
aa(lp4033
V\u4e13\u4e1a\u7248
p4034
aF0.47628563458477335
aa(lp4035
V\u6574\u56fa
p4036
aF0.32127818876745939
aa(lp4037
V\u6b27
aF0.82267518701006315
aa(lp4038
V\u77e5\u884c\u5408\u4e00
p4039
aF0.22071773310026085
aa(lp4040
V\u6da8
aF0.54764445911038284
aa(lp4041
V\u805a\u7126
p4042
aF0.54736662114220014
aa(lp4043
V\u6709\u8272
p4044
aF0.35554054968980825
aa(lp4045
V\u4f30\u503c
p4046
aF0.41133759350503157
aa(lp4047
V\u679c
aF0.26615961932678511
aa(lp4048
V\u80a1\u6c11
p4049
aF0.36491108076146678
aa(lp4050
V\u6211\u70b9
p4051
aF0.69610977362389959
aa(lp4052
V\u81f4\u656c
p4053
aF0.20957715900497445
aa(lp4054
V\u592a\u591a\u4f1a
p4055
aF0.6463876469364781
aa(lp4056
V\u66fe\u7ecf
p4057
aF0.37861022706869446
aa(lp4058
V\u8d4c\u795e
p4059
aF0.90494270571106949
aa(lp4060
V\u534e\u53d1
p4061
aF0.69610977362389959
aa(lp4062
V\u5c01\u6b7b
p4063
aF0.23444715740438191
aa(lp4064
V\u8bf4\u6765
p4065
aF1.0054918952345215
aa(lp4066
V\u5c31\u7eed
p4067
aF0.7663132695990803
aa(lp4068
V\u4ed3\u8005
p4069
aF0.39345335030916062
aa(lp4070
V\u7389\u9f99
p4071
aF0.17714259868277601
aa(lp4072
V\u51c0
aF0.7926721070010605
aa(lp4073
V\u72c2
aF0.41133759350503157
aa(lp4074
V\u518d\u52a0
p4075
aF0.30164756857035646
aa(lp4076
V\u9886\u53d6
p4077
aF0.41133759350503157
aa(lp4078
V\u8bcd
aF0.25855505877459128
aa(lp4079
V\u518d\u52a8
p4080
aF0.27368331057110007
aa(lp4081
V\u4e0a\u884c
p4082
aF0.42593999827157253
aa(lp4083
V\u76ee\u6807\u4ef7
p4084
aF0.30949184727965728
aa(lp4085
V\u4e00\u4e0a\u5348
p4086
aF1.3927133127584579
aa(lp4087
V\u6709\u620f
p4088
aF1.6712559753101495
aa(lp4089
V\u7535\u68af
p4090
aF0.38237015734270541
aa(lp4091
V\u4e0b\u65b9
p4092
aF0.24366599794436813
aa(lp4093
V\u597d\u50cf
p4094
aF0.24472151713480264
aa(lp4095
V\u771f\u5f3a
p4096
aF0.2827945955347092
aa(lp4097
V\u50a8\u4e1a
p4098
aF0.60329513714071292
aa(lp4099
V\u8f69\u9633\u8bba
p4100
aF1.1311783821388368
aa(lp4101
V\u5927\u5355
p4102
aF0.95021882633033183
aa(lp4103
V\u73b0\u4ef7
p4104
aF0.25137297380863038
aa(lp4105
V\u964d\u4f4e
p4106
aF0.51425502966796033
aa(lp4107
V\u8fb9\u7f18
p4108
aF0.59195974233794835
aa(lp4109
V\u826f\u597d
p4110
aF0.40320375488236881
aa(lp4111
V\u6bd4\u4f8b
p4112
aF0.31278092636697152
aa(lp4113
V\u6297\u65f1
p4114
aF1.2927752938729562
aa(lp4115
V\u6fc0\u52a8\u4e0d\u5df2
p4116
aF0.34805488681194979
aa(lp4117
V\u4f70\u5229\u8054
p4118
aF1.1358306812060832
aa(lp4119
V\u6bd4\u8f83
p4120
aF0.20610866859767443
aa(lp4121
V\u518d\u5165
p4122
aF0.40332277347320011
aa(lp4123
V\u96c6\u8fd0
p4124
aF0.37983090347957943
aa(lp4125
V\u70b9\u8d5e\u8d5e
p4126
aF0.45247135285553475
aa(lp4127
V\u4e00\u5806
p4128
aF0.60329513714071292
aa(lp4129
V\u5404
aF1.0947332422844003
aa(lp4130
V\u4e0b\u9762
p4131
aF0.23211888545974296
aa(lp4132
V\u5904\u7406
p4133
aF0.19672667515458031
aa(lp4134
V\u4ec0\u4e48
p4135
aF0.44264645323561047
aa(lp4136
V\u4e00\u957f\u4e32
p4137
aF0.20381170430611578
aa(lp4138
V\u800c
aF0.65478841977944424
aa(lp4139
V\u4e71\u641e
p4140
aF0.39791808935955936
aa(lp4141
V\u5e38\u4eba
p4142
aF0.3770594607129456
aa(lp4143
V\u56ed\u6797
p4144
aF0.34261012398872376
aa(lp4145
V\u4f1a\u91cf
p4146
aF0.39345335030916062
aa(lp4147
V\u6025\u529f\u8fd1\u5229
p4148
aF0.1885297303564728
aa(lp4149
V\u5316
aF0.20890699691376868
aa(lp4150
V\u901f\u7387
p4151
aF0.25137297380863038
aa(lp4152
V\u8003\u8651
p4153
aF0.85960112650001108
aa(lp4154
V\u8981\u521b
p4155
aF1.5082378428517824
aa(lp4156
V\u8d5e\u7559\u4e2a
p4157
aF1.5082378428517824
aa(lp4158
V\u8d70\u5e73
p4159
aF0.47894579349942518
aa(lp4160
V\u9010\u6e10
p4161
aF0.2445791096516404
aa(lp4162
V\u7164\u98de\u8272
p4163
aF0.39754073842212923
aa(lp4164
V\u5e95\u7ebf
p4165
aF0.20108078769396198
aa(lp4166
V\u7ffb\u591a
p4167
aF0.25647789575621238
aa(lp4168
V\u8d2a
aF0.69699855154308576
aa(lp4169
V\u54af
aF0.39791808935955936
aa(lp4170
V\u5730\u91cf
p4171
aF0.60329513714071292
aa(lp4172
V\u6279\u6b21
p4173
aF0.50274594761726077
aa(lp4174
V\u91d1\u8bfa\u5343\u79be
p4175
aF0.55708532510338316
aa(lp4176
V\u9ad8\u70b9
p4177
aF0.86264572174323961
aa(lp4178
V\u73b0\u8d27
p4179
aF1.0445349845688434
aa(lp4180
V\u6cbf
aF0.42572959422171125
aa(lp4181
V\u57fa\u672c
p4182
aF0.54940789956212799
aa(lp4183
V\u65b0\u6750
p4184
aF0.55708532510338316
aa(lp4185
V\u5229\u597d
p4186
aF0.23503230850742804
aa(lp4187
V\u597d\u65f6\u673a
p4188
aF0.23814281729238668
aa(lp4189
V\u590d\u724c
p4190
aF0.46889431480876381
aa(lp4191
V\u4e2d\u5c0f
p4192
aF0.21456554142942977
aa(lp4193
V\u5c0f\u5bb6\u4f19
p4194
aF1.2927752938729562
aa(lp4195
V\u9a6c\u4e0a
p4196
aF0.78460479185886411
aa(lp4197
V\u61c2\u4e8b
p4198
aF0.56558919106941841
aa(lp4199
V\u4ed3
aF0.85652530997180931
aa(lp4200
V\u80c6\u5b50
p4201
aF0.23211888545974296
aa(lp4202
V\u78a7\u6c60
p4203
aF0.42621101448332277
aa(lp4204
V\u5927\u70ed
p4205
aF0.33425119506202988
aa(lp4206
V\u660e
aF0.1816582581858858
aa(lp4207
V\u5c71\u524d
p4208
aF0.312049208865886
aa(lp4209
V\uff5e
aF0.61160113603404498
aa(lp4210
V\u5206\u4ed3
p4211
aF0.30164756857035646
aa(lp4212
V\u6162
aF0.18468218483899376
aa(lp4213
V\u65e5
aF0.3181648004982931
aa(lp4214
V\u521b\u7ef4
p4215
aF0.53231923865357023
aa(lp4216
V\u6295\u5411
p4217
aF0.51711011754918257
aa(lp4218
V\u7a33\u6b65
p4219
aF0.37482455356203598
aa(lp4220
V\u6211\u8be5
p4221
aF0.69610977362389959
aa(lp4222
V\u7ea2\u9152
p4223
aF0.60329513714071292
aa(lp4224
V\u9519\u5931\u826f\u673a
p4225
aF0.25855505877459128
aa(lp4226
V\u5f69\u8679
p4227
aF0.55708532510338316
aa(lp4228
V\u624b\u7ee2
p4229
aF1.1926222152663875
aa(lp4230
V\u5e73\u53f0
p4231
aF0.17562656787658723
aa(lp4232
V\u51fa\u95e8
p4233
aF0.25855505877459128
aa(lp4234
V\u5bc6\u96c6
p4235
aF0.41781399382753737
aa(lp4236
V\u4ec5\u6b21\u4e8e
p4237
aF0.38783258816188693
aa(lp4238
V\u4ef7\u4e0e
p4239
aF0.45247135285553475
aa(lp4240
V\u7275\u51fa\u6765
p4241
aF1.0054918952345215
aa(lp4242
V\u63a5\u4e0b\u6765
p4243
aF0.23804338887692617
aa(lp4244
V\u6253\u65b0
p4245
aF0.45247135285553475
aa(lp4246
V\u652f\u6491\u529b
p4247
aF0.54736662114220014
aa(lp4248
V\u5e9f\u8bdd
p4249
aF0.6463876469364781
aa(lp4250
V\u5927\u4e3e\u8fdb\u653b
p4251
aF0.90494270571106949
aa(lp4252
V\u4e3b\u89c2
p4253
aF0.41133759350503157
aa(lp4254
V\u5927\u9022
p4255
aF0.59687713403933906
aa(lp4256
V\u9017
aF0.49154587509122044
aa(lp4257
V\u6d41\u7545
p4258
aF1.0368096554118056
aa(lp4259
V\u5708\u5185
p4260
aF0.75411892142589121
aa(lp4261
V\u5efa\u8bae
p4262
aF0.31888996988858015
aa(lp4263
V\u82e5\u91cf
p4264
aF0.1885297303564728
aa(lp4265
V\u52a8\u9759
p4266
aF0.56558919106941841
aa(lp4267
V\u9ad8\u9022
p4268
aF0.92847554183897185
aa(lp4269
V\u8001\u5468
p4270
aF0.30884856121979914
aa(lp4271
V\u80fd\u591f
p4272
aF0.27956618099091185
aa(lp4273
V\u5fc3\u809d
p4274
aF0.90494270571106949
aa(lp4275
V\u6ede\u6da8
p4276
aF0.49653205031269809
aa(lp4277
V\u6d3b\u7740
p4278
aF1.5082378428517824
aa(lp4279
V\u5899\u5934\u8349
p4280
aF0.53231923865357023
aa(lp4281
V\u9888
aF0.20711169448623792
aa(lp4282
V\u4e0a\u6b21
p4283
aF0.3770594607129456
aa(lp4284
V\u8fbe
aF0.33516396507817386
aa(lp4285
V\u54c4
aF0.90494270571106949
aa(lp4286
V\u6162\u6162
p4287
aF0.73905908714581359
aa(lp4288
V\u4e00\u57ce
p4289
aF0.4309250979576521
aa(lp4290
V\u8f69\u9633
p4291
aF0.20805926911733902
aa(lp4292
V\u7f8e\u76c8\u68ee
p4293
aF0.4676949863789755
aa(lp4294
V\u5c3e\u5df4
p4295
aF0.21045179202583011
aa(lp4296
V\u76d8\u6da8
p4297
aF0.69635665637922894
aa(lp4298
V\u7a33\u91cd
p4299
aF0.2445791096516404
aa(lp4300
V\u6f6e\u5ddd
p4301
aF0.55708532510338316
aa(lp4302
V\u76d8\u6c5f
p4303
aF0.69635665637922894
aa(lp4304
V\u76d8
aF0.43447920580373378
aa(lp4305
V\u795d
aF1.8599972861691483
aa(lp4306
V\u6269\u5927
p4307
aF0.53264541821973532
aa(lp4308
V\u4e0d\u505c
p4309
aF0.69610977362389959
aa(lp4310
V\u5f15\u9886
p4311
aF1.1839194846758967
aa(lp4312
V\u5927\u9053
p4313
aF0.47628563458477335
aa(lp4314
V\u5207\u8bb0
p4315
aF0.30999954769485805
aa(lp4316
V\u6ee8
aF0.38866418030468591
aa(lp4317
V\u6da8\u5c11
p4318
aF0.1856951083677944
aa(lp4319
V\u53cd\u8d25\u4e3a\u80dc
p4320
aF1.5082378428517824
aa(lp4321
V\u6b22\u547c\u96c0\u8dc3
p4322
aF0.312049208865886
aa(lp4323
V\u5c3d\u529b
p4324
aF0.53231923865357023
aa(lp4325
V\u5dee\u70b9
p4326
aF1.3251357947404305
aa(lp4327
V\u9762\u5b50
p4328
aF0.25855505877459128
aa(lp4329
V\u4eca\u5929
p4330
aF0.99754768129402305
aa(lp4331
V\u7533\u8d2d
p4332
aF0.91576710392791916
aa(lp4333
V\u6587\u4e2d
p4334
aF0.92999864308457414
aa(lp4335
V\u5c0f\u5c4b
p4336
aF0.75411892142589121
aa(lp4337
V\u90d1\u5dde\u5546\u54c1\u4ea4\u6613\u6240
p4338
aF0.21045179202583011
aa(lp4339
V\u5236\u9020
p4340
aF1.3251357947404305
aa(lp4341
V\u60e6\u8bb0
p4342
aF0.69610977362389959
aa(lp4343
V\u6e14\u4e3a
p4344
aF0.75411892142589121
aa(lp4345
V\u5632\u7b11
p4346
aF0.82267518701006315
aa(lp4347
V\u4e0b\u6765
p4348
aF0.40307073410438082
aa(lp4349
V\u56de\u5410
p4350
aF0.17779318886278186
aa(lp4351
V\u592e\u4f01
p4352
aF1.5901629536885169
aa(lp4353
V\u6536\u7ea2
p4354
aF0.58947174584544637
aa(lp4355
V\u98d9\u5347
p4356
aF0.312049208865886
aa(lp4357
V\u4e3b\u5bfc
p4358
aF0.20109837904690434
aa(lp4359
V\u5929\u5929
p4360
aF0.17505387752860518
aa(lp4361
V\u53ea\u662f
p4362
aF0.20060429989247333
aa(lp4363
V\u4e0d\u8a00\u800c\u55bb
p4364
aF0.22071773310026085
aa(lp4365
V\u51e0\u4eba
p4366
aF1.809885411422139
aa(lp4367
V\u5f62\u52bf
p4368
aF0.6463876469364781
aa(lp4369
V\u90a3\u6837
p4370
aF0.43562409471442859
aa(lp4371
V\u7aed\u529b
p4372
aF0.25137297380863038
aa(lp4373
V\u8865\u91cf
p4374
aF0.32319382346823905
aa(lp4375
V\u6bd4\u8d5b
p4376
aF0.43051617624578065
aa(lp4377
V\u4ece\u91cf
p4378
aF0.47628563458477335
aa(lp4379
V\u4e00\u5929
p4380
aF0.56154398526255478
aa(lp4381
V\u94f6\u884c
p4382
aF0.3337583859517429
aa(lp4383
V\u75af
aF2.2623567642776736
aa(lp4384
V\u63a2\u6d4b
p4385
aF0.92847554183897185
aa(lp4386
V\u7e41\u82b1
p4387
aF1.5082378428517824
aa(lp4388
V\u4e00\u628a
p4389
aF0.99306410062539618
aa(lp4390
V\u6765\u56de
p4391
aF0.53231923865357023
aa(lp4392
V\u5413\u574f
p4393
aF0.312049208865886
aa(lp4394
V\u501f\u52a9
p4395
aF0.20890699691376868
aa(lp4396
V\u9519\u5931
p4397
aF0.19672667515458031
aa(lp4398
V\u6b27\u7f8e
p4399
aF0.39126657554778371
aa(lp4400
V\u7740\u91cd
p4401
aF1.2927752938729562
aa(lp4402
V\u8fd0\u884c
p4403
aF0.2669745617996378
aa(lp4404
V\u6cbf\u7740
p4405
aF0.62162137130544781
aa(lp4406
V\u534a\u5e74\u7ebf
p4407
aF0.555583984846579
aa(lp4408
V\u516c\u5e03
p4409
aF0.24557520328037125
aa(lp4410
V\u653e\u677e
p4411
aF0.81055971245614467
aa(lp4412
V\u767e\u4ebf
p4413
aF0.1856951083677944
aa(lp4414
V\u6ce2\u8f6e
p4415
aF0.82267518701006315
aa(lp4416
V\u614c
aF1.6712559753101495
aa(lp4417
V\u25cf
aF0.28827118016936676
aa(lp4418
V\u725b\u5e02
p4419
aF0.53104884789385165
aa(lp4420
V\u6625\u68a6
p4421
aF0.90494270571106949
aa(lp4422
V\u80a1\u4ef7
p4423
aF0.21475735208888339
aa(lp4424
V\u4e07\u4e00
p4425
aF0.55828212214481843
aa(lp4426
V\u9886\u5148
p4427
aF3.0164756857035648
aa(lp4428
V\u6240\u6599
p4429
aF0.4309250979576521
aa(lp4430
V\u80a1\u4efd
p4431
aF0.12383583111669051
aa(lp4432
V\u4eba\u6c11\u653f\u5e9c
p4433
aF0.58383400368456095
aa(lp4434
V\u8d70\u5f31
p4435
aF0.42826265498590466
aa(lp4436
V\u91cf
aF0.34395146803667381
aa(lp4437
V\u542f\u52a8
p4438
aF0.47946584925886371
aa(lp4439
V\u8d70\u5f3a
p4440
aF0.61731914911717278
aa(lp4441
V\u90ed
aF1.2927752938729562
aa(lp4442
V\u8fd9\u6ce2
p4443
aF0.77444283504787303
aa(lp4444
V\u706b\u70ed
p4445
aF0.23814281729238668
aa(lp4446
V\u91d1\u5c5e
p4447
aF1.9877036921106459
aa(lp4448
V\u6210\u4ea4\u91cf
p4449
aF0.27714715767968012
aa(lp4450
V\u5f88\u5feb
p4451
aF0.75411892142589121
aa(lp4452
V\u73b0\u8c61
p4453
aF0.54736662114220014
aa(lp4454
V\u6784\u5efa
p4455
aF0.19672667515458031
aa(lp4456
V\u53d8\u7eff
p4457
aF0.36331651637177159
aa(lp4458
V\u5b89\u8bb0
p4459
aF0.25855505877459128
aa(lp4460
V\u538b\u529b
p4461
aF0.71699665149274783
aa(lp4462
V\u79d1\u6280\u80a1
p4463
aF2.2623567642776736
aa(lp4464
V\u8dcc\u591a
p4465
aF0.53231923865357023
aa(lp4466
V\u6fc0\u52a8
p4467
aF0.55708532510338316
aa(lp4468
V\u6e7e
aF0.67636264951605396
aa(lp4469
V\u5b50\u4e71
p4470
aF0.29191700184228048
aa(lp4471
V\u4f4d\u9022
p4472
aF0.7663132695990803
aa(lp4473
V\u5f88
aF0.44228031721005134
aa(lp4474
V\u624b\u52a8
p4475
aF0.6463876469364781
aa(lp4476
V\u80a1\u4e2d
p4477
aF0.69610977362389959
aa(lp4478
V\u629b\u538b
p4479
aF0.32288713218433546
aa(lp4480
V\u5f00\u6e90
p4481
aF1.0445349845688434
aa(lp4482
V\u544a\u8bc9
p4483
aF0.29474898634768898
aa(lp4484
V\u4e7e\u666f
p4485
aF0.32139537986733646
aa(lp4486
V\u4e3b\u5347\u5f3a
p4487
aF0.56558919106941841
aa(lp4488
V\u91d1\u5cad
p4489
aF0.19433209015234296
aa(lp4490
V\u591a\u4e8c\u662f
p4491
aF0.56558919106941841
aa(lp4492
V\u7cfb\u9a9a\u5987
p4493
aF0.36331651637177159
aa(lp4494
V\u5f88\u5f3a
p4495
aF0.51801780942120645
aa(lp4496
V\u811a\u8e0f\u5b9e\u5730
p4497
aF0.33425119506202988
aa(lp4498
V\u6536\u9633\u6536
p4499
aF0.45247135285553475
aa(lp4500
V\u8e29
aF0.30829272459156931
aa(lp4501
V\u7535\u74f7
p4502
aF0.30164756857035646
aa(lp4503
V\u6caa
aF0.32768613829410143
aa(lp4504
V\u9502\u7535
p4505
aF0.42090358405166023
aa(lp4506
V\u8d8a\u6da8
p4507
aF0.4309250979576521
aa(lp4508
V\u98ce\u5411\u6807
p4509
aF0.47628563458477335
aa(lp4510
V\u8fdb\u5165
p4511
aF0.61167993592948644
aa(lp4512
V\u4f1f\u5927
p4513
aF0.88342386316028698
aa(lp4514
V\u7f1d\u9699
p4515
aF0.75411892142589121
aa(lp4516
V\u80a1\u4e1c
p4517
aF0.28550843665726977
aa(lp4518
V\u9ad8\u5148
p4519
aF0.59139328411815439
aa(lp4520
V\u5e26\u5934
p4521
aF0.24393407031726536
aa(lp4522
V\u6743\u91cd
p4523
aF0.20456054374220917
aa(lp4524
V\u8d26\u6237
p4525
aF0.74399891446765931
aa(lp4526
V\u6a21\u62df
p4527
aF0.36197708228442776
aa(lp4528
V\u4e0d\u662f
p4529
aF0.32199462346230578
aa(lp4530
V\u4e60\u60ef
p4531
aF0.24093378086189648
aa(lp4532
V\u4e00\u79cd
p4533
aF0.27352168363844553
aa(lp4534
V\u7b49\u7b49
p4535
aF1.1311783821388368
aa(lp4536
V\u68d2
aF1.1311783821388368
aa(lp4537
V\u4e94\u6d6a
p4538
aF0.13307980966339256
aa(lp4539
V\u538b\u5236
p4540
aF0.88803053043635383
aa(lp4541
V\u7b5b
aF0.39345335030916062
aa(lp4542
V\u89c2\u671b
p4543
aF1.6025924318738587
aa(lp4544
V\u730e\u624b
p4545
aF0.53231923865357023
aa(lp4546
V\u4e0d\u597d\u73a9
p4547
aF3.0164756857035648
aa(lp4548
V\u5e7f\u535a
p4549
aF0.43980420402898668
aa(lp4550
V\u5206\u8d77
p4551
aF0.50274594761726077
aa(lp4552
V\u4e07\u4ebf
p4553
aF0.85028447367732485
aa(lp4554
V\u62c9\u81f3
p4555
aF1.809885411422139
aa(lp4556
V\u6cea
aF0.99385184605532295
aa(lp4557
V\u8010\u5fc3
p4558
aF0.47461687823832716
aa(lp4559
V\u4e0d\u6613
p4560
aF0.53231923865357023
aa(lp4561
V\u6a21\u5f0f
p4562
aF0.21286479711085562
aa(lp4563
V\u53ef\u8ffd\u8e2a
p4564
aF1.1937542680786781
aa(lp4565
V\u6b7b
aF0.18481040128692325
aa(lp4566
V\u4f11\u6574
p4567
aF0.37363422703801369
aa(lp4568
V\u8868\u793a
p4569
aF0.67833200866047261
aa(lp4570
V\u76f8\u5bf9\u6765\u8bf4
p4571
aF0.26424595503416559
aa(lp4572
V\u5e10\u6237
p4573
aF0.4676949863789755
aa(lp4574
V\u6765\u81ea
p4575
aF0.41781399382753737
aa(lp4576
V\u8981\u4e48
p4577
aF0.21488688563358335
aa(lp4578
V\u5df2\u7ecf
p4579
aF0.18692681322416355
aa(lp4580
V\u7ecf\u7ebf
p4581
aF0.59687713403933906
aa(lp4582
V\u6574\u7406
p4583
aF0.59139328411815439
aa(lp4584
V\u7f51\u7ea2
p4585
aF0.89669119069584469
aa(lp4586
V\u51cf\u53bb
p4587
aF0.33516396507817386
aa(lp4588
V\u5148\u8dcc
p4589
aF0.82267518701006315
aa(lp4590
V\u5199
aF0.49880597689608908
aa(lp4591
V\u7f13\u6162
p4592
aF0.34537489569192636
aa(lp4593
V\u4eba\u5bb6
p4594
aF0.13922195472477991
aa(lp4595
V\u8054\u7f51
p4596
aF0.51711011754918257
aa(lp4597
V\u878d\u8d44
p4598
aF0.7666865868314372
aa(lp4599
V\u4e0d\u96be
p4600
aF0.92847554183897185
aa(lp4601
V\u63a5
aF0.38195991153800912
aa(lp4602
V\u60e0\u6210
p4603
aF0.32319382346823905
aa(lp4604
V\u6309\u8bf4
p4605
aF0.30164756857035646
aa(lp4606
V\u70b9\u534a\u540e
p4607
aF0.49154587509122044
aa(lp4608
V\u90a3\u4f1a
p4609
aF0.30667463473257489
aa(lp4610
V\U0001f3b2
aF0.75411892142589121
aa(lp4611
V\u4e0a\u6da8
p4612
aF0.40130263385611148
aa(lp4613
V\u9700\u8c28\u614e
p4614
aF0.19392231142542887
aa(lp4615
V\u9605\u8bfb
p4616
aF0.2742250623366877
aa(lp4617
V\u6536
aF0.493105363653495
aa(lp4618
V\u6740\u51fa
p4619
aF0.90494270571106949
aa(lp4620
V\u9171\u7d2b
p4621
aF1.1311783821388368
aa(lp4622
V\u633a
aF0.53142779604832802
aa(lp4623
V\u8f66\u8f74
p4624
aF0.56791534060304161
aa(lp4625
V\u77e5\u9053
p4626
aF0.97175853870708206
aa(lp4627
V\u65e5\u4e2d
p4628
aF0.45247135285553475
aa(lp4629
V\u5440
aF0.46317697854636836
aa(lp4630
V\u5047\u6454
p4631
aF0.79583617871911871
aa(lp4632
V\u592e\u884c
p4633
aF0.30480686942574797
aa(lp4634
V\u589e\u901f
p4635
aF0.28193381302822423
aa(lp4636
V\u843d\u5c3d
p4637
aF1.5082378428517824
aa(lp4638
V\u9700\u5148
p4639
aF0.39345335030916062
aa(lp4640
V\u8dd1
aF0.83876760382324966
aa(lp4641
V\u786e\u5b9a
p4642
aF0.39754073842212923
aa(lp4643
V\u6316\u6398
p4644
aF0.49154587509122044
aa(lp4645
V\u5f39\u7434
p4646
aF1.1311783821388368
aa(lp4647
V\u8d44\u6e90
p4648
aF0.28490532122201934
aa(lp4649
V\u56de\u5347
p4650
aF1.3882298739110535
aa(lp4651
V\u5341\u5b57\u661f
p4652
aF0.74399891446765931
aa(lp4653
V\u6caa\u6df1\u80a1\u5e02
p4654
aF0.19672667515458031
aa(lp4655
V\u65e5\u4e0b
p4656
aF0.30652530783963211
aa(lp4657
V\u6750\u6599
p4658
aF0.26422403566702013
aa(lp4659
V\u7f51\u7edc
p4660
aF0.2926789318157762
aa(lp4661
V\u716e
aF1.0054918952345215
aa(lp4662
V\u540e\u76d8
p4663
aF0.47628563458477335
aa(lp4664
V\u745e\u6cf0
p4665
aF0.92847554183897185
aa(lp4666
V\u5148\u6da8
p4667
aF0.29191700184228048
aa(lp4668
V\u66f4\u91cd
p4669
aF0.6463876469364781
aa(lp4670
V\u641c\u7d22
p4671
aF0.62409841773177199
aa(lp4672
V\u5f53\u524d
p4673
aF0.3399068215291543
aa(lp4674
V\u65f6\u5c1a
p4675
aF0.23999964982827718
aa(lp4676
V\u8ffd
aF0.27373579107620133
aa(lp4677
V\u6001\u52bf
p4678
aF0.25527709681577165
aa(lp4679
V\u56fd\u7535
p4680
aF0.36197708228442776
aa(lp4681
V\u6fd2\u4e34
p4682
aF0.90494270571106949
aa(lp4683
V\u5916\u8d44
p4684
aF0.50274594761726077
aa(lp4685
V\u4f9b\u6696
p4686
aF0.3770594607129456
aa(lp4687
V\u90e8\u843d
p4688
aF0.47750170723147128
aa(lp4689
V\u8dcc\u4e0d\u6df1
p4690
aF0.56558919106941841
aa(lp4691
V\u8868\u73b0
p4692
aF0.12684357719787367
aa(lp4693
V\u5f3a\u653b
p4694
aF0.33317968243438273
aa(lp4695
V\u65e5\u7ebf\u56fe
p4696
aF0.32319382346823905
aa(lp4697
V\u7740\u614c
p4698
aF0.2445791096516404
aa(lp4699
V\u8001\u670b\u53cb
p4700
aF0.22623567642776737
aa(lp4701
V\u90a3\u8fb9
p4702
aF0.25855505877459128
aa(lp4703
V\u72b6\u6001
p4704
aF2.0922794449569708
aa(lp4705
V\u529b\u5927\u6da8
p4706
aF0.21045179202583011
aa(lp4707
V\u606d\u559c
p4708
aF0.38614825925427609
aa(lp4709
V\u6323\u8131
p4710
aF0.90494270571106949
aa(lp4711
V\u8fd1\u6708\u7ebf
p4712
aF0.87124818942885718
aa(lp4713
V\u51fa\u53f0
p4714
aF0.14835126323132286
aa(lp4715
V\u786c\u76d8
p4716
aF0.28728339863843472
aa(lp4717
V\u6025\u4e8e
p4718
aF1.5193236139183177
aa(lp4719
V\u4e4b\u5185
p4720
aF0.14207033816110762
aa(lp4721
V\u6da6
aF0.21045179202583011
aa(lp4722
V\u5927\u961f
p4723
aF0.3770594607129456
aa(lp4724
V\u5148\u8d70
p4725
aF1.5082378428517824
aa(lp4726
V\u4e00\u822c
p4727
aF0.22129193042716788
aa(lp4728
V\u6025\u8e81
p4729
aF0.4309250979576521
aa(lp4730
V\u6b4c\u624b
p4731
aF0.26527872623970628
aa(lp4732
V\u771f\u662f
p4733
aF0.97888606853921056
aa(lp4734
V\u6b67\u89c6
p4735
aF0.2827945955347092
aa(lp4736
V\u54c8
aF0.16411301018306734
aa(lp4737
V\u6ca1\u9519
p4738
aF0.4676949863789755
aa(lp4739
V\u8212\u670d
p4740
aF1.9877036921106459
aa(lp4741
V\u4e00\u7ebf
p4742
aF0.49785610824506121
aa(lp4743
V\u8574\u542b
p4744
aF0.53231923865357023
aa(lp4745
V\u6709\u671b
p4746
aF0.22660454768610286
aa(lp4747
V\u9000\u5374
p4748
aF0.26615961932678511
aa(lp4749
V\u7740\u6025
p4750
aF0.43763469382151293
aa(lp4751
V\u4ea7\u80fd
p4752
aF0.46423777091948593
aa(lp4753
V\u79bb\u5cb8
p4754
aF0.47894579349942518
aa(lp4755
V\u62c5\u5fc3
p4756
aF0.20060429989247333
aa(lp4757
V\u8ffd\u9ad8\u6bc1
p4758
aF0.82267518701006315
aa(lp4759
V\u552f\u72ec
p4760
aF0.30164756857035646
aa(lp4761
V\u4e56\u5b69\u5b50
p4762
aF1.1311783821388368
aa(lp4763
V\u5fae\u635f
p4764
aF1.1311783821388368
aa(lp4765
V\u51fa\u73b0
p4766
aF0.20611481980507998
aa(lp4767
V\u5bfb
aF0.27854266255169158
aa(lp4768
V\u6b4c\u66f2
p4769
aF3.0164756857035648
aa(lp4770
V\u7ef4\u6301
p4771
aF0.20392733354117065
aa(lp4772
V\u79c1\u4fe1
p4773
aF0.82267518701006315
aa(lp4774
V\u7559\u4e2a
p4775
aF0.22584540206893913
aa(lp4776
V\u5e78\u798f
p4777
aF0.26527872623970628
aa(lp4778
V\u6cc4\u6da8
p4779
aF0.30949184727965728
aa(lp4780
V\u8001\u6e56
p4781
aF0.61160113603404498
aa(lp4782
V\u5b9e\u73b0
p4783
aF0.37511545184701106
aa(lp4784
V\u53ef\u4ee5
p4785
aF0.1671762414351822
aa(lp4786
V\u4e0a\u6d77
p4787
aF1.014788129722197
aa(lp4788
V\u6743\u91cd\u80a1
p4789
aF0.54642437754272155
aa(lp4790
V\u6237\u5916
p4791
aF0.47628563458477335
aa(lp4792
V\u60ac\u5ff5
p4793
aF0.69610977362389959
aa(lp4794
V\u770b\u6536\u9633
p4795
aF0.2742250623366877
aa(lp4796
V\u8bb0\u5fc6
p4797
aF0.41781399382753737
aa(lp4798
V\u6de1\u5b9a
p4799
aF0.72576675878826391
aa(lp4800
V\u8fd1\u8dcc
p4801
aF0.6463876469364781
aa(lp4802
V\u4e09\u6bdb
p4803
aF0.39345335030916062
aa(lp4804
V\u9ec4\u91d1\u5206\u5272
p4805
aF0.82267518701006315
aa(lp4806
V\u5c06
aF0.15836809072390834
aa(lp4807
V\u9876\u90e8
p4808
aF1.7424963788577144
aa(lp4809
V\u79c1\u4e0b
p4810
aF0.21045179202583011
aa(lp4811
V\u600e
aF0.29191700184228048
aa(lp4812
V\u7403\u8d5b
p4813
aF0.39345335030916062
aa(lp4814
V\u65b0\u8001
p4815
aF0.41846393518118857
aa(lp4816
V\u4e0d\u80fd
p4817
aF0.44020341354203435
aa(lp4818
V\u770b\u7a7a
p4819
aF0.64577426436867091
aa(lp4820
V\u4e0d\u671b
p4821
aF0.3770594607129456
aa(lp4822
V\u521a
aF1.062855592096656
aa(lp4823
V\u6210\u672c
p4824
aF0.58949797269537796
aa(lp4825
V\u62a5
aF0.33821348055825373
aa(lp4826
V\u6324
aF0.19254100121512116
aa(lp4827
V\u4fa7
aF0.14621718355389624
aa(lp4828
V\u5bf9\u4e8e
p4829
aF0.31400471039847155
aa(lp4830
V\u56de\u5230
p4831
aF0.60480563232355322
aa(lp4832
V\u4e00\u7f29
p4833
aF0.90494270571106949
aa(lp4834
V\u9065\u8fdc
p4835
aF0.2742250623366877
aa(lp4836
V\u9ec4\u767d
p4837
aF0.23814281729238668
aa(lp4838
V\u8001\u53f6
p4839
aF0.30884856121979914
aa(lp4840
V\u8138
aF0.45247135285553475
aa(lp4841
V\u5982\u613f
p4842
aF0.23875085361573564
aa(lp4843
V\u597d\u770b
p4844
aF0.48928110223022903
aa(lp4845
V\u63d0\u524d
p4846
aF0.25372836419946215
aa(lp4847
V\u7ec8\u4f1a
p4848
aF0.60329513714071292
aa(lp4849
V\u9884\u51cf
p4850
aF1.4288569037543202
aa(lp4851
V\u897f\u90fd
p4852
aF0.15326265391981606
aa(lp4853
V\u5448\u9f99
p4854
aF0.47628563458477335
aa(lp4855
V\u5408\u4f5c
p4856
aF0.80640750976473763
aa(lp4857
V\u5e94\u5bf9
p4858
aF0.2742250623366877
aa(lp4859
V\u5f88\u591a\u904d
p4860
aF0.36197708228442776
aa(lp4861
V\u500d
aF0.4803316814554931
aa(lp4862
V\u597d\u6536\u6210
p4863
aF0.69610977362389959
aa(lp4864
V\u5df2\u5927\u6da8
p4865
aF0.3770594607129456
aa(lp4866
V\u8f66\u9053
p4867
aF0.312049208865886
aa(lp4868
V\u673a\u667a
p4869
aF0.90494270571106949
aa(lp4870
V\u897f\u90e8
p4871
aF0.35008062022696435
aa(lp4872
V\u7070\u5e38\u7070\u5e38
p4873
aF0.32319382346823905
aa(lp4874
V\u82e5\u80fd
p4875
aF0.39791808935955936
aa(lp4876
V\u90a3\u4e48
p4877
aF0.12178754956721995
aa(lp4878
V\u62c9\u677f
p4879
aF0.7228013425856894
aa(lp4880
V\u6ca1\u5230
p4881
aF0.39298116389696425
aa(lp4882
V\u5929\u9f50
p4883
aF0.82267518701006315
aa(lp4884
V\u7d2f\u4e0d\u7d2f
p4885
aF0.6463876469364781
aa(lp4886
V\u6307\u793a
p4887
aF0.25491343822847029
aa(lp4888
V\u53ef
aF0.62362300582053432
aa(lp4889
V\u9664\u975e
p4890
aF0.23249966077114353
aa(lp4891
V\u5b66\u5458
p4892
aF0.83562798765507473
aa(lp4893
V\u534e\u79d1\u6280
p4894
aF0.6463876469364781
aa(lp4895
V\u5e72
aF0.88803053043635383
aa(lp4896
V\u51e0\u5341\u5206\u949f
p4897
aF0.75411892142589121
aa(lp4898
V\u5f88\u4e45\u6ca1
p4899
aF1.0054918952345215
aa(lp4900
V\u534a\u4e2a
p4901
aF0.24472151713480264
aa(lp4902
V\u719f\u6089
p4903
aF0.26615961932678511
aa(lp4904
V\u5e72\u4ec0\u4e48
p4905
aF0.4309250979576521
aa(lp4906
V\u5e7f\u7535
p4907
aF0.23203659120796652
aa(lp4908
V\u62fc\u547d
p4909
aF0.30164756857035646
aa(lp4910
V\u5929\u5fb7
p4911
aF0.20295762594443942
aa(lp4912
V\u5e16\u5b50
p4913
aF0.33516396507817386
aa(lp4914
V\u6000\u7591
p4915
aF0.38722141752393652
aa(lp4916
V\u64a4\u9000
p4917
aF0.90720844848532989
aa(lp4918
V\u4ea7\u9500
p4919
aF0.88342386316028698
aa(lp4920
V\u589e\u91cf
p4921
aF0.32288713218433546
aa(lp4922
V\u5fb7\u56fd
p4923
aF0.2827945955347092
aa(lp4924
V\u597d\u680b\u8f89
p4925
aF0.41133759350503157
aa(lp4926
V\u8fc7\u7a0b
p4927
aF0.15462402563955166
aa(lp4928
V\u53ea\u80a1
p4929
aF0.75411892142589121
aa(lp4930
V\u51b2\u950b
p4931
aF0.26502715894808609
aa(lp4932
V\u5f3a\u4e8e
p4933
aF0.31307631168944888
aa(lp4934
V\u9000\u5927\u5355
p4935
aF0.75411892142589121
aa(lp4936
V\u751f\u6d3b
p4937
aF0.75411892142589121
aa(lp4938
V\u671f\u95f4
p4939
aF0.30949184727965728
aa(lp4940
V\u5236\u7ea6
p4941
aF0.36331651637177159
aa(lp4942
V\u4f1a\u6765
p4943
aF0.82267518701006315
aa(lp4944
V\u8f6e\u6362
p4945
aF0.45247135285553475
aa(lp4946
V\u5473
aF1.1311783821388368
aa(lp4947
V\u5927\u9633\u7ebf
p4948
aF0.83562798765507473
aa(lp4949
V\u4e0d\u804a
p4950
aF0.64279075973467292
aa(lp4951
V\u5c31
aF0.58099189183193611
aa(lp4952
V\u79d1\u6280
p4953
aF0.31744594647241076
aa(lp4954
V\u65b0\u80a1
p4955
aF0.27373579107620133
aa(lp4956
V\u5b8c\u6210
p4957
aF0.24313038545639604
aa(lp4958
V\u5c81\u6708
p4959
aF0.41133759350503157
aa(lp4960
V\u529b\u91cf\u5bf9\u6bd4
p4961
aF0.30949184727965728
aa(lp4962
V\u524d\u671f
p4963
aF0.39042200847532738
aa(lp4964
V\u770b\u9ad8
p4965
aF0.20109837904690434
aa(lp4966
V\u5c55\u5f00
p4967
aF0.50874900649535437
aa(lp4968
V\u5c40\u9762
p4969
aF0.19279802273369051
aa(lp4970
V\u5143
aF0.21777027337814334
aa(lp4971
V\u5b9e\u529b
p4972
aF0.44343545228748821
aa(lp4973
V\u7ffb\u7eff
p4974
aF0.74399891446765931
aa(lp4975
V\u629b\u6ede
p4976
aF0.45247135285553475
aa(lp4977
V\u949b\u767d\u7c89
p4978
aF0.49834199852905264
aa(lp4979
V\u53ea\u60f3
p4980
aF0.18245554038073339
aa(lp4981
V\u8868\u73b0\u51fa\u8272
p4982
aF0.29191700184228048
aa(lp4983
V
aF0.24313038545639604
aa(lp4984
V\u6bd4
aF0.28767937466603072
aa(lp4985
V\u5757
aF0.39157837603561013
aa(lp4986
V\u59e5\u59e5
p4987
aF0.47750170723147128
aa(lp4988
V\u65f6\u8bc4
p4989
aF1.1937542680786781
aa(lp4990
V\u540c\u5fd7
p4991
aF2.0890699691376868
aa(lp4992
V\u8ba9\u6b65
p4993
aF0.4309250979576521
aa(lp4994
V\u5230\u4f4d
p4995
aF0.60468470766475668
aa(lp4996
V\u65e0
aF0.32347778889898232
aa(lp4997
V\u53ef\u6015
p4998
aF2.0890699691376868
aa(lp4999
V\u63a8\u9001
p5000
aF0.60329513714071292
aa(lp5001
V\u4e0d\u8001
p5002
aF1.5082378428517824
aa(lp5003
V\u516b\u5366
p5004
aF0.6463876469364781
aa(lp5005
V\u52aa\u529b
p5006
aF0.71035169080553806
aa(lp5007
V\u6869
aF1.3927133127584579
aa(lp5008
V\u8fdb\u573a
p5009
aF0.26208745954104379
aa(lp5010
V\u5389\u5bb3
p5011
aF0.30884856121979914
aa(lp5012
V\u5ddd\u91d1\u8bfa
p5013
aF0.56558919106941841
aa(lp5014
V\u8f6c\u8eab
p5015
aF0.60329513714071292
aa(lp5016
V\u6292\u60c5
p5017
aF0.75411892142589121
aa(lp5018
V\u519b\u5de5
p5019
aF0.7228013425856894
aa(lp5020
V\u51fa\u529b
p5021
aF0.22538625576443538
aa(lp5022
V\u6052\u751f\u6307\u6570
p5023
aF0.60329513714071292
aa(lp5024
V\u6881
aF2.2623567642776736
aa(lp5025
V\u89c6\u89d2
p5026
aF0.18245554038073339
aa(lp5027
V\u8981\u6c42
p5028
aF0.21350448097319083
aa(lp5029
V\u8f83\u91cf
p5030
aF0.16159691173411952
aa(lp5031
V\u6682\u6301
p5032
aF0.29093611890239091
aa(lp5033
V\u8fd9\u4e48
p5034
aF1.231811059842906
aa(lp5035
V\u4e00\u5c0f
p5036
aF0.2445791096516404
aa(lp5037
V\u6b32\u671b
p5038
aF0.6463876469364781
aa(lp5039
V\u521a\u8fdb
p5040
aF0.90494270571106949
aa(lp5041
V\u5218
aF0.82267518701006315
aa(lp5042
V\u7ea7\u522b
p5043
aF1.1507180382212729
aa(lp5044
V\u6211\u4eec
p5045
aF0.23161407463259709
aa(lp5046
V\u770b\u597d
p5047
aF1.4120574188621347
aa(lp5048
V\u96be\u9898
p5049
aF0.3770594607129456
aa(lp5050
V\u6da8\u80a1
p5051
aF0.45247135285553475
aa(lp5052
V\u59d4\u6258
p5053
aF0.49154587509122044
aa(lp5054
V\u4e09\u56db\u4e2a
p5055
aF0.41133759350503157
aa(lp5056
V\u6162\u6162\u6765
p5057
aF0.36197708228442776
aa(lp5058
V\u8bdd\u7b52
p5059
aF1.1937542680786781
aa(lp5060
V\u592e\u5988
p5061
aF0.58947174584544637
aa(lp5062
V\u7834
aF0.61590552992145298
aa(lp5063
V\u4e00
aF0.43508073155731752
aa(lp5064
V\u594b\u6597
p5065
aF0.30676023922409135
aa(lp5066
V\u6218\u9e70
p5067
aF0.75411892142589121
aa(lp5068
V\u6982\u5ff5\u80a1
p5069
aF1.2894016897500167
aa(lp5070
V\u4e0d\u76f8\u4e0a\u4e0b
p5071
aF0.69610977362389959
aa(lp5072
V\u7b49\u7ea7
p5073
aF1.2771887826651338
aa(lp5074
V\u4f4e\u4ef7\u80a1
p5075
aF0.3770594607129456
aa(lp5076
V\u4e00\u5c42
p5077
aF0.3770594607129456
aa(lp5078
V\u8df3\u4e0a\u53bb
p5079
aF0.25855505877459128
aa(lp5080
V\u6258\u4f4f
p5081
aF0.3770594607129456
aa(lp5082
V\u9634\u661f
p5083
aF0.32347778889898232
aa(lp5084
V\u805a\u96c6
p5085
aF0.3770594607129456
aa(lp5086
V\u9ad8\u94c1
p5087
aF0.35509694547982357
aa(lp5088
V\u628a\u6301
p5089
aF0.60329513714071292
aa(lp5090
V\u7edd\u671b
p5091
aF0.58383400368456095
aa(lp5092
V\u8f6c\u624b
p5093
aF0.15338011961204567
aa(lp5094
V\u5177\u4f53\u5206\u6790
p5095
aF0.4309250979576521
aa(lp5096
V\u5927\u54e5
p5097
aF0.54833205299604026
aa(lp5098
V\u770b\u5934
p5099
aF1.3927133127584579
aa(lp5100
V\u62a2\u773c
p5101
aF0.47628563458477335
aa(lp5102
V\u5f31
aF0.30795276496072649
aa(lp5103
V\u6563\u6237
p5104
aF0.21753023745315792
aa(lp5105
V\u91cf\u91cf
p5106
aF0.34805488681194979
aa(lp5107
V\u79d1\u6155
p5108
aF0.27054505980642157
aa(lp5109
V\u80a1\u8bc4
p5110
aF0.24483362515346233
aa(lp5111
V\u8f66
aF0.51711011754918257
aa(lp5112
V\u56de\u64a4
p5113
aF0.3391660043302363
aa(lp5114
V\u6709\u70b9\u50cf
p5115
aF0.25137297380863038
aa(lp5116
V\u6587\u65c5
p5117
aF0.36197708228442776
aa(lp5118
V\u70ef
aF0.53231923865357023
aa(lp5119
V\u770b\u591a
p5120
aF0.46466570102872384
aa(lp5121
V\u80a1\u53cb
p5122
aF0.53005431789617219
aa(lp5123
V\u90a3\u6da8
p5124
aF0.30164756857035646
aa(lp5125
V\u9ad8\u540e
p5126
aF0.19254100121512116
aa(lp5127
V\u8fd9\u91cc
p5128
aF0.20246850940800473
aa(lp5129
V\u4e0a\u6f14
p5130
aF0.29792184694671625
aa(lp5131
V\u8fc7\u591c
p5132
aF0.90494270571106949
aa(lp5133
V\u96be\u7834
p5134
aF0.25855505877459128
aa(lp5135
V\u6d88\u8017
p5136
aF0.22623567642776737
aa(lp5137
V\u5de8\u5934
p5138
aF0.46423777091948593
aa(lp5139
V\u6709\u6548
p5140
aF1.3959227885777419
aa(lp5141
V\u505a\u597d
p5142
aF1.2968955399298316
aa(lp5143
V\u83dc
aF1.9661835003648818
aa(lp5144
V\u5417
aF0.97500795744301139
aa(lp5145
V\u964d\u683c
p5146
aF0.26955741537260475
aa(lp5147
V\u5f00\u62c9\u91d1\u8bc1
p5148
aF0.23814281729238668
aa(lp5149
V\u5f3a\u70c8\u63a8\u8350
p5150
aF0.53231923865357023
aa(lp5151
V\u600e\u6837
p5152
aF1.0445349845688434
aa(lp5153
V\u9f50\u9f50
p5154
aF0.12065902742814261
aa(lp5155
V\u591a\u53d1
p5156
aF0.23814281729238668
aa(lp5157
V\u8fde\u8fde
p5158
aF0.55708532510338316
aa(lp5159
V\u5c0f\u767d\u9f99
p5160
aF0.42090358405166023
aa(lp5161
V\u8d76\u7d27
p5162
aF0.66256789737021526
aa(lp5163
V\u731c
aF0.63606518147540669
aa(lp5164
V\u8fc7\u5927
p5165
aF0.312049208865886
aa(lp5166
V\u6ee1\u4ed3
p5167
aF1.2672700937147015
aa(lp5168
V\u534a\u58c1\u6c5f\u5c71
p5169
aF0.2445791096516404
aa(lp5170
V\u5411\u65e5\u8475
p5171
aF0.38866418030468591
aa(lp5172
V\u7269\u6d41
p5173
aF0.23814281729238668
aa(lp5174
V\u5f00\u8bbe
p5175
aF0.32319382346823905
aa(lp5176
V\u8bbe\u5907
p5177
aF0.21488688563358335
aa(lp5178
V\u603b\u6bd4
p5179
aF0.22071773310026085
aa(lp5180
V\u52a0\u5927
p5181
aF0.42572959422171125
aa(lp5182
V\u9886\u5934\u7f8a
p5183
aF1.2927752938729562
aa(lp5184
V\u7b49
aF0.269858731688636
aa(lp5185
V\u8981\u8bf4
p5186
aF0.75411892142589121
aa(lp5187
V\u664b
aF0.59687713403933906
aa(lp5188
V\u6293\u5230
p5189
aF1.2927752938729562
aa(lp5190
V\u7535\u5e7f
p5191
aF0.47628563458477335
aa(lp5192
V\u70b9\u5927
p5193
aF0.36197708228442776
aa(lp5194
V\u5e72\u561b
p5195
aF0.6463876469364781
aa(lp5196
V\u5408\u5e76
p5197
aF0.4309250979576521
aa(lp5198
V\u4e2d\u9896
p5199
aF0.6463876469364781
aa(lp5200
V\u5457
aF0.6463876469364781
aa(lp5201
V\u6709\u5c0f\u5206
p5202
aF0.82267518701006315
aa(lp5203
V\u679c\u7136
p5204
aF0.67468419641166477
aa(lp5205
V\u5982\u82e5
p5206
aF0.53231923865357023
aa(lp5207
V\u6587\u5316\u90e8
p5208
aF0.26068245142434704
aa(lp5209
V\u6beb\u65e0
p5210
aF0.41781399382753737
aa(lp5211
V\u65b0\u8054
p5212
aF0.41133759350503157
aa(lp5213
V\u7acb\u514b
p5214
aF0.32629535617973687
aa(lp5215
V\u4e2a\u70b9\u957f
p5216
aF0.50274594761726077
aa(lp5217
V\u4ea4\u53c9
p5218
aF0.13115111676972022
aa(lp5219
V\u8f7b\u8f7b\u5730
p5220
aF0.88342386316028698
aa(lp5221
V\u63a8\u4e0a\u53bb
p5222
aF1.0054918952345215
aa(lp5223
V\u5df2
aF0.85784351705532436
aa(lp5224
V\u7edd\u4e0d\u4f1a
p5225
aF0.22623567642776737
aa(lp5226
V\u4e0d\u5f97\u800c\u77e5
p5227
aF0.26615961932678511
aa(lp5228
V\u61c2
aF1.1358306812060832
aa(lp5229
V\u5951\u7ea6\u578b
p5230
aF0.25240681804579629
aa(lp5231
V\u589e\u52a0
p5232
aF0.34537489569192636
aa(lp5233
V\u516c\u5f00\u5e02\u573a
p5234
aF0.22752553332102304
aa(lp5235
V\u4e0a\u8f66
p5236
aF0.37861022706869446
aa(lp5237
V\u5065\u6c11
p5238
aF2.2623567642776736
aa(lp5239
V\u6e2f\u901a
p5240
aF1.0646384773071405
aa(lp5241
V\u6c47\u5f00\u677f
p5242
aF0.47628563458477335
aa(lp5243
V\u7387\u5148
p5244
aF0.24093378086189648
aa(lp5245
V\u54fc\u54fc
p5246
aF0.7663132695990803
aa(lp5247
V\u8bc1\u660e
p5248
aF0.20786036825976009
aa(lp5249
V\u8001\u91d1
p5250
aF0.18245554038073339
aa(lp5251
V\u5c0f\u767d
p5252
aF0.49154587509122044
aa(lp5253
V\u5b9e\u9645\u4e0a
p5254
aF0.25855505877459128
aa(lp5255
V\u51cf\u70b9
p5256
aF0.1856951083677944
aa(lp5257
V\u8fd9\u79cd
p5258
aF0.1737916823214935
aa(lp5259
V\u627f\u63a5
p5260
aF0.38198250462540206
aa(lp5261
V\u4e09\u89c2
p5262
aF0.82267518701006315
aa(lp5263
V\u6c5f\u897f
p5264
aF0.36197708228442776
aa(lp5265
V\u4e00\u5927\u5806
p5266
aF0.69610977362389959
aa(lp5267
V\u516d\u5927
p5268
aF0.29191700184228048
aa(lp5269
V\u770b\u4e0d\u5230
p5270
aF0.21990210201449334
aa(lp5271
V\u80a5
aF0.92847554183897185
aa(lp5272
V\u53cd\u590d
p5273
aF0.61049880779442534
aa(lp5274
V\u5b89\u6170
p5275
aF0.22584540206893913
aa(lp5276
V\u6301\u7eed
p5277
aF0.34351444766279071
aa(lp5278
V\u5927\u8fde\u6e2f
p5279
aF0.15766565804812729
aa(lp5280
V\u5f3a\u8c03
p5281
aF0.92999864308457414
aa(lp5282
V\u633a\u4e0d\u9519
p5283
aF0.13307980966339256
aa(lp5284
V\u5934
aF1.809885411422139
aa(lp5285
V\u4fe1\u6258
p5286
aF0.25240681804579629
aa(lp5287
V\u652f\u63f4
p5288
aF0.2445791096516404
aa(lp5289
V\u4e0b
aF1.1430225606581219
aa(lp5290
V\u5f98\u5f8a
p5291
aF0.31555076469054949
aa(lp5292
V\u7740
aF0.58252939637115264
aa(lp5293
V\u4e0b\u632b
p5294
aF0.92847554183897185
aa(lp5295
V\u7528\u6237
p5296
aF0.69635665637922894
aa(lp5297
V\u5355\u72ec
p5298
aF0.29191700184228048
aa(lp5299
V\u957f\u56ed
p5300
aF0.33516396507817386
aa(lp5301
V\u638c\u58f0
p5302
aF1.0054918952345215
aa(lp5303
V\u5145\u88d5
p5304
aF0.49154587509122044
aa(lp5305
V\u505a
aF0.32137251718504023
aa(lp5306
V\u8db4\u7740
p5307
aF0.14667047748079667
aa(lp5308
V\u80d6\u54e5
p5309
aF0.72576675878826391
aa(lp5310
V\u662f\u56e0\u4e3a
p5311
aF0.24799963815588644
aa(lp5312
V\u53d1\u6253
p5313
aF0.60329513714071292
aa(lp5314
V\u4e3a
aF0.32146163200480887
aa(lp5315
V\u8bf4\u4e2a
p5316
aF0.22623567642776737
aa(lp5317
V\u4e00\u65f6\u534a\u4f1a
p5318
aF0.3770594607129456
aa(lp5319
V\u80cc\u540e
p5320
aF0.3770594607129456
aa(lp5321
V\u51c6\u70b9
p5322
aF0.92847554183897185
aa(lp5323
V\u56db\u70b9
p5324
aF0.43980420402898668
aa(lp5325
V\u51c0\u5229
p5326
aF0.54833205299604026
aa(lp5327
V\u54ed
aF0.23221614230275162
aa(lp5328
V\u4e4b\u524d
p5329
aF0.69038331656181651
aa(lp5330
V\u8be5\u56fe
p5331
aF0.3614006712928447
aa(lp5332
V\u6c34\u6ce5
p5333
aF0.92999864308457414
aa(lp5334
V\u4fee\u8ba2
p5335
aF0.39791808935955936
aa(lp5336
V\u4e49\u52a1
p5337
aF0.41781399382753737
aa(lp5338
V\U0001f601
aF1.2855815194693458
aa(lp5339
V\u6982\u7387
p5340
aF0.85960112650001108
aa(lp5341
V\u6025\u6da8
p5342
aF0.19425362810592228
aa(lp5343
V\u56fd\u9632
p5344
aF0.56558919106941841
aa(lp5345
V\u5468\u7ebf
p5346
aF0.48384450585884259
aa(lp5347
V\u957f\u9634
p5348
aF0.60329513714071292
aa(lp5349
V\u7ea0\u7f20
p5350
aF0.22623567642776737
aa(lp5351
V\u6ce2\u6bb5
p5352
aF0.48587926935354103
aa(lp5353
V\u4e24\u4efd
p5354
aF0.2445791096516404
aa(lp5355
V\u7696
aF0.41133759350503157
aa(lp5356
V\u8702\u871c
p5357
aF0.2445791096516404
aa(lp5358
V\u803d\u8bef
p5359
aF0.22071773310026085
aa(lp5360
V\u62a5\u6536
p5361
aF0.24577293754561022
aa(lp5362
V\u4e4b\u52bf
p5363
aF0.3770594607129456
aa(lp5364
V\u7e41\u661f
p5365
aF0.67032793015634773
aa(lp5366
V\u8bf1\u5230
p5367
aF0.15338011961204567
aa(lp5368
V\u6025
aF0.26153493061962135
aa(lp5369
V\u94a2\u94c1
p5370
aF0.4024932793278822
aa(lp5371
V\u8d27
aF0.47628563458477335
aa(lp5372
V\u84c4\u52bf
p5373
aF0.40999914796652104
aa(lp5374
V\u7279\u5f81
p5375
aF0.75411892142589121
aa(lp5376
V\u9ad8\u5cf0\u8bba\u575b
p5377
aF0.35487949243571348
aa(lp5378
V\u6307\u5bfc
p5379
aF0.30999954769485805
aa(lp5380
V\u98de\u62b5
p5381
aF0.15876187819492446
aa(lp5382
V\u5bbd\u5e45
p5383
aF0.24846296151383074
aa(lp5384
V\u8c22\u5e55
p5385
aF2.4799963815588644
aa(lp5386
V\u5c34\u5c2c
p5387
aF0.56791534060304161
aa(lp5388
V\u622a\u6b62
p5389
aF0.40999914796652104
aa(lp5390
V\u5c0f\u76d8
p5391
aF0.42826265498590466
aa(lp5392
V\u4e4b\u529b
p5393
aF0.33516396507817386
aa(lp5394
V\u4e0b\u63a2
p5395
aF0.25378527702868425
aa(lp5396
V\u90c1\u95f7
p5397
aF0.92847554183897185
aa(lp5398
V\u77eb\u60c5
p5399
aF0.41133759350503157
aa(lp5400
V\u5c3e\u58f0
p5401
aF0.82267518701006315
aa(lp5402
V\u5c45\u7136
p5403
aF0.41133759350503157
aa(lp5404
V\u652f\u6301
p5405
aF0.23485492907050995
aa(lp5406
V\u66b4\u98ce
p5407
aF1.4515335175765278
aa(lp5408
V\u6302\u5355
p5409
aF0.64279075973467292
aa(lp5410
V\u6536\u6da8
p5411
aF0.55708532510338316
aa(lp5412
V\u5b88\u4f4f
p5413
aF0.19463242348255458
aa(lp5414
V\u53d8
aF0.67636264951605396
aa(lp5415
V\u7f29\u53e3
p5416
aF0.26615961932678511
aa(lp5417
V\u5f71\u54cd
p5418
aF0.23094004539167604
aa(lp5419
V\u4f01\u7a33\u540e
p5420
aF0.39157837603561013
aa(lp5421
V\u5747\u4ef7
p5422
aF0.39754073842212923
aa(lp5423
V\u6025\u8dcc
p5424
aF0.19672667515458031
aa(lp5425
V\u52a0\u7801
p5426
aF1.4515335175765278
aa(lp5427
V\u6709\u6ca1\u6709
p5428
aF0.66515317843123234
aa(lp5429
V\u80a1\u6307
p5430
aF0.74275420791437641
aa(lp5431
V\u51cf
aF0.59687713403933906
aa(lp5432
V\u8bd5\u8bd5
p5433
aF0.65978796253478544
aa(lp5434
V\u6311\u6218
p5435
aF0.34568759862793841
aa(lp5436
V\u8d85\u7ea7
p5437
aF0.30160361393717011
aa(lp5438
V\u6211\u4f1a
p5439
aF0.80640750976473763
aa(lp5440
V\u8fd9\u70b9
p5441
aF0.29334095496159335
aa(lp5442
V\u738b\u5927\u5f6c
p5443
aF0.24940298844804454
aa(lp5444
V\u4f01\u7a33
p5445
aF0.33824005608651925
aa(lp5446
V\u5e76\u4e0d\u5927
p5447
aF0.2742250623366877
aa(lp5448
V\u8f7b
aF0.43764642027509371
aa(lp5449
V\u897f
aF0.62409841773177199
aa(lp5450
V\u7edf\u7edf
p5451
aF0.72395416456885553
aa(lp5452
V\u4e1c\u5357
p5453
aF0.47377348455496382
aa(lp5454
V\u771f\u725b
p5455
aF1.1937542680786781
aa(lp5456
V\u5c0f\u7968
p5457
aF0.2532206023197196
aa(lp5458
V\u5929\u5230
p5459
aF0.41133759350503157
aa(lp5460
V\u4e71\u4e03\u516b\u7cdf
p5461
aF0.26615961932678511
aa(lp5462
V\u653e\u6c34
p5463
aF0.58947174584544637
aa(lp5464
V\u592a\u68d2\u4e86
p5465
aF0.2742250623366877
aa(lp5466
V\u5f3a\u6709\u529b
p5467
aF0.13477870768630237
aa(lp5468
V\u8363\u5e78
p5469
aF0.36197708228442776
aa(lp5470
V\u51cc\u4e71
p5471
aF0.49692592302766148
aa(lp5472
V\u50cf\u662f
p5473
aF0.55708532510338316
aa(lp5474
V\u5929\u521b
p5475
aF0.30652530783963211
aa(lp5476
V\u770b\u7740
p5477
aF0.97888606853921056
aa(lp5478
V\u8f6c\u6362
p5479
aF0.74399891446765931
aa(lp5480
V\u4e24
aF0.1413972977673546
aa(lp5481
V\u4e91\u5357
p5482
aF0.53005431789617219
aa(lp5483
V\u6240\u4ee5
p5484
aF0.16402668666930104
aa(lp5485
V\u4e0d\u8dcc
p5486
aF1.062855592096656
aa(lp5487
V\u7a33\u4f4f
p5488
aF0.31533131609625459
aa(lp5489
V\u4e8e\u662f
p5490
aF0.32319382346823905
aa(lp5491
V\u7eaf
aF0.83562798765507473
aa(lp5492
V\u56de\u8865\u540e
p5493
aF0.56558919106941841
aa(lp5494
V\u89c4\u907f
p5495
aF0.29843856701966953
aa(lp5496
V\u8d8a\u662f
p5497
aF0.39345335030916062
aa(lp5498
V\u9634
aF0.23211888545974296
aa(lp5499
V\u62a4\u76d8
p5500
aF0.64783902580472141
aa(lp5501
V\u767d\u773c
p5502
aF1.0054918952345215
aa(lp5503
V\u4ed3\u8981
p5504
aF1.1311783821388368
aa(lp5505
V\u5e0c\u671b
p5506
aF0.32891505409866234
aa(lp5507
V\u653e
aF0.93778862961752762
aa(lp5508
V\u80a1\u65e0
p5509
aF0.39345335030916062
aa(lp5510
V\u4e00\u7247
p5511
aF0.312049208865886
aa(lp5512
V\u5448
aF0.30949184727965728
aa(lp5513
V\u56de\u5f52
p5514
aF0.22875022973106873
aa(lp5515
V\u53c8\u4f1a\u6709
p5516
aF0.30164756857035646
aa(lp5517
V\u4e0d\u6da8
p5518
aF0.48283371806699332
aa(lp5519
V\u5bb3\u6015
p5520
aF0.30999954769485805
aa(lp5521
V\u4e34\u8d70
p5522
aF0.39791808935955936
aa(lp5523
V\u7406\u89e3\u80fd\u529b
p5524
aF0.69610977362389959
aa(lp5525
V\u4e0d\u8db3
p5526
aF0.71465281836693628
aa(lp5527
V\u5e26\u52a8
p5528
aF0.29562158384220533
aa(lp5529
V\u534a\u6b7b\u4e0d\u6d3b
p5530
aF0.83562798765507473
aa(lp5531
V\u4e2d\u91d1
p5532
aF0.19895904467977968
aa(lp5533
V\u84dd\u7b79\u80a1
p5534
aF0.22623567642776737
aa(lp5535
V\u4ef7\u683c\u6bd4
p5536
aF0.41133759350503157
aa(lp5537
V\u8bb0\u4f4f
p5538
aF0.71035169080553806
aa(lp5539
V\u65e0\u4eae\u70b9
p5540
aF0.36197708228442776
aa(lp5541
V\u4e07\u7f8e\u5143
p5542
aF0.39345335030916062
aa(lp5543
V\u65e9
aF0.82666546051962142
aa(lp5544
V\u8c01\u52a8
p5545
aF1.1311783821388368
aa(lp5546
V\u63a2\u660e
p5547
aF0.20109837904690434
aa(lp5548
V\u7cbe\u795e\u9886\u8896
p5549
aF0.24577293754561022
aa(lp5550
V\u9a6c
aF0.3614006712928447
aa(lp5551
V\u4ecd\u7136
p5552
aF0.91576710392791916
aa(lp5553
V\u516c\u53f8
p5554
aF0.45984582099279397
aa(lp5555
V\u8e29\u4f4f
p5556
aF0.79508147684425845
aa(lp5557
V\u5148\u5403\u4e2a
p5558
aF0.69610977362389959
aa(lp5559
V\u65f6\u5019
p5560
aF0.14636119248286628
aa(lp5561
V\u7b49\u5019
p5562
aF0.2254542165053513
aa(lp5563
V\u5403\u60ca
p5564
aF0.69635665637922894
aa(lp5565
V\u770b\u4e00\u770b
p5566
aF0.25137297380863038
aa(lp5567
V\u535a\u5f08
p5568
aF0.37038932323105267
aa(lp5569
V\u6ca1\u5927
p5570
aF0.21546254897882605
aa(lp5571
V\u5341\u5206
p5572
aF0.25380414337777124
aa(lp5573
V\u699c
aF0.22584540206893913
aa(lp5574
V\u575a\u6301
p5575
aF0.62292749816131587
aa(lp5576
V\u5348
aF0.90494270571106949
aa(lp5577
V\u5b9d\u7bb1
p5578
aF0.21546254897882605
aa(lp5579
V\u72ee\u5b50
p5580
aF0.41846393518118857
aa(lp5581
V\u54c8\u54c8
p5582
aF1.585344214002121
aa(lp5583
V\u4ec5\u4f9b
p5584
aF0.66256789737021526
aa(lp5585
V\u5996
aF0.2839576703015208
aa(lp5586
V\u539f\u6587
p5587
aF0.2742250623366877
aa(lp5588
V\u4e2d\u56fd\u4eba\u6c11\u94f6\u884c
p5589
aF0.26615961932678511
aa(lp5590
V\u561f
aF0.82267518701006315
aa(lp5591
V\u7ebf\u56de
p5592
aF0.22071773310026085
aa(lp5593
V\u559d\u8336
p5594
aF0.60329513714071292
aa(lp5595
V\u6ca1\u6709\u652f\u6491
p5596
aF0.75411892142589121
aa(lp5597
V\u76d8\u5c3d
p5598
aF0.82267518701006315
aa(lp5599
V\u8fb9\u9645
p5600
aF0.39345335030916062
aa(lp5601
V\u7948\u7977
p5602
aF0.26615961932678511
aa(lp5603
V\u6536\u4e8e
p5604
aF0.35558637772556373
aa(lp5605
V\u6052\u6307
p5606
aF0.60329513714071292
aa(lp5607
V\u65af\u8bfa
p5608
aF0.90494270571106949
aa(lp5609
V\u575a\u633a
p5610
aF0.34568759862793841
aa(lp5611
V\u4e2d\u56fd
p5612
aF0.31453785143371865
aa(lp5613
V\u603b
aF0.36469416022252149
aa(lp5614
V\u5f3a\u529b
p5615
aF0.88342386316028698
aa(lp5616
V\u611f\u8c22
p5617
aF0.83562798765507473
aa(lp5618
V\u5565\u610f\u601d
p5619
aF0.45247135285553475
aa(lp5620
V\u8499\u8349
p5621
aF1.2927752938729562
aa(lp5622
V\u5173\u952e\u6027
p5623
aF0.4309250979576521
aa(lp5624
V\u91d1\u77f3
p5625
aF0.39463982822529886
aa(lp5626
V\u5224\u65ad
p5627
aF0.25900890471060323
aa(lp5628
V\u540d\u6b21
p5629
aF0.36197708228442776
aa(lp5630
V\u5929\u72fc
p5631
aF1.2534419814826121
aa(lp5632
V\u8001\u5e08
p5633
aF0.29473587292272319
aa(lp5634
V\u63a7\u5236\u60c5\u7eea
p5635
aF0.312049208865886
aa(lp5636
V\u8be5\u80a1
p5637
aF0.60536947835567023
aa(lp5638
V\u4f60\u4eec
p5639
aF0.35449632650458873
aa(lp5640
V\u7834\u4f4d
p5641
aF0.32629535617973687
aa(lp5642
V\u5730\u5e73\u7ebf
p5643
aF0.82267518701006315
aa(lp5644
V\u8dcc\u52bf
p5645
aF0.27854266255169158
aa(lp5646
V\u5356\u51fa
p5647
aF0.69699855154308576
aa(lp5648
V\u661f\u671f\u56db
p5649
aF0.34568759862793841
aa(lp5650
V\u9e6d\u71d5
p5651
aF0.29759956578706376
aa(lp5652
V\u51b2\u9876
p5653
aF0.53231923865357023
aa(lp5654
V\u4ef7\u6708\u7ebf
p5655
aF0.83562798765507473
aa(lp5656
V\u6025\u62c9
p5657
aF0.36288337939413196
aa(lp5658
V\u4e92\u91d1
p5659
aF1.809885411422139
aa(lp5660
V\u5fae\u8f6f
p5661
aF0.37861022706869446
aa(lp5662
V\u7ed9\u9762\u5b50
p5663
aF0.92847554183897185
aa(lp5664
V\u9510\u53d8
p5665
aF0.39345335030916062
aa(lp5666
V\u4e0d\u4eba\u8a00\u4ea6\u8a00
p5667
aF0.53231923865357023
aa(lp5668
V\u63a5\u7740
p5669
aF0.23411830928653674
aa(lp5670
V\u591a\u8c22
p5671
aF0.90494270571106949
aa(lp5672
V\u5dee
aF0.20320457961716532
aa(lp5673
V\u6d77\u5357
p5674
aF0.46423777091948593
aa(lp5675
V\u5c0f\u599e
p5676
aF1.1311783821388368
aa(lp5677
V\u4e00\u4f1a\u513f
p5678
aF0.75722045413738892
aa(lp5679
V\u533a\u57df
p5680
aF0.86459702661988758
aa(lp5681
V\u6574\u6570\u5173
p5682
aF0.56558919106941841
aa(lp5683
V\u8f83\u5f31
p5684
aF0.27577764376615294
aa(lp5685
V\u4ffa
aF0.5064412046394392
aa(lp5686
V\u62fc
aF0.33516396507817386
aa(lp5687
V\u660e\u767d
p5688
aF0.32519881312864019
aa(lp5689
V\u5206\u6790
p5690
aF0.49115040656074249
aa(lp5691
V\u5927\u5bb6
p5692
aF0.792366144375662
aa(lp5693
V\u6bd4\u6caa\u6307
p5694
aF0.23814281729238668
aa(lp5695
V\u9006
aF0.88342386316028698
aa(lp5696
V\u4e11\u95fb
p5697
aF0.26615961932678511
aa(lp5698
V\u76f8\u4fe1
p5699
aF0.46317697854636836
aa(lp5700
V\u7ea2\u5c0f\u5175
p5701
aF0.2532206023197196
aa(lp5702
V\u5236\u670d
p5703
aF0.25220302185344384
aa(lp5704
V\u5546\u54c1\u4ef7\u683c
p5705
aF0.2445791096516404
aa(lp5706
V\u504f\u5f3a
p5707
aF0.23875085361573564
aa(lp5708
V\u7b97
aF0.92635395709273671
aa(lp5709
V\u9ad8
aF0.7088191042356663
aa(lp5710
V\u805a\u9996
p5711
aF0.47628563458477335
aa(lp5712
V\u7a00\u571f
p5713
aF0.21045179202583011
aa(lp5714
V\u70e6
aF0.2445791096516404
aa(lp5715
V\u4e2d\u575a
p5716
aF0.55708532510338316
aa(lp5717
V\u5927\u5b97
p5718
aF0.32347778889898232
aa(lp5719
V\u4f53\u4f1a
p5720
aF0.47628563458477335
aa(lp5721
V\u9891\u9053
p5722
aF0.92847554183897185
aa(lp5723
V\u884c\u60c5
p5724
aF0.19366981430096239
aa(lp5725
V\u8d85\u5343\u80a1
p5726
aF0.36197708228442776
aa(lp5727
V\u840c\u840c
p5728
aF0.90494270571106949
aa(lp5729
V\u7b2c
aF0.60329513714071292
aa(lp5730
V\u80fd\u529b
p5731
aF0.69699855154308576
aa(lp5732
V\u7741\u5927\u773c\u775b
p5733
aF0.39345335030916062
aa(lp5734
V\u592e\u6539
p5735
aF0.20890699691376868
aa(lp5736
V\u4e09\u8fde\u677f
p5737
aF0.34805488681194979
aa(lp5738
V\u8d5a\u70b9
p5739
aF0.58947174584544637
aa(lp5740
V\u540c\u5b66
p5741
aF0.56791534060304161
aa(lp5742
V\u4e00\u5339
p5743
aF1.0054918952345215
aa(lp5744
V\u62bd
aF0.34849927577154288
aa(lp5745
V\u4e70\u76d8
p5746
aF0.69699855154308576
aa(lp5747
V\u5bf9\u6297
p5748
aF0.6463876469364781
aa(lp5749
V\u5176\u4ed6
p5750
aF0.28703148033561648
aa(lp5751
V\u5fc3\u91cc
p5752
aF0.59195974233794835
aa(lp5753
V\u81ea\u5f39\u81ea\u5531
p5754
aF0.47628563458477335
aa(lp5755
V\u7a0d
aF0.73905908714581359
aa(lp5756
V\u731c\u731c
p5757
aF0.69610977362389959
aa(lp5758
V\u82f1\u5a01\u817e
p5759
aF0.39345335030916062
aa(lp5760
V\u5b87\u5b99
p5761
aF0.2742250623366877
aa(lp5762
V\u6df1\u6df1\u5b9d
p5763
aF0.28414067632221524
aa(lp5764
V\u7537\u5b69
p5765
aF0.83562798765507473
aa(lp5766
V\u9006\u5e02
p5767
aF0.2445791096516404
aa(lp5768
V\u53cb\u8bf4
p5769
aF0.39345335030916062
aa(lp5770
V\u8001\u9f99
p5771
aF0.31555076469054949
aa(lp5772
V\u8d63\u950b
p5773
aF0.82267518701006315
aa(lp5774
V\u4f1a\u8bae
p5775
aF0.74399891446765931
aa(lp5776
V\u5df4\u54e5
p5777
aF0.17302300336457194
aa(lp5778
V\u5316\u7ea4
p5779
aF0.37983090347957943
aa(lp5780
V\u5f71\u7a7a
p5781
aF0.39345335030916062
aa(lp5782
V\u57fa\u8c03
p5783
aF0.13056687307110543
aa(lp5784
V\u5973\u5deb
p5785
aF1.1311783821388368
aa(lp5786
V\u96c6\u6210\u7535\u8def
p5787
aF0.43980420402898668
aa(lp5788
V\u63a5\u56de
p5789
aF0.46466570102872384
aa(lp5790
V\u8bf7
aF0.16195975645118035
aa(lp5791
V\u8f6f\u4ef6
p5792
aF0.64577426436867091
aa(lp5793
V\u54c8\u54c8\u54c8
p5794
aF0.67636264951605396
aa(lp5795
V\u661f\u661f
p5796
aF0.45247135285553475
aa(lp5797
V\u8001\u6ed1\u5934
p5798
aF0.15964859783314173
aa(lp5799
V\u72b9\u8c6b
p5800
aF0.49785610824506121
aa(lp5801
V\u5fae\u4e0b
p5802
aF0.22085596579007175
aa(lp5803
V\u6574\u6570\u500d
p5804
aF0.49154587509122044
aa(lp5805
V\u4e0d\u62d8\u4e00\u683c
p5806
aF0.60329513714071292
aa(lp5807
V\u4e0d\u8db3\u4e3a\u5947
p5808
aF0.14835126323132286
aa(lp5809
V\u6c47\u8d85
p5810
aF0.19254100121512116
aa(lp5811
V\u65b0\u80fd\u6e90
p5812
aF0.49270605809720908
aa(lp5813
V\u7334\u5b50
p5814
aF1.3927133127584579
aa(lp5815
V\u65e0\u803b
p5816
aF0.23814281729238668
aa(lp5817
V\u9893\u52bf
p5818
aF0.32319382346823905
aa(lp5819
V\u8c8c\u4f3c
p5820
aF0.51840482770590279
aa(lp5821
V\u521d
aF0.29191700184228048
aa(lp5822
V\u505a\u5916
p5823
aF0.32319382346823905
aa(lp5824
V\u771f
aF1.6867104910291619
aa(lp5825
V\u6f14\u7ece
p5826
aF1.2096112646471064
aa(lp5827
V\u77f3\u6cb9
p5828
aF0.23755470658258296
aa(lp5829
V\u6df7\u6dc6
p5830
aF0.75411892142589121
aa(lp5831
V\u574f\u4e8b
p5832
aF0.17668477263205742
aa(lp5833
V\u8ba1\u7b97\u673a
p5834
aF0.53231923865357023
aa(lp5835
V\u672c\u6b21
p5836
aF0.34568759862793841
aa(lp5837
V\u591a\u6c1f\u591a
p5838
aF0.27416602649802013
aa(lp5839
V\u535a\u53cb
p5840
aF0.45169080413787827
aa(lp5841
V\u632f\u8361
p5842
aF1.5901629536885169
aa(lp5843
V\u65f6\u91cf
p5844
aF0.29191700184228048
aa(lp5845
V\u70b9\u4e0b\u4e2a
p5846
aF0.27854266255169158
aa(lp5847
V\u996d\u524d
p5848
aF0.17743974621785674
aa(lp5849
V\u52b2
aF0.30164756857035646
aa(lp5850
V\u53d1\u5e03\u516c\u544a
p5851
aF0.33128394868510763
aa(lp5852
V\u4eba
aF0.20320401078366612
aa(lp5853
V\u8282\u70b9
p5854
aF0.95789158699885035
aa(lp5855
V\u5317\u4fe1\u6e90
p5856
aF0.99571221649012243
aa(lp5857
V\u81ea\u5df1
p5858
aF0.15755392289092834
aa(lp5859
V\u80a1\u7968\u4ee3\u7801
p5860
aF0.83562798765507473
aa(lp5861
V\u8dcc\u4e0d\u52a8
p5862
aF0.22071773310026085
aa(lp5863
V\u5347
aF0.39463982822529886
aa(lp5864
V\u6562\u6b7b\u961f
p5865
aF0.69610977362389959
aa(lp5866
V\u65ed\u5149
p5867
aF0.41133759350503157
aa(lp5868
V\u4e13\u5bb6
p5869
aF0.74399891446765931
aa(lp5870
V\u4f4f
aF0.78460479185886411
aa(lp5871
V\u4e24\u80a1
p5872
aF0.59687713403933906
aa(lp5873
V\u51f8\u663e
p5874
aF0.37482455356203598
aa(lp5875
V\u5b57
aF0.23795631435680786
aa(lp5876
V\u5c3e\u76d8
p5877
aF0.29746404198042742
aa(lp5878
V\u8001\u5f20
p5879
aF0.39463982822529886
aa(lp5880
V\u98ce\u9669\u7cfb\u6570
p5881
aF0.34849927577154288
aa(lp5882
V\u62c9\u8bfa
p5883
aF1.1311783821388368
aa(lp5884
V\u6628\u5929\u4e0b\u5348
p5885
aF0.42572959422171125
aa(lp5886
V\u7c89\u7ebf
p5887
aF0.50274594761726077
aa(lp5888
V\u65e0\u804a
p5889
aF0.46423777091948593
aa(lp5890
V\u4e0d\u6c42
p5891
aF0.69610977362389959
aa(lp5892
V\u7406\u8bba
p5893
aF0.55828212214481843
aa(lp5894
V\u771f\u6b63
p5895
aF0.30878465236424557
aa(lp5896
V\u677f
aF2.3678389693517934
aa(lp5897
V\u767d\u5934
p5898
aF0.34805488681194979
aa(lp5899
V\u8fdb\u53ef\u653b
p5900
aF0.20109837904690434
aa(lp5901
V\u540e\u96c5\u6ea5
p5902
aF0.26615961932678511
aa(lp5903
V\u4e0d\u4fe1
p5904
aF0.28814758195002577
aa(lp5905
V\u58f3
aF0.37199945723382966
aa(lp5906
V\u81ea\u7136
p5907
aF0.3606422357776039
aa(lp5908
V\u6342\u4f4f
p5909
aF0.25855505877459128
aa(lp5910
V\u4e00\u500d
p5911
aF0.33516396507817386
aa(lp5912
V\u6210
aF0.21044930470830442
aa(lp5913
V\u53d7\u5236\u4e8e
p5914
aF0.99571221649012243
aa(lp5915
V\u5174\u594b
p5916
aF0.18245554038073339
aa(lp5917
V\u652f\u4ed8
p5918
aF0.36469557818459408
aa(lp5919
V\u529b
aF0.43763469382151293
aa(lp5920
V\u4e0b\u8dcc
p5921
aF0.7677959667700629
aa(lp5922
V\u5f62\u5bb9
p5923
aF0.25855505877459128
aa(lp5924
V\u5f88\u96be
p5925
aF0.40320375488236881
aa(lp5926
V\u5316\u5de5
p5927
aF0.44171193158014349
aa(lp5928
V\u9759\u9759\u7684
p5929
aF0.56558919106941841
aa(lp5930
V\u591a\u4ee5
p5931
aF0.50274594761726077
aa(lp5932
V\u60f3\u5230
p5933
aF0.61898369455931457
aa(lp5934
V\u4ea7\u4e1a
p5935
aF0.26571389802416401
aa(lp5936
V\u5230
aF0.8288304557344528
aa(lp5937
V\u55b5
aF0.4509084330107026
aa(lp5938
V\u5207\u6362
p5939
aF0.32347778889898232
aa(lp5940
V\u62c9\u56de\u53bb
p5941
aF0.69610977362389959
aa(lp5942
V\u5341\u70b9
p5943
aF0.82267518701006315
aa(lp5944
V\u5927\u788d
p5945
aF0.24846296151383074
aa(lp5946
V\u6d17\u76d8
p5947
aF0.47661496066730674
aa(lp5948
V\u94f6\u62c9\u4e2d
p5949
aF0.41133759350503157
aa(lp5950
V\u884c\u9053
p5951
aF0.22071773310026085
aa(lp5952
V\u5f00\u6740
p5953
aF0.41133759350503157
aa(lp5954
V\u4e00\u4e2a\u70b9
p5955
aF0.33516396507817386
aa(lp5956
V\u9648
aF0.34058367537736906
aa(lp5957
V\u597d\u987f
p5958
aF0.31555076469054949
aa(lp5959
V\u554a
aF0.50136452004037235
aa(lp5960
V\u51b2\u9ad8
p5961
aF0.3334909369003991
aa(lp5962
V\u884c
aF0.42572959422171125
aa(lp5963
V\u4f4e
aF0.24223672188598641
aa(lp5964
V\u53d1\u7a3f
p5965
aF0.47628563458477335
aa(lp5966
V\u529b\u514b
p5967
aF1.5082378428517824
aa(lp5968
V\u5c0f\u788e\u9633
p5969
aF0.28550843665726977
aa(lp5970
V\u505c\u724c
p5971
aF0.33190407216337414
aa(lp5972
V\u65f6\u523b
p5973
aF0.62292749816131587
aa(lp5974
V\u65b0\u4f4e
p5975
aF0.27555515350654047
aa(lp5976
V\u65b0\u4e00\u8f6e
p5977
aF0.42692162281662582
aa(lp5978
V\u6709\u5927\u6da8
p5979
aF0.25137297380863038
aa(lp5980
V\u4f18\u8d28
p5981
aF0.41846393518118857
aa(lp5982
V\u770b\u76d8
p5983
aF2.0922794449569708
aa(lp5984
V\u6280\u5de7
p5985
aF0.55708532510338316
aa(lp5986
V\u5f00\u6765
p5987
aF0.19672667515458031
aa(lp5988
V\u4e3b\u529b
p5989
aF0.57208538647808171
aa(lp5990
V\u5e72\u70b9\u6d3b
p5991
aF0.69610977362389959
aa(lp5992
V\u9634\u67f1
p5993
aF0.27854266255169158
aa(lp5994
V\u6700\u4f73
p5995
aF0.55708532510338316
aa(lp5996
V\u6392\u884c
p5997
aF0.45247135285553475
aa(lp5998
V\u5f00\u677f
p5999
aF1.3527252990321079
aa(lp6000
V\u4eca\u5929\u4e0a\u5348
p6001
aF0.31803259073770335
aa(lp6002
V\u5982
aF0.24246188424317777
aa(lp6003
V\u591a\u4e48
p6004
aF0.3614006712928447
aa(lp6005
V\u6539\u9769\u65b9\u6848
p6006
aF0.21045179202583011
aa(lp6007
V\u6c47\u6e90
p6008
aF0.6463876469364781
aa(lp6009
V\u6392\u9664
p6010
aF0.36197708228442776
aa(lp6011
V\u8d5a\u5927\u94b1
p6012
aF0.34805488681194979
aa(lp6013
V\u5e16
aF0.36197708228442776
aa(lp6014
V\u54c8\u6b20
p6015
aF2.7854266255169158
aa(lp6016
V\u5f97\u7f6a
p6017
aF0.17074390673793763
aa(lp6018
V\u5b89\u5b89\u9759\u9759
p6019
aF0.2445791096516404
aa(lp6020
V\u7a7a\u95f4
p6021
aF0.25338894515825339
aa(lp6022
V\u4e0d\u4f73
p6023
aF0.25137297380863038
aa(lp6024
V\u521b
aF0.39895299340600349
aa(lp6025
V\u5927\u76d8
p6026
aF0.18875208233748797
aa(lp6027
V\u901a\u79d1\u6280
p6028
aF0.41133759350503157
aa(lp6029
V\u9884\u6d4b
p6030
aF0.53005011202204477
aa(lp6031
V\u8f7b\u6613
p6032
aF0.59687713403933906
aa(lp6033
V\u9762\u5305
p6034
aF0.3770594607129456
aa(lp6035
V\u6ca1\u4eba
p6036
aF1.1937542680786781
aa(lp6037
V\u6eda\u52a8
p6038
aF1.2927752938729562
aa(lp6039
V\u8d5e\u8d5e
p6040
aF0.52226749228442171
aa(lp6041
V\u6027
aF0.32422388498245791
aa(lp6042
V\u4eba\u5de5\u667a\u80fd
p6043
aF0.41333273025981071
aa(lp6044
V\u7b49\u5230
p6045
aF0.53231923865357023
aa(lp6046
V\u4e0d\u4f4f
p6047
aF0.72576675878826391
aa(lp6048
V\u5fc3\u614c
p6049
aF0.41133759350503157
aa(lp6050
V\u5468\u70af\u542b
p6051
aF0.66256789737021526
aa(lp6052
V\u7f51\u901f
p6053
aF0.15876187819492446
aa(lp6054
V\u5fae
aF0.20711169448623792
aa(lp6055
V\u610f\u613f
p6056
aF0.55708532510338316
aa(lp6057
V\u9633
aF0.43229851330994379
aa(lp6058
V\u51b2
aF0.67652541981479808
aa(lp6059
V\u7535
aF0.48191728315118909
aa(lp6060
V\u5bfb\u5e38\u8def
p6061
aF0.21488688563358335
aa(lp6062
V\u4e00\u70b9
p6063
aF0.49946172687466178
aa(lp6064
V\u6f2b\u957f
p6065
aF0.53231923865357023
aa(lp6066
V\u4e86\u7ed3
p6067
aF0.33738788039449658
aa(lp6068
V\u4e3a\u4ec0\u4e48
p6069
aF0.2054615380604268
aa(lp6070
V\u6216\u8005
p6071
aF0.2791845577155484
aa(lp6072
V\u9047
aF0.56558919106941841
aa(lp6073
V\u5206\u79bb
p6074
aF0.23814281729238668
aa(lp6075
V\u60ec\u610f
p6076
aF0.33516396507817386
aa(lp6077
V\u5c0f\u73a9
p6078
aF0.83562798765507473
aa(lp6079
V\u4ef7\u5c31\u7eed
p6080
aF0.75411892142589121
aa(lp6081
V\u6700\u8fd1
p6082
aF0.73924160514769299
aa(lp6083
V\u533a\u95f4
p6084
aF0.65710364902017149
aa(lp6085
V\u725b
aF2.2840674932581582
aa(lp6086
V\u80cc\u79bb
p6087
aF0.41097072793616884
aa(lp6088
V\u9ea6\u76ae
p6089
aF0.51711011754918257
aa(lp6090
V\u591a\u4e2a
p6091
aF0.25814761168262434
aa(lp6092
V\u8d22\u4e0d\u5165
p6093
aF0.41133759350503157
aa(lp6094
V\u5929\u9e45
p6095
aF0.41781399382753737
aa(lp6096
V\u996d
aF0.41781399382753737
aa(lp6097
V\u963b\u529b\u4f4d
p6098
aF0.79847885798035545
aa(lp6099
V\u4ed3\u5e93
p6100
aF0.69610977362389959
aa(lp6101
V\u53ef\u80fd
p6102
aF0.17280630944124725
aa(lp6103
V\u6df1\u5165
p6104
aF0.90494270571106949
aa(lp6105
V\u91cd\u4ed3
p6106
aF0.44978946427444316
aa(lp6107
V\u5077\u4e50
p6108
aF1.6712559753101495
aa(lp6109
V\u6655
aF0.42090358405166023
aa(lp6110
V\u5207\u83ab
p6111
aF0.75966180695915886
aa(lp6112
V\u4ef7\u4e0d
p6113
aF1.0054918952345215
aa(lp6114
V\u6536\u5728
p6115
aF0.35517584540276903
aa(lp6116
V\u4e0d\u4f1a
p6117
aF0.26762455216355463
aa(lp6118
V\u8d85\u524d
p6119
aF0.14736793646136159
aa(lp6120
V\u597d\u5934
p6121
aF1.0054918952345215
aa(lp6122
V\u5f00\u6237
p6123
aF0.39345335030916062
aa(lp6124
V\u9c7c\u5175
p6125
aF0.21045179202583011
aa(lp6126
V\u5206
aF0.36127158461880021
aa(lp6127
V\u9634\u6697
p6128
aF0.23814281729238668
aa(lp6129
V\u9006\u52bf\u4e0a\u6da8
p6130
aF0.33317968243438273
aa(lp6131
V\u6e29\u6c34
p6132
aF1.0054918952345215
aa(lp6133
V\u4e91\u5357\u94dc\u4e1a
p6134
aF0.43980420402898668
aa(lp6135
V\u963f\u5cf0
p6136
aF0.32347778889898232
aa(lp6137
V\u5148\u62c9
p6138
aF0.82267518701006315
aa(lp6139
V\u5305
aF0.55708532510338316
aa(lp6140
V\u53d1\u4e2a
p6141
aF0.47628563458477335
aa(lp6142
V\u8ffd\u6da8
p6143
aF0.23929723984937676
aa(lp6144
V\u961e
aF0.3614006712928447
aa(lp6145
V\u6b20
aF0.36197708228442776
aa(lp6146
V\u52a9\u529b
p6147
aF0.21990210201449334
aa(lp6148
V\u6b21\u65b0\u80a1
p6149
aF0.4071203691388009
aa(lp6150
V\u524d\u8981
p6151
aF0.60329513714071292
aa(lp6152
V\u4e07
aF0.21446109278248793
aa(lp6153
V\u5730
aF1.1358306812060832
aa(lp6154
V\u9ad8\u5f00\u51b2
p6155
aF0.38315663479954015
aa(lp6156
V\u7fa4\u96c4
p6157
aF0.29191700184228048
aa(lp6158
V\u4fe1\u606f\u5b89\u5168
p6159
aF0.53231923865357023
aa(lp6160
V\u51fa\u5c40
p6161
aF0.32855182451008574
aa(lp6162
V\u5e2e
aF0.49976952365157407
aa(lp6163
V\u54f2\u5b66
p6164
aF0.2742250623366877
aa(lp6165
V\u76f4\u64ad\u5ba4
p6166
aF1.0807462832748596
aa(lp6167
V\u5927\u51b3\u6218
p6168
aF0.90494270571106949
aa(lp6169
V\u9001\u51fa
p6170
aF0.57101687331453954
aa(lp6171
V\u5e26\u91cf
p6172
aF0.55033588941424572
aa(lp6173
V\u4ebf\u653e
p6174
aF0.69610977362389959
aa(lp6175
V\u770b\u5427
p6176
aF0.4309250979576521
aa(lp6177
V\u795e\u8bdd
p6178
aF0.29447462105342903
aa(lp6179
V\u62cd\u9a6c
p6180
aF0.90494270571106949
aa(lp6181
V\u5148\u6291
p6182
aF1.5082378428517824
aa(lp6183
V\u6bb5\u65f6\u95f4
p6184
aF0.27854266255169158
aa(lp6185
V\u76ee\u6807
p6186
aF0.27749945808837517
aa(lp6187
V\u8350
aF0.88342386316028698
aa(lp6188
V\u53d8\u76d8
p6189
aF0.45681349865163162
aa(lp6190
V\u4e0a\u62c9
p6191
aF0.56791534060304161
aa(lp6192
V\u817e\u8baf
p6193
aF0.36491108076146678
aa(lp6194
V\u9ad8\u79d1
p6195
aF0.82267518701006315
aa(lp6196
V\u770b\u7403
p6197
aF0.49154587509122044
aa(lp6198
V\u4ee5\u540e
p6199
aF0.3322488044381493
aa(lp6200
V\u5206\u65f6
p6201
aF0.81173303244631712
aa(lp6202
V\u84dd\u843d
p6203
aF0.98309175018244088
aa(lp6204
V\u6768
aF0.30652530783963211
aa(lp6205
V\u9898\u6750\u80a1
p6206
aF0.1530295220471086
aa(lp6207
V\u4fe1\u4e0a
p6208
aF0.49154587509122044
aa(lp6209
V\u9644\u52a0
p6210
aF0.50274594761726077
aa(lp6211
V\u4e00\u53ea
p6212
aF0.55230665324945327
aa(lp6213
V\u77f3
aF0.79508147684425845
aa(lp6214
V\u65e9\u4e0a
p6215
aF0.55033588941424572
aa(lp6216
V\u9876\u5e95
p6217
aF0.18468218483899376
aa(lp6218
V\u70b9\u949f
p6219
aF0.90494270571106949
aa(lp6220
V\u95f4\u63a5
p6221
aF0.4309250979576521
aa(lp6222
V\u6700\u9ad8\u4ef7
p6223
aF0.19361070876196826
aa(lp6224
V\u4e24\u6210
p6225
aF0.74278043347117761
aa(lp6226
V\u5a01
aF1.0054918952345215
aa(lp6227
V\u91d1\u94b0
p6228
aF0.90494270571106949
aa(lp6229
V\u5c11\u6d77
p6230
aF0.33516396507817386
aa(lp6231
V\u4e8c\u6b21
p6232
aF0.46499932154228707
aa(lp6233
V\u9e23\u9523
p6234
aF0.15876187819492446
aa(lp6235
V\u6709\u70b9\u7d2f
p6236
aF0.30164756857035646
aa(lp6237
V\u4e0b\u5f71\u7ebf
p6238
aF0.26571389802416401
aa(lp6239
V\u9ab0\u5b50
p6240
aF0.75411892142589121
aa(lp6241
V\u80a1\u662f
p6242
aF0.50274594761726077
aa(lp6243
V\u5934\u8111
p6244
aF0.39791808935955936
aa(lp6245
V\u6211
aF0.27879253198304005
aa(lp6246
V\u4f4d\u7834
p6247
aF0.41781399382753737
aa(lp6248
V\u5e26\u5165
p6249
aF0.47628563458477335
aa(lp6250
V\u665a\u5341\u70b9
p6251
aF0.2445791096516404
aa(lp6252
V\u4fe1\u4efb
p6253
aF0.3614006712928447
aa(lp6254
V\u699c\u524d
p6255
aF0.69610977362389959
aa(lp6256
V\u653e\u4e0d\u51fa
p6257
aF0.33317968243438273
aa(lp6258
V\u51b2\u540e
p6259
aF0.16159691173411952
aa(lp6260
V\u751f
aF0.26615961932678511
aa(lp6261
V\u4e2a\u4eba
p6262
aF0.24771775121972428
aa(lp6263
V\u8f83\u4e3a
p6264
aF0.4339129865214198
aa(lp6265
V\u533b\u836f
p6266
aF0.39463982822529886
aa(lp6267
V\u63a8\u8350
p6268
aF0.62491263986203827
aa(lp6269
V\u9752\u86d9
p6270
aF1.0054918952345215
aa(lp6271
V\u7d2f
aF1.5901629536885169
aa(lp6272
V\u7231
aF0.41572073651952018
aa(lp6273
V\u62c9
aF0.5104945320568679
aa(lp6274
V\u767d\u9886
p6275
aF0.56558919106941841
aa(lp6276
V\u4e3b\u5347
p6277
aF0.34849927577154288
aa(lp6278
V\u8f6f\u7ef5\u7ef5
p6279
aF0.47628563458477335
aa(lp6280
V\u53d1\u4e86
p6281
aF0.18468218483899376
aa(lp6282
V\u8d4c\u535a
p6283
aF0.24093378086189648
aa(lp6284
V\u4f20\u7edf
p6285
aF0.26502715894808609
aa(lp6286
V\u65b0\u4ed3
p6287
aF0.61160113603404498
aa(lp6288
V\u5403\u6389
p6289
aF0.21286479711085562
aa(lp6290
V\u7559\u610f
p6291
aF1.6411301018306734
aa(lp6292
V\u770b\u6708\u7ebf
p6293
aF0.66256789737021526
aa(lp6294
V\u8f7b\u677e
p6295
aF0.56791534060304161
aa(lp6296
V\u4ece
aF0.21215456465621871
aa(lp6297
V\u63d0
aF1.1358306812060832
aa(lp6298
V\u865a\u62df\u73b0\u5b9e
p6299
aF0.28314757113649103
aa(lp6300
V\u5957
aF1.2096112646471064
aa(lp6301
V\u7ecf\u5178
p6302
aF0.22584540206893913
aa(lp6303
V\u7fd8
aF0.312049208865886
aa(lp6304
V\u6ca1\u7a7a
p6305
aF0.2445791096516404
aa(lp6306
V\u4e0b\u8fbe
p6307
aF0.36197708228442776
aa(lp6308
V\u56de
aF0.25908475342544407
aa(lp6309
V\u5f00\u6da8
p6310
aF1.0054918952345215
aa(lp6311
V\u5fb7\u9886
p6312
aF0.90494270571106949
aa(lp6313
V\u70b9\u540d
p6314
aF0.75411892142589121
aa(lp6315
V\u82e6
aF1.3251357947404305
aa(lp6316
V\u76ee\u524d\u4e3a\u6b62
p6317
aF0.29843856701966953
aa(lp6318
V\u5f55\u5236
p6319
aF0.22071773310026085
aa(lp6320
V\u70b9\u5c11
p6321
aF0.24577293754561022
aa(lp6322
V\u6d59\u5927
p6323
aF1.1244736606861079
aa(lp6324
V\u4e0a\u626c
p6325
aF0.6385943913325669
aa(lp6326
V\u673a\u6784
p6327
aF0.23366214132362265
aa(lp6328
V\u907f\u514d
p6329
aF0.18146314987016082
aa(lp6330
V\u5206\u6563
p6331
aF0.33128394868510763
aa(lp6332
V\u4ef7\u503c\u8fde\u57ce
p6333
aF1.1311783821388368
aa(lp6334
V\u5b9a\u8bba
p6335
aF0.26955741537260475
aa(lp6336
V\u76d8\u6574
p6337
aF0.49880597689608908
aa(lp6338
V\u804c\u5de5
p6339
aF0.24577293754561022
aa(lp6340
V\u4e91\u5357\u65c5\u6e38
p6341
aF0.90494270571106949
aa(lp6342
V\u618b\u4f4f
p6343
aF1.2927752938729562
aa(lp6344
V\u7535\u5b50
p6345
aF0.3723990377345236
aa(lp6346
V\u6050\u60e7
p6347
aF0.26230223353944043
aa(lp6348
V\u5b58
aF0.2742250623366877
aa(lp6349
V\u610f\u5473
p6350
aF0.21045179202583011
aa(lp6351
V\u65f6\u673a
p6352
aF1.0174980129907087
aa(lp6353
V\u674e\u5927\u9704
p6354
aF0.31555076469054949
aa(lp6355
V\u7fa4\u91cc
p6356
aF0.22716613624121668
aa(lp6357
V\u70b9\u53ca
p6358
aF0.12771887826651337
aa(lp6359
V\u4f20\u5947
p6360
aF2.4799963815588644
aa(lp6361
V\u7adf\u4ef7
p6362
aF0.75411892142589121
aa(lp6363
V\u4f1a\u4ee5
p6364
aF0.25137297380863038
aa(lp6365
V\u9ad8\u5ea6
p6366
aF0.69635665637922894
aa(lp6367
V\u672c\u8eab
p6368
aF0.19433209015234296
aa(lp6369
V\u4e0b\u884c
p6370
aF0.44396980675346126
aa(lp6371
V\u4e00\u9633
p6372
aF0.3770594607129456
aa(lp6373
V\u62ac\u5934
p6374
aF0.23814281729238668
aa(lp6375
V\u673a\u4f1a
p6376
aF0.25150892649264023
aa(lp6377
V\u5927\u60ca\u5c0f\u602a
p6378
aF0.90494270571106949
aa(lp6379
V\u534a\u6765
p6380
aF1.2927752938729562
aa(lp6381
V\u672c\u4eba
p6382
aF0.17504031011348217
aa(lp6383
V\u9752\u677e
p6384
aF1.5082378428517824
aa(lp6385
V\u4e24\u652f
p6386
aF0.90494270571106949
aa(lp6387
V\u611f\u5e94
p6388
aF0.69610977362389959
aa(lp6389
V\u6da8\u52bf
p6390
aF0.37381135102394164
aa(lp6391
V\u8c28\u9632
p6392
aF0.69610977362389959
aa(lp6393
V\u547d\u4e2d\u7387
p6394
aF0.82267518701006315
aa(lp6395
V\u9884\u6599\u4e2d
p6396
aF0.39345335030916062
aa(lp6397
V\u961f\u53cb
p6398
aF0.19672667515458031
aa(lp6399
V\u504f\u7a7a
p6400
aF0.53142779604832802
aa(lp6401
V\u9009\u62e9\u6743
p6402
aF0.4309250979576521
aa(lp6403
V\u5f85\u4f1a
p6404
aF0.53231923865357023
aa(lp6405
V\u62a5\u4ef7
p6406
aF0.21045179202583011
aa(lp6407
V\u5206\u949f
p6408
aF1.1319096200154133
aa(lp6409
V\u6de1
aF0.60329513714071292
aa(lp6410
V\u4e0d\u8981
p6411
aF0.91670378769122207
aa(lp6412
V\u5e9e\u5efa\u5586
p6413
aF0.83562798765507473
aa(lp6414
V\u76db\u5bb4
p6415
aF0.69610977362389959
aa(lp6416
V\u9a8c\u8bc1
p6417
aF0.66256789737021526
aa(lp6418
V\u8981\u662f
p6419
aF0.21894664845688008
aa(lp6420
V\u9760\u524d
p6421
aF0.25743217283618408
aa(lp6422
V\u65e0\u76ca
p6423
aF0.47628563458477335
aa(lp6424
V\u63a7\u5927\u6da8
p6425
aF0.47628563458477335
aa(lp6426
V\u5b8c\u6bd5
p6427
aF0.37983090347957943
aa(lp6428
V\u534e\u5e1d
p6429
aF0.56558919106941841
aa(lp6430
V\u5fc5\u987b
p6431
aF0.50481086324038305
aa(lp6432
V\u64cd\u4f5c
p6433
aF0.11992562266260219
aa(lp6434
V\u7ad9\u7a33
p6435
aF0.61049880779442534
aa(lp6436
V\u843d\u540e
p6437
aF0.46423777091948593
aa(lp6438
V\u7206\u51fa
p6439
aF0.60329513714071292
aa(lp6440
V\u62ff
aF0.54642437754272155
aa(lp6441
V\u60c5\u4e66
p6442
aF0.26391518501391414
aa(lp6443
V\u7a84
aF2.2623567642776736
aa(lp6444
V\u52a8\u597d
p6445
aF0.6463876469364781
aa(lp6446
V\u7f29\u56de\u6765
p6447
aF0.22071773310026085
aa(lp6448
V\u516c\u91cc
p6449
aF0.15876187819492446
aa(lp6450
V\u8bf1\u591a
p6451
aF0.62292749816131587
aa(lp6452
V\u4e4b\u51e1
p6453
aF0.3770594607129456
aa(lp6454
V\u4e16\u754c\u7ea7
p6455
aF0.54736662114220014
aa(lp6456
V\u6c5f\u82cf
p6457
aF0.19392231142542887
aa(lp6458
V\u5408\u9002
p6459
aF0.33516396507817386
aa(lp6460
V\u5b9a
aF0.3483242134541274
aa(lp6461
V\u7ee7\u7eed
p6462
aF0.58769379948136169
aa(lp6463
V\u4e2a\u8d5e
p6464
aF0.56558919106941841
aa(lp6465
V\u4f9d\u7136
p6466
aF0.74275420791437641
aa(lp6467
V\u4e07\u81f3
p6468
aF0.19433209015234296
aa(lp6469
V\u5316\u5b66
p6470
aF0.26955741537260475
aa(lp6471
V\u54ea\u4e9b
p6472
aF1.1937542680786781
aa(lp6473
V\u60a8
aF0.31259620987250919
aa(lp6474
V\u540e\u5e02
p6475
aF0.21022723533286861
aa(lp6476
V\u5e38\u6001
p6477
aF0.47946584925886371
aa(lp6478
V\u6d4b\u5e8f
p6479
aF0.37861022706869446
aa(lp6480
V\u8001\u9a6c
p6481
aF0.31555076469054949
aa(lp6482
V\u4e94\u6210
p6483
aF0.17074390673793763
aa(lp6484
V\u840e\u9761\u4e0d\u632f
p6485
aF0.75411892142589121
aa(lp6486
V\u5531
aF0.47894579349942518
aa(lp6487
V\u5047\u8bbe
p6488
aF1.1311783821388368
aa(lp6489
V\u7761\u9192
p6490
aF0.82267518701006315
aa(lp6491
V\u9ad8\u51cf
p6492
aF0.2827945955347092
aa(lp6493
V\u80a1\u7968
p6494
aF0.19663681109490022
aa(lp6495
V\u4e70\u5355
p6496
aF1.6712559753101495
aa(lp6497
V\u5468\u672b
p6498
aF0.23875085361573564
aa(lp6499
V\u91d1\u738b
p6500
aF1.1311783821388368
aa(lp6501
V\u66f4\u6362
p6502
aF0.44143546620052171
aa(lp6503
V\u5f04\u6b7b
p6504
aF0.90494270571106949
aa(lp6505
V\u5c45\u524d
p6506
aF0.20626068372281448
aa(lp6507
V\u8d5a\u591f
p6508
aF0.90494270571106949
aa(lp6509
V\u5927\u5e72
p6510
aF0.51711011754918257
aa(lp6511
V\u798f\u5229
p6512
aF0.75411892142589121
aa(lp6513
V\u5973\u4eba
p6514
aF0.77566517632377385
aa(lp6515
V\u987e\u5730
p6516
aF0.4309250979576521
aa(lp6517
V\u4e00\u6bb5\u65f6\u95f4
p6518
aF0.35509694547982357
aa(lp6519
V\u4f4d
aF0.42096240448309968
aa(lp6520
V\u94b1\u591f
p6521
aF0.41133759350503157
aa(lp6522
V\u5bb6\u6570
p6523
aF0.75966180695915886
aa(lp6524
V\u8fd1\u65e5
p6525
aF0.33031999133091455
aa(lp6526
V\u76c8\u4e8f
p6527
aF0.39345335030916062
aa(lp6528
V\u591a\u6708
p6529
aF0.30164756857035646
aa(lp6530
V\u4e24\u534a
p6531
aF1.809885411422139
aa(lp6532
V\u81f3\u6708\u7ebf
p6533
aF0.56791534060304161
aa(lp6534
V\u8fc7\u70ed
p6535
aF0.36197708228442776
aa(lp6536
V\u6863
aF0.23814281729238668
aa(lp6537
V\u9000\u5f79
p6538
aF0.27560762991959392
aa(lp6539
V\u6b65
aF0.53231923865357023
aa(lp6540
V\u79d1\u6bd4
p6541
aF0.33613959145854816
aa(lp6542
V\u677f\u5757
p6543
aF0.39915070369293809
aa(lp6544
V\u5206\u6279
p6545
aF0.2827945955347092
aa(lp6546
V\u7cfb\u7edf
p6547
aF0.62292749816131587
aa(lp6548
V\u5fae\u535a
p6549
aF0.94539222451184135
aa(lp6550
V\u6307\u70b9
p6551
aF0.56558919106941841
aa(lp6552
V\u4fdd\u62a4
p6553
aF1.2927752938729562
aa(lp6554
V\u8fc1\u81f3
p6555
aF0.17743974621785674
aa(lp6556
V\u80fd\u770b\u61c2
p6557
aF0.30164756857035646
aa(lp6558
V\u4e00\u76f4
p6559
aF0.25422828458858526
aa(lp6560
V\u91d1\u53c9
p6561
aF0.71035169080553806
aa(lp6562
V\u96be\u9053
p6563
aF0.90720844848532989
aa(lp6564
V\u628a\u63e1
p6565
aF0.21163063098160717
aa(lp6566
V\u5357\u65b9
p6567
aF0.4309250979576521
aa(lp6568
V\u5c81
aF0.34805488681194979
aa(lp6569
V\u5e02
aF0.31861551492403695
aa(lp6570
V\u4e00\u770b
p6571
aF1.809885411422139
aa(lp6572
V\u5609\u5bd3
p6573
aF0.27593522126166625
aa(lp6574
V\u51fa\u53bb
p6575
aF0.27387424859934484
aa(lp6576
V\u53ef\u9022
p6577
aF0.25647789575621238
aa(lp6578
V\u671f\u8d27
p6579
aF0.70857039473110406
aa(lp6580
V\u6295
aF0.32319382346823905
aa(lp6581
V\u5f97
aF0.17263073518663716
aa(lp6582
V\u80a1\u7968\u5e02\u573a
p6583
aF0.82267518701006315
aa(lp6584
V\u671f\u5f85
p6585
aF0.69699855154308576
aa(lp6586
V\u6536\u5c0f
p6587
aF0.49154587509122044
aa(lp6588
V\u83ab\u975e
p6589
aF0.90494270571106949
aa(lp6590
V\u6ca1
aF0.80498655865576441
aa(lp6591
V\u62c9\u4f38
p6592
aF0.47628563458477335
aa(lp6593
V\u4e22
aF1.1494699043986203
aa(lp6594
V\u8981\u6765
p6595
aF1.809885411422139
aa(lp6596
V\u4eae\u70b9
p6597
aF0.39157837603561013
aa(lp6598
V\u91d1\u521a
p6599
aF0.33516396507817386
aa(lp6600
V\u9664\u5f00
p6601
aF0.41133759350503157
aa(lp6602
V\u4ec1\u548c
p6603
aF0.50274594761726077
aa(lp6604
V\u62ff\u4e0b
p6605
aF0.38866418030468591
aa(lp6606
V\u63a5\u529b
p6607
aF0.33317968243438273
aa(lp6608
V\u4eba\u529b
p6609
aF0.39157837603561013
aa(lp6610
V\u8fdb\u5feb
p6611
aF0.13922195472477991
aa(lp6612
V\u53ef\u803b
p6613
aF3.0164756857035648
aa(lp6614
V\u9506\u4e1a
p6615
aF0.53231923865357023
aa(lp6616
V\u76f8\u6bd4
p6617
aF1.1937542680786781
aa(lp6618
V\u5403\u4e0d\u51fa
p6619
aF0.36197708228442776
aa(lp6620
V\u65e5\u672c
p6621
aF0.4241918933020638
aa(lp6622
V\u6709\u4e9b
p6623
aF0.27083566380692625
aa(lp6624
V\u62d0\u5934
p6625
aF0.23247549388410788
aa(lp6626
V\u7126\u70b9
p6627
aF0.23211888545974296
aa(lp6628
V\u4ecd
aF0.43806909934678101
aa(lp6629
V\u5bfb\u627e
p6630
aF0.60329513714071292
aa(lp6631
V\u83b7\u5229
p6632
aF0.30090644983871001
aa(lp6633
V\u59b9\u59b9
p6634
aF2.2623567642776736
aa(lp6635
V\u9ad8\u98ce\u9669
p6636
aF0.49154587509122044
aa(lp6637
V\u6709\u4e8b
p6638
aF0.69610977362389959
aa(lp6639
V\u770b\u5230
p6640
aF0.59139328411815439
aa(lp6641
V\u4fdd\u6301
p6642
aF0.27982645287940511
aa(lp6643
V\u53f3\u5e95
p6644
aF0.36197708228442776
aa(lp6645
V\u611f\u89c9
p6646
aF0.4448077495842423
aa(lp6647
V\u514d\u8d39\u9001
p6648
aF1.1937542680786781
aa(lp6649
V\u8d8b\u52bf
p6650
aF0.38763838067724066
aa(lp6651
V\u8dcc\u505c
p6652
aF0.22774617161060765
aa(lp6653
V\u4e8f\u94b1
p6654
aF0.17743974621785674
aa(lp6655
V\u51fa\u6389
p6656
aF0.34805488681194979
aa(lp6657
V\u5c0f\u5c0f
p6658
aF0.27538130465782235
aa(lp6659
V\u8df3\u7a7a
p6660
aF0.72939115636918816
aa(lp6661
V\u4e70\u5230
p6662
aF0.41781399382753737
aa(lp6663
V\u6709\u4eba
p6664
aF1.1244736606861079
aa(lp6665
V\u77ed\u4fe1
p6666
aF0.12855815194693457
aa(lp6667
V\u6b64
aF0.33818132475802698
aa(lp6668
V\u867d\u8bf4
p6669
aF0.21546254897882605
aa(lp6670
V\u7eed
aF0.71465281836693628
aa(lp6671
V\u6025\u6740
p6672
aF0.20566879675251579
aa(lp6673
V\u590d\u76d8
p6674
aF0.30999954769485805
aa(lp6675
V\u559c\u60a6
p6676
aF0.4309250979576521
aa(lp6677
V\u4e22\u5e95
p6678
aF1.1311783821388368
aa(lp6679
V\u65e5\u671f
p6680
aF0.37861022706869446
aa(lp6681
V\u4f5c\u7528
p6682
aF0.2054615380604268
aa(lp6683
V\u8bf4\u9519
p6684
aF0.41133759350503157
aa(lp6685
V\u8fdb\u7fa4
p6686
aF0.69635665637922894
aa(lp6687
V\u4e5f\u8bb8
p6688
aF0.4676949863789755
aa(lp6689
V\u8003\u5bdf
p6690
aF0.36197708228442776
aa(lp6691
V\u4e0d\u4e86
p6692
aF0.48384450585884259
aa(lp6693
V\u53d1\u884c
p6694
aF0.83876760382324966
aa(lp6695
V\u524d\u8fdb
p6696
aF0.53005431789617219
aa(lp6697
V\u94f6\u661f
p6698
aF0.4309250979576521
aa(lp6699
V\u5c01
aF0.69699855154308576
aa(lp6700
V\u96c6\u5408\u7ade\u4ef7
p6701
aF1.0601086357923444
aa(lp6702
V\u7ed3\u5c3e
p6703
aF0.17743974621785674
aa(lp6704
V\u5413\u552c\u4eba
p6705
aF0.36331651637177159
aa(lp6706
V\u9009
aF0.21488688563358335
aa(lp6707
V\u9884\u5907
p6708
aF0.21286479711085562
aa(lp6709
V\u9ad8\u5f00
p6710
aF0.44511132668793862
aa(lp6711
V\u5fc5\u5b9a
p6712
aF0.30999954769485805
aa(lp6713
V\u4e0d
aF0.21583183867296718
aa(lp6714
V\u5730\u7403
p6715
aF0.29320280268599114
aa(lp6716
V\u65f6\u95f4
p6717
aF0.16038353590983787
aa(lp6718
V\u6cea\u6cea\u6cea
p6719
aF1.6712559753101495
aa(lp6720
V\u551b
aF1.2065902742814258
aa(lp6721
V\u795d\u8d3a
p6722
aF0.26571389802416401
aa(lp6723
V\u6210\u7ee9\u5355
p6724
aF0.51898784339358828
aa(lp6725
V\u63a7\u5e95
p6726
aF0.30164756857035646
aa(lp6727
V\u8d70\u51fa
p6728
aF0.66256789737021526
aa(lp6729
V\u91cd\u8981
p6730
aF0.28441713328012158
aa(lp6731
V\u8ba4
aF0.21488688563358335
aa(lp6732
V\u6211\u6559
p6733
aF0.60329513714071292
aa(lp6734
V\u63d0\u9ad8
p6735
aF0.33734209820583239
aa(lp6736
V\u53cd\u538b
p6737
aF0.74964910712407196
aa(lp6738
V\u624b\u673a\u6e38\u620f
p6739
aF0.27555515350654047
aa(lp6740
V\u5fcd\u4e0d\u4f4f
p6741
aF0.22483824243325345
aa(lp6742
V\u6ce8\u610f
p6743
aF0.22949920413368535
aa(lp6744
V\u4e91\u96c6
p6745
aF0.45247135285553475
aa(lp6746
V\u8bd5\u63a2
p6747
aF0.49692592302766148
aa(lp6748
V\u8d1f\u8d23
p6749
aF0.22623567642776737
aa(lp6750
V\u8865\u9f50
p6751
aF0.33516396507817386
aa(lp6752
V\u5c01\u677f
p6753
aF1.9178633970354548
aa(lp6754
V\u6298\u5408
p6755
aF0.39345335030916062
aa(lp6756
V\u518d\u5ea6
p6757
aF0.94137161257475643
aa(lp6758
V\u4e0b\u6b21
p6759
aF0.4309250979576521
aa(lp6760
V\u6700\u4f4e
p6761
aF0.34128829998153459
aa(lp6762
V\u6709\u529b
p6763
aF0.1816582581858858
aa(lp6764
V\u9694\u591c
p6765
aF0.40307073410438082
aa(lp6766
V\u7acb\u9a6c
p6767
aF0.37830453278016579
aa(lp6768
V\u8f6c\u6696
p6769
aF0.6463876469364781
aa(lp6770
V\u8109\u640f
p6771
aF0.82267518701006315
aa(lp6772
V\u8865\u7f3a
p6773
aF0.34261012398872376
aa(lp6774
V\u7f3a\u70b9
p6775
aF0.64279075973467292
aa(lp6776
V\u8fc7\u524d
p6777
aF0.75966180695915886
aa(lp6778
V\u4e34\u8fd1
p6779
aF0.44171193158014349
aa(lp6780
V\u53d1
aF1.014788129722197
aa(lp6781
V\u5e74\u62a5
p6782
aF0.36742328834769206
aa(lp6783
V\u6536\u8bc4
p6784
aF0.69610977362389959
aa(lp6785
V\u6708\u4efd
p6786
aF0.39531937383314281
aa(lp6787
V\u6c34\u6676
p6788
aF0.312049208865886
aa(lp6789
V\u8e81\u52a8
p6790
aF0.53231923865357023
aa(lp6791
V\u524d\u4f4e
p6792
aF0.39345335030916062
aa(lp6793
V\u6447\u51fa
p6794
aF0.92999864308457414
aa(lp6795
V\u8ddd\u79bb
p6796
aF0.34805488681194979
aa(lp6797
V\u76f4\u7ebf
p6798
aF0.74964910712407196
aa(lp6799
V\u725b\u80a1
p6800
aF0.53419747729128619
aa(lp6801
V\u6709\u4e2a
p6802
aF0.53005431789617219
aa(lp6803
V\u4e07\u80a1
p6804
aF0.64255637753491879
aa(lp6805
V\u5929\u57ce
p6806
aF0.50274594761726077
aa(lp6807
V\u9ad8\u5f00\u9762
p6808
aF0.50274594761726077
aa(lp6809
V\u867d
aF0.39791808935955936
aa(lp6810
V\u5934\u6761
p6811
aF0.99385184605532295
aa(lp6812
V\u64a9\u59b9
p6813
aF0.22071773310026085
aa(lp6814
V\u4e0d\u770b
p6815
aF0.39791808935955936
aa(lp6816
V\u76ee\u6d4b
p6817
aF0.34805488681194979
aa(lp6818
V\u5b9a\u4e49
p6819
aF0.23211888545974296
aa(lp6820
V\u9000\u53ef\u5b88
p6821
aF0.20109837904690434
aa(lp6822
V\u505a\u4e8b
p6823
aF0.2742250623366877
aa(lp6824
V\u4ee5\u7164
p6825
aF0.1885297303564728
aa(lp6826
V\u591c\u665a
p6827
aF0.21045179202583011
aa(lp6828
V\u5229\u7528
p6829
aF0.29030670351530558
aa(lp6830
V\u6293
aF0.5108755130660535
aa(lp6831
V\u623f\u5730\u4ea7
p6832
aF0.44396980675346126
aa(lp6833
V\u56de\u590d
p6834
aF0.34526729581214782
aa(lp6835
V\u5171\u9707
p6836
aF0.36197708228442776
aa(lp6837
V\u56de\u6d41
p6838
aF0.34560321847060183
aa(lp6839
V\u5b99
aF0.2742250623366877
aa(lp6840
V\u6765\u8bf4
p6841
aF0.21115973918451816
aa(lp6842
V\u591a
aF0.31077128665497439
aa(lp6843
V\u677e\u54e5
p6844
aF0.33128394868510763
aa(lp6845
V\u8d22
aF1.6712559753101495
aa(lp6846
V\u62c9\u6da8
p6847
aF0.16159691173411952
aa(lp6848
V\u70b9\u71c3
p6849
aF0.30164756857035646
aa(lp6850
V\u8bc1\u4f2a
p6851
aF0.2445791096516404
aa(lp6852
V\u534a\u6570
p6853
aF0.75411892142589121
aa(lp6854
V\u660e\u5929
p6855
aF0.20680344440003193
aa(lp6856
V\u56de\u5929
p6857
aF0.55708532510338316
aa(lp6858
V\u4e70\u5165
p6859
aF0.62758107504983762
aa(lp6860
V\u70b9\u91d1
p6861
aF0.55828212214481843
aa(lp6862
V\u975e
aF0.22680211212133247
aa(lp6863
V\u950c\u4e1a
p6864
aF0.3723990377345236
aa(lp6865
V\u963f\u79c0
p6866
aF0.13307980966339256
aa(lp6867
V\u79cd
aF0.3770594607129456
aa(lp6868
V\u592a
aF0.16301277420344176
aa(lp6869
V\u6839\u672c
p6870
aF0.38722141752393652
aa(lp6871
V\u54c7
aF1.1311783821388368
aa(lp6872
V\u6d6e\u4e8f
p6873
aF0.3919116661088175
aa(lp6874
V\u63d0\u793a
p6875
aF0.13834089675636632
aa(lp6876
V\u4ee5\u6708\u7ebf
p6877
aF0.60468470766475668
aa(lp6878
V\u5fc3\u7535\u56fe
p6879
aF0.69610977362389959
aa(lp6880
V\u5206\u80dc
p6881
aF0.34805488681194979
aa(lp6882
V\u76c8\u65b9\u5fae
p6883
aF0.60329513714071292
aa(lp6884
V\u5c0f\u5f20
p6885
aF0.59687713403933906
aa(lp6886
V\u8650
aF0.90494270571106949
aa(lp6887
V\u7403\u661f
p6888
aF1.0054918952345215
aa(lp6889
V\u4e0a\u6da8\u5e45\u5ea6
p6890
aF0.29191700184228048
aa(lp6891
V\u7ebf\u9022
p6892
aF0.29759956578706376
aa(lp6893
V\u6709\u70b9
p6894
aF1.3464663527452618
aa(lp6895
V\u8d62
aF0.20160187744118441
aa(lp6896
V\u4e2d\u9022
p6897
aF0.60329513714071292
aa(lp6898
V\u4e00\u5468
p6899
aF0.22893917470002045
aa(lp6900
V\u903c\u8fd1
p6901
aF0.39426218941210295
aa(lp6902
V\u78e8\u4eba\u78e8
p6903
aF0.75411892142589121
aa(lp6904
V\u987a\u7f51
p6905
aF0.53142779604832802
aa(lp6906
V\u5de8\u91cf
p6907
aF0.23221614230275162
aa(lp6908
V\u9ad8\u5f00\u4f4e\u8d70
p6909
aF0.2217177261437441
aa(lp6910
V\u4ef7\u9f50
p6911
aF0.36197708228442776
aa(lp6912
V\u4e2d\u503c
p6913
aF0.92814636483186608
aa(lp6914
V\u8d27\u5e01\u653f\u7b56
p6915
aF0.45169080413787827
aa(lp6916
V\u9ad8\u8d8a
p6917
aF0.25137297380863038
aa(lp6918
V\u589e\u9ad8
p6919
aF0.41133759350503157
aa(lp6920
V\u6b62\u76c8\u4f4d
p6921
aF0.2827945955347092
aa(lp6922
V\u54c8\u5bc6\u74dc
p6923
aF0.29843856701966953
aa(lp6924
V\u5407
aF0.56558919106941841
aa(lp6925
V\u52a0\u5165
p6926
aF0.66256789737021526
aa(lp6927
V\u57fa\u56e0
p6928
aF0.36491108076146678
aa(lp6929
V\u79f0\u4f5c
p6930
aF1.2927752938729562
aa(lp6931
V\u610f\u56fe
p6932
aF0.20566879675251579
aa(lp6933
V\u5c0f\u7ffc
p6934
aF1.0054918952345215
aa(lp6935
V\u660e\u663e
p6936
aF0.20860831933222593
aa(lp6937
V\u8d60\u4eba
p6938
aF0.55708532510338316
aa(lp6939
V\u5927\u53d1\u6148\u60b2
p6940
aF0.41133759350503157
aa(lp6941
V\u624b\u6709\u4f59\u9999
p6942
aF0.60329513714071292
aa(lp6943
V\u5b89\u88c5
p6944
aF0.15876187819492446
aa(lp6945
V\u6d41\u661f
p6946
aF0.23875085361573564
aa(lp6947
V\u7a81\u7834\u70b9
p6948
aF0.24799963815588644
aa(lp6949
V\u8d85\u77ed
p6950
aF0.60329513714071292
aa(lp6951
V\u6765\u5f97\u53ca
p6952
aF0.33516396507817386
aa(lp6953
V\u6da8\u505c
p6954
aF0.77922709252258304
aa(lp6955
V\u5f88\u723d
p6956
aF0.37983090347957943
aa(lp6957
V\u53cb\u8c0a
p6958
aF0.88342386316028698
aa(lp6959
V\u5c0f\u5fc3
p6960
aF0.29447462105342903
aa(lp6961
V\u7a33\u5b9a\u6027
p6962
aF0.17821238827885588
aa(lp6963
V\u8c03\u4f83
p6964
aF1.2927752938729562
aa(lp6965
V\u7c73\u5170
p6966
aF0.34805488681194979
aa(lp6967
V\u534a\u65e5
p6968
aF0.21045179202583011
aa(lp6969
V\u5fb7\u5ddd
p6970
aF0.6463876469364781
aa(lp6971
V\u53d8\u6001
p6972
aF0.19895904467977968
aa(lp6973
V\u7f6e\u9876
p6974
aF0.2742250623366877
aa(lp6975
V\u5efa\u4ed3
p6976
aF0.97856220446045805
aa(lp6977
V\u96be\u5173
p6978
aF0.4309250979576521
aa(lp6979
V\u620e\u9a6c
p6980
aF0.21546254897882605
aa(lp6981
V\u4e4b
aF0.35483894093636187
aa(lp6982
V\u4faf\u5b81
p6983
aF0.30164756857035646
aa(lp6984
V\u592a\u5f31
p6985
aF0.14579154212286116
aa(lp6986
V\u7eb7\u7eb7
p6987
aF0.25897662592697468
aa(lp6988
V\u6253
aF1.370440495954895
aa(lp6989
V\u51c6\u5907
p6990
aF1.1167382308621936
aa(lp6991
V\u5927\u6da8\u5927\u8dcc
p6992
aF0.312049208865886
aa(lp6993
V\u5f3a\u5fae\u535a
p6994
aF0.28814758195002577
aa(lp6995
V\u52a8\u529b\u6e90
p6996
aF1.6867104910291619
aa(lp6997
V\u4e0a\u677f
p6998
aF2.0890699691376868
aa(lp6999
V\u96f7\u67cf
p7000
aF0.56558919106941841
aa(lp7001
V\u9009\u5230
p7002
aF0.60329513714071292
aa(lp7003
V\u51fa\u624b
p7004
aF0.47894579349942518
aa(lp7005
V\u8f83\u5927
p7006
aF0.85960112650001108
aa(lp7007
V\u8d70\u52bf
p7008
aF0.25292968259721194
aa(lp7009
V\u5730\u9762
p7010
aF0.29320280268599114
aa(lp7011
V\u8fbe\u4f70\u5229
p7012
aF0.53231923865357023
aa(lp7013
V\u7a33\u624e\u7a33\u6253
p7014
aF0.75411892142589121
aa(lp7015
V\u4ed3\u4f4d
p7016
aF0.70261762106004599
aa(lp7017
V\u968f\u7f18
p7018
aF2.2623567642776736
aa(lp7019
V\u63a5\u53d7
p7020
aF0.3770594607129456
aa(lp7021
V\u5c0f\u76d8\u80a1
p7022
aF0.17085906140443735
aa(lp7023
V\u6307\u5357
p7024
aF2.6502715894808611
aa(lp7025
V\u5f00
aF0.1699996467178258
aa(lp7026
V\u5b83
aF0.62758107504983762
aa(lp7027
V\u51b2\u5f97
p7028
aF0.16758198253908693
aa(lp7029
V\u94c1\u77ff\u77f3
p7030
aF1.1311783821388368
aa(lp7031
V\u8fd9\u662f
p7032
aF0.24704918378800955
aa(lp7033
V\u901a\u80c0
p7034
aF1.2927752938729562
aa(lp7035
V\u7403\u573a\u4e0a
p7036
aF0.56558919106941841
aa(lp7037
V\u5f53\u5929
p7038
aF0.29158308424572232
aa(lp7039
V\u699c\u5355
p7040
aF0.3770594607129456
aa(lp7041
V\u6210\u8d25
p7042
aF0.2742250623366877
aa(lp7043
V\u739b\u5c3c
p7044
aF1.809885411422139
aa(lp7045
V\u5582
aF2.6502715894808611
aa(lp7046
V\u5feb\u901f
p7047
aF0.32318111738948702
aa(lp7048
V\u8001\u59dc
p7049
aF0.59933231157357969
aa(lp7050
V\u719f
aF0.50274594761726077
aa(lp7051
V\u53d8\u52a8
p7052
aF0.31929719566628345
aa(lp7053
V\u8981\u6562
p7054
aF0.2445791096516404
aa(lp7055
V\u770b\u65e5
p7056
aF0.19895904467977968
aa(lp7057
V\u5173\u6ce8\u70b9
p7058
aF0.61160113603404498
aa(lp7059
V\u5c0f\u5e45
p7060
aF0.48597723150842675
aa(lp7061
V\u91d1\u901a
p7062
aF0.16211194249122896
aa(lp7063
V\u4e50\u89c2
p7064
aF0.38722141752393652
aa(lp7065
V\u53d1\u8a00
p7066
aF0.52226749228442171
aa(lp7067
V\u4e50\u89c6
p7068
aF0.312049208865886
aa(lp7069
V\u8d2d\u4e70
p7070
aF2.4799963815588644
aa(lp7071
V\u5b57\u4e71
p7072
aF0.34817832818961447
aa(lp7073
V\u6307\u56de
p7074
aF0.21546254897882605
aa(lp7075
V\u65b0\u7f51\u6e38
p7076
aF0.21546254897882605
aa(lp7077
V\u901f\u5ea6
p7078
aF0.49880597689608908
aa(lp7079
V\u70ed\u70b9
p7080
aF0.21610196191991771
aa(lp7081
V\u5927\u849c
p7082
aF0.26615961932678511
aa(lp7083
V\u6d77\u54e5
p7084
aF0.92635395709273671
aa(lp7085
V\u4f1a\u8d8a
p7086
aF0.312049208865886
aa(lp7087
V\u79bb\u573a
p7088
aF0.25814761168262434
aa(lp7089
V\u6210\u6d6e\u4ed3
p7090
aF0.34805488681194979
aa(lp7091
V\u9f99\u51c0\u73af\u4fdd
p7092
aF2.2623567642776736
aa(lp7093
V\u8d4c
aF0.2827945955347092
aa(lp7094
V\u674e\u5927
p7095
aF0.312049208865886
aa(lp7096
V\u53cd\u53cd\u590d\u590d
p7097
aF0.34805488681194979
aa(lp7098
V\u642d\u597d
p7099
aF0.11605944272987148
aa(lp7100
V\u7a7a\u65b9
p7101
aF0.50919561993333184
aa(lp7102
V\u53c2\u534a
p7103
aF0.33516396507817386
aa(lp7104
V\u8001\u5996
p7105
aF0.83562798765507473
aa(lp7106
V\u7edd\u4e0d
p7107
aF0.75966180695915886
aa(lp7108
V\u6307\u9ad8\u5f00
p7109
aF0.53142779604832802
aa(lp7110
V\u731b\u70c8
p7111
aF1.0445349845688434
aa(lp7112
V\u6797\u5973\u4fa0
p7113
aF0.59687713403933906
aa(lp7114
V\u6ee1
aF0.45247135285553475
aa(lp7115
V\u4f60
aF0.15709261410283448
aa(lp7116
V\u753b\u9762
p7117
aF0.25855505877459128
aa(lp7118
V\u5feb
aF1.2968955399298316
aa(lp7119
V\u6052\u751f
p7120
aF0.45681349865163162
aa(lp7121
V\u62c9\u8d77
p7122
aF1.062855592096656
aa(lp7123
V\u53f3
aF2.1202172715846888
aa(lp7124
V\u559c\u62a5
p7125
aF0.53005431789617219
aa(lp7126
V\u6628\u5929\u665a\u4e0a
p7127
aF0.22584540206893913
aa(lp7128
V\u5bf9\u91d1\u4e9a
p7129
aF1.5082378428517824
aa(lp7130
V\u4e0a\u8bc1\u6307\u6570
p7131
aF0.37616459562854793
aa(lp7132
V\u5947\u8469
p7133
aF0.49154587509122044
aa(lp7134
V\u627e
aF0.21083881137864524
aa(lp7135
V\u5927\u7ea2\u5305
p7136
aF0.3770594607129456
aa(lp7137
V\u70b9\u706b
p7138
aF0.19254100121512116
aa(lp7139
V\u4e00\u8def\u4e0a
p7140
aF0.32319382346823905
aa(lp7141
V\u5c0f\u9633\u661f
p7142
aF0.60329513714071292
aa(lp7143
V\u6fc0\u60c5
p7144
aF0.57230685728281494
aa(lp7145
V\u7f8e\u80a1
p7146
aF0.40999914796652104
aa(lp7147
V\u5728\u6240\u96be\u514d
p7148
aF0.15474592363982864
aa(lp7149
V\u79ef\u6781
p7150
aF0.61590552992145298
aa(lp7151
V\u54b1
aF0.55708532510338316
aa(lp7152
V\u5c0f\u7eff
p7153
aF1.2927752938729562
aa(lp7154
V\u80fd\u5426
p7155
aF0.39378839124203679
aa(lp7156
V\u4e91\u54e5
p7157
aF0.1816582581858858
aa(lp7158
V\u76d8\u611f
p7159
aF0.22584540206893913
aa(lp7160
V\u9694\u5929
p7161
aF0.60329513714071292
aa(lp7162
V\u6362\u624b
p7163
aF0.69664842690825479
aa(lp7164
V\u7cbe\u4f26
p7165
aF0.45247135285553475
aa(lp7166
V\u7591\u95ee
p7167
aF1.9877036921106459
aa(lp7168
V\u4e0d\u7ed9\u529b
p7169
aF0.31929719566628345
aa(lp7170
V\u4e2d\u5c0f\u677f
p7171
aF0.44171193158014349
aa(lp7172
V\u65b0\u7f8e\u661f
p7173
aF2.1614925665497191
aa(lp7174
V\u6587\u7ae0
p7175
aF0.89669119069584469
aa(lp7176
V\u5a01\u6b66
p7177
aF1.3195759250695709
aa(lp7178
V\u7231\u5efa
p7179
aF1.1311783821388368
aa(lp7180
V\u65e0\u9650
p7181
aF0.41781399382753737
aa(lp7182
V\u767d\u767d
p7183
aF0.49154587509122044
aa(lp7184
V\u72d9\u51fb
p7185
aF0.18991545173978971
aa(lp7186
V\u51fb\u7834
p7187
aF0.19895904467977968
aa(lp7188
V\u72ec\u884c\u8005
p7189
aF0.61999909538971609
aa(lp7190
V\u8bb8
aF0.16658984121719136
aa(lp7191
V\u8d22\u795e
p7192
aF0.62409841773177199
aa(lp7193
V\u70ed\u6cea\u76c8\u7736
p7194
aF0.60329513714071292
aa(lp7195
V\u6b7b\u6c34
p7196
aF0.47628563458477335
aa(lp7197
V\u9f99\u5934
p7198
aF0.65690484168364327
aa(lp7199
V\u8001\u5934
p7200
aF0.33128394868510763
aa(lp7201
V\u6b21
aF0.41357224048357644
aa(lp7202
V\u6b21\u65e5
p7203
aF0.33516396507817386
aa(lp7204
V\u4e00\u652f
p7205
aF0.61160113603404498
aa(lp7206
V\u53c8
aF0.2511979441102441
aa(lp7207
V\u5b89\u59ae
p7208
aF0.53231923865357023
aa(lp7209
V\u903c\u7a7a
p7210
aF0.37708057220561381
aa(lp7211
V\u8dcc
aF1.0814717459617655
aa(lp7212
V\u987d\u7ae5
p7213
aF1.3922195472477992
aa(lp7214
V\u5f00\u62d4
p7215
aF0.47628563458477335
aa(lp7216
V\u6ede\u80c0
p7217
aF0.64279075973467292
aa(lp7218
V\u56db\u8d77
p7219
aF0.29191700184228048
aa(lp7220
V\u770b\u70b9
p7221
aF0.5108755130660535
aa(lp7222
V\u62ac\u9ad8
p7223
aF0.49692592302766148
aa(lp7224
V\u767e\u6218
p7225
aF0.90154502305774153
aa(lp7226
V\u6ce2
aF0.20383531903223542
aa(lp7227
V\u8865
aF0.49599927631177287
aa(lp7228
V\u7184\u706b
p7229
aF0.39754073842212923
aa(lp7230
V\u96be\u9053\u771f
p7231
aF1.5082378428517824
aa(lp7232
V\u5341\u4e8c\u5206
p7233
aF1.1311783821388368
aa(lp7234
V\u662f\u5426
p7235
aF0.63668716439815387
aa(lp7236
V\u4e70\u70b9
p7237
aF0.78927965645059772
aa(lp7238
V\u4ed6\u4eec
p7239
aF0.36469557818459408
aa(lp7240
V\u591a\u6b21
p7241
aF0.22716613624121668
aa(lp7242
V\u94c1\u8def
p7243
aF0.37482455356203598
aa(lp7244
V\u963f\u5802
p7245
aF0.6463876469364781
aa(lp7246
V\u80a1\u6709
p7247
aF0.75411892142589121
aa(lp7248
V\u96be\u53d7
p7249
aF0.58947174584544637
aa(lp7250
V\u5b89\u7eb3\u8fbe
p7251
aF0.56558919106941841
aa(lp7252
V\u602a
aF0.6385943913325669
aa(lp7253
V\u8d77
aF0.69699855154308576
aa(lp7254
V\u53c2\u4e0e
p7255
aF0.43993252137246636
aa(lp7256
V\u52a0\u901f
p7257
aF0.53763025828923128
aa(lp7258
V\u9009\u592a\u591a\u80a1
p7259
aF0.3770594607129456
aa.