(lp1
F0.11076885766708755
aF-0.11718225462299321
aF-0.21985947611301976
aF0.083381608939051
aF0.72213471743319746
aF0.85046743514848255
aF0.46693143020876532
aF0.016901810802603254
aF0.127833371509885
aF0.28768207245178085
aF-0.10265415406008334
aF0.10629465864962322
aF0.51282362642866375
aF-0.15180601286800421
aF-0.19860244239809216
aF-0.12883287184296843
aF0.090151096994297478
aF0.13146313956046357
aF-0.2954642128938359
aF-0.17824823140631876
aF-0.13005312824819779
aF-0.40789524296145613
aF0.39334374757581958
aF0.23052365861183235
aF-0.36028288531493152
aF-0.48058573857627246
aF0.15874838907588781
aF0.88035872264809167
aF0
aF0
aF0
aF0
aF0
aF0
aF0
aF0
aF0
aF0
aF0
aF0
aF0.69314718055994529
aF0.018928009885518859
aF0.30586439153497141
aF0.70713342253468514
aF0.41253227533125686
aF0.25552496081724957
aF0.26041494611144139
aF0.24783616390458127
a.