(lp1
F55.650081246214064
aF17.938287571889067
aF13.789855909892038
aF13.759129741620823
aF24.182964399542765
aF16.743051036147818
aF19.479913685767276
aF16.372185427095342
aF19.414528682016922
aF21.118225339970813
aF13.069014931677735
aF35.017165713897484
aF27.74433331227625
aF23.903310233914791
aF19.372887778630183
aF32.577062768325348
aF37.493430053580063
aF38.364889157598249
aF38.731011551494191
aF31.623467812593763
aF39.288593029200179
aF47.149380612122755
aF24.02423414285148
aF25.968467646467623
aF45.925841729325811
aF31.171287159272882
aF30.352477063660924
aF26.464133278488539
aF22.387627670214197
aF24.471664911925217
aF22.094514678001971
aF13.080149266178434
aF32.038050686369779
aF29.57935478984523
aF21.052496685088066
aF30.837206030228717
aF33.040751836333058
aF51.077467356245499
aF35.441914413129012
aF24.160952575670038
aF18.475983687618967
aF16.157159314966275
aF10.046550591912844
aF17.56347473065571
aF17.798953044973992
aF22.182710029230144
aF34.15885089215277
aF37.052952230799995
a.