(lp1
F1.4912976701298752
aF1.5385635728474434
aF2.052290552613885
aF1.2494351784026934
aF0.8394392737746823
aF0.53246479886947184
aF0.59962112254912181
aF0.93697093711169377
aF1.3581234841531944
aF1.0822184788924332
aF1.0554401168029011
aF0.70633418484189903
aF0.93637749044089236
aF0.87294029100054127
aF0.81392871921258525
aF0.074901308173117701
aF-0.84971624125148526
aF-0.2130205436827613
aF-0.46181804465929621
aF-0.36240561864771748
aF-0.0068728792877620643
aF-0.56497198713594765
aF-0.10536051565782628
aF-0.20509548144250678
aF-0.34110723912536139
aF-0.55961578793542277
aF-0.15514918215684786
aF0.16579225484274404
aF-0.86094063679099009
aF-0.41397579777607302
aF-0.36229293624295572
aF0.61903920840622351
aF0.4832648241871193
aF0.071743904858841315
aF-0.76058846135547786
aF-0.92494879461726964
aF0.0079681696491768813
aF0.054876610225834302
aF0.34217025773585058
aF0.3746934494414107
aF-0.23262229526875347
aF0.32047189527477177
aF0.8967461358011849
aF0.14458122881110749
aF-0.39730179746900351
aF-0.3317773923170052
aF-0.5162164724008671
aF-0.3557654395558919
a.