(lp1
F-137
aF-42
aF54
aF115
aF108
aF89
aF147
aF73
aF72
aF86
aF19
aF-44
aF39
aF71
aF79
aF60
aF31
aF52
aF85
aF92
aF42
aF94
aF100
aF70
aF159
aF65
aF38
aF68
aF54
aF69
aF46
aF54
aF63
aF83
aF38
aF26
aF73
aF104
aF88
aF90
aF32
aF69
aF53
aF17
aF47
aF9
aF52
aF15
a.