(lp1
F-0.3287313138767749
aF-0.32340015505386011
aF0.4578330936254803
aF0.77085616488726161
aF0.86166076438756523
aF0.90960174372335845
aF1.1821990047763753
aF0.66057101012533259
aF0.65392646740666405
aF0.84289256691928727
aF0.13641185548987667
aF-0.19530875232076572
aF0.6346509738783368
aF0.70753591801204496
aF0.99967234081320611
aF0.61903920840622351
aF0.2653763149374827
aF0.86222351060387925
aF1.3951833085371366
aF0.86421158282926547
aF0.69314718055994529
aF1.0577902941478545
aF0.79728743981254235
aF0.85277732615182922
aF0.70596786898900676
aF0.5783716659675171
aF0.30390490795866826
aF0.93430923737683336
aF0.89994159387262562
aF1.2176716486840979
aF0.73966719619483823
aF0.55961578793542266
aF0.9458495341156995
aF1.1956045546554193
aF1.0986122886681098
aF0.52129692363328606
aF0.8147543126547323
aF1.2809338454620642
aF0.53967377810364892
aF0.70444673581387873
aF0.70914752190638641
aF1.6211339521972916
aF1.4615177823574781
aF0.22314355131420976
aF0.59351733961110398
aF0.054394072065798764
aF0.69314718055994529
aF0.20763936477824455
a.