(lp1
F-0.11718420828328721
aF-0.083253421613270803
aF0.52375999964354247
aF0.7385876902258578
aF0.79583594850404282
aF0.65332085421493513
aF0.93649593288362776
aF0.68398914789770948
aF0.68388789918884152
aF0.7440718762085855
aF0.52859489697852813
aF0.046708072101343874
aF0.21127627842419275
aF0.77242066856823643
aF0.83655164694663253
aF0.48016735514695386
aF0.33510749603402529
aF0.99139430276114626
aF0.96139603028635512
aF0.58263923321112143
aF0.306560369954201
aF0.6247694846515629
aF0.71933814155246467
aF0.46046018100195868
aF0.54152148835183578
aF0.39990244971166333
aF0.22683131336462348
aF0.48898270840273234
aF0.38379240129082753
aF0.57005883144256475
aF0.44243042456666987
aF-0.1542060726829817
aF0.42042626471683708
aF0.47192173831082251
aF0.20529690993615105
aF0.34603907045734461
aF1.0022533740435924
aF1.1646161002088837
aF0.76088107832441254
aF0.72533973270225294
aF0.37030557509026291
aF0.56445339907014103
aF0.64125842893689255
aF0.40188600922395534
aF0.3952144762150443
aF0.13997119124401897
aF0.79888734014084617
aF0.15338604191924538
a.