(lp1
F0.51422409772510236
aF1.1526795099383853
aF0.82398678151875659
aF0.70470800296102132
aF1.0116009116784799
aF0.83885899174133904
aF0.8362480242006185
aF1.0266387890430204
aF0.5389965007326869
aF0.52452446812415265
aF0.53657811986840542
aF0.6472374792558675
aF1.1557707025080584
aF1.5250205706215172
aF0.8232003088081431
aF1.1567199194753903
aF0.98082925301172619
aF0.087011376989629699
aF0.68289068039275624
aF0.7326780193165805
aF0.13613217432457991
aF1.1284652518177909
aF0.68587442123086551
aF1.0614727417186529
aF0.42172562897994464
aF0.29092356637595185
aF1.02829579025065
aF0.38299225225610573
aF0.66782937257565544
aF0.56411692081621423
aF0.13633644355213118
aF0.034685557987890109
aF1.8481124057791867
aF1.7007876910223283
aF1.1882244473577968
aF0.33950714031636697
aF0.43403848055222038
aF0.73396917508020054
aF0.46203545959655862
aF-0.19319122903085847
aF0.57628284042063438
aF1.0014485402144619
aF0.051293294387550481
aF0.79850769621777162
aF0.33950714031636697
aF0.72823850037121551
aF1.1700712526502546
aF1.4415570397949402
a.