(lp1
F0.26736004922799839
aF0.37191355864060233
aF0.68952820114162605
aF0.64255638072811705
aF0.79917460057347678
aF0.52931949075956564
aF0.54367271141956819
aF0.48381161882996587
aF0.50243197814234086
aF0.18608389396536992
aF0.41610832498789829
aF0.62746726923424034
aF0.61515026534730965
aF0.93825310326982081
aF0.2401382365462871
aF0.60505612058309588
aF0.70759723794649831
aF0.33686965607476788
aF0.26724707363487432
aF0.40972976381070764
aF0.21644668330163114
aF0.65988845667953255
aF0.7138944316641993
aF0.89561462022805394
aF0.19540979467717917
aF-0.42988845311612689
aF0.49406379663887978
aF0.19472388427633819
aF0.38303972150029836
aF0.47716739291489391
aF-0.28906468791940199
aF0.023667245512409056
aF1.3449261779489035
aF1.1052808904403888
aF0.62621291353182107
aF0.078555701155009691
aF0.015023384085227621
aF0.31084911093095158
aF0.19259621342389904
aF0.048648949111446842
aF0.59963530111221397
aF0.9081230921454515
aF-0.15902285466585045
aF0.55347090337437221
aF-0.021906105903962129
aF0.07804440751647175
aF0.80444436119809082
aF0.78544602577311573
a.