(lp1
F158
aF117
aF119
aF88
aF91
aF67
aF68
aF86
aF90
aF100
aF49
aF71
aF74
aF151
aF69
aF85
aF50
aF4
aF48
aF67
aF14
aF92
aF68
aF121
aF64
aF26
aF97
aF42
aF38
aF72
aF13
aF3
aF123
aF103
aF73
aF19
aF25
aF39
aF37
aF-13
aF53
aF93
aF5
aF66
aF19
aF30
aF120
aF71
a.