(lp1
F88.900655152885662
aF32.074193065943511
aF24.273166440977576
aF35.070753567203454
aF28.635503851300996
aF25.270421720428473
aF17.861222198125414
aF19.903748662428875
aF21.267220743870052
aF26.486520873058655
aF15.998473601185934
aF21.86456546118885
aF30.346416538277445
aF22.505266049162874
aF28.368206790419137
aF23.312624084411471
aF26.637282567349402
aF24.034774514999437
aF27.180558565080538
aF20.335646876538554
aF29.677078544261633
aF29.113828820825994
aF33.454149653158169
aF18.541730922494274
aF55.619710640970858
aF15.844475416624283
aF17.472768720178983
aF21.915933097863704
aF17.909625840180265
aF14.672354106240132
aF24.489614476715087
aF21.454448739188699
aF13.508544569765348
aF9.3430849854121369
aF16.646109903206796
aF11.290928845997797
aF10.023720169456233
aF19.531432858654281
aF10.541102025819102
aF16.029489756595716
aF18.090864830630029
aF15.748544880003029
aF18.732619047774723
aF24.760632810365273
aF23.657451618292917
aF21.44541255597575
aF21.547532477112409
aF17.884358914340471
a.