(lp1
F0.255020776073283
aF-0.80136076520017807
aF0.14745273114313062
aF-0.11851860023533749
aF0.39204208777602367
aF0.29584538309094183
aF0.77932487680099771
aF0.45886588483527962
aF-0.22918586577017236
aF-0.4353180712578455
aF-0.25534669180884456
aF0.28768207245178085
aF-0.20479441264601328
aF-0.035091319811270061
aF-0.38111607909787792
aF0.16126814759612232
aF-0.052367985517315925
aF-0.5697681593994407
aF-0.55811089675600234
aF-1.2222262446352863
aF-1.4158531633614351
aF-0.40546510810816444
aF-0.42651851730599671
aF-0.52763274208237199
aF-0.54625606074549116
aF-0.49995595152908678
aF-0.26731476962734729
aF-0.3746934494414107
aF-0.034786116085415542
aF-0.2318016140573243
aF-0.20840126957700628
aF0.32790687376228989
aF0.89794159320595857
aF1.1948403207626634
aF0.010471299867295437
aF0.95155887071161305
aF-0.070204258673248573
aF-0.017699577099400975
aF0.41337028761527761
aF0
aF-0.097163748453647739
aF0.27675300191959074
aF-0.46052488529119179
aF-0.57408782054395713
aF-0.2776317365982795
aF0.18759861389479834
aF0.3637924117075963
aF0.27029032973991168
a.