(lp1
F0.28467153284671531
aF1.6052631578947369
aF2.6041666666666665
aF2.7441860465116279
aF2.4468085106382977
aF2.4230769230769229
aF1.7906976744186047
aF2.3333333333333335
aF1.5384615384615385
aF1.1777777777777778
aF3.2954545454545454
aF1.5555555555555556
aF1.8604651162790697
aF1.4464285714285714
aF1.8888888888888888
aF2.0465116279069768
aF2.7105263157894739
aF1.3333333333333333
aF0.40425531914893614
aF1.6511627906976745
aF2.3055555555555554
aF3
aF0.76595744680851063
aF0.95833333333333337
aF0.85833333333333328
aF0.51111111111111107
aF1.6595744680851063
aF1.95
aF3.4117647058823528
aF3.2982456140350878
aF2.6363636363636362
aF3.25
aF2.4130434782608696
aF2.2291666666666665
aF1.7435897435897436
aF1.1111111111111112
aF1.6956521739130435
aF3.3409090909090908
aF1.6888888888888889
aF1.9642857142857142
aF2.09375
aF0.78125
aF1.1212121212121211
aF1.4603174603174602
aF1
aF1.2352941176470589
aF2.1568627450980391
aF2.7799999999999998
a.