(lp1
F0.37948962170490369
aF0.69314718055994529
aF0.88468539245882383
aF0.93309785019053626
aF0.62057648772510998
aF1.0229004669324133
aF0.28223246768421617
aF0.12361395596717663
aF1.055127176728371
aF0.78592891401091158
aF0.44854869424447613
aF0.50179621704659649
aF0.27311365662349046
aF0.87771845708791529
aF0.21551962620355039
aF0.27311365662349046
aF-0.016807118316381289
aF-0.31424909983650273
aF-0.73349847608351271
aF-0.54856595174883782
aF-0.34705434595174994
aF-0.53302633374618325
aF0.14624550032014497
aF0.071458963982145046
aF-0.24921579162398486
aF-0.50125617274984002
aF-0.83739678940449214
aF-0.49469624183610705
aF0
aF0
aF-0.046091107200266976
aF-0.32947920113024232
aF-0.21950056003570867
aF0.26991961611194054
aF0.93342701411714235
aF0.75686299494605314
aF0.73923828776021239
aF0.50492590163880247
aF0.094558582625012572
aF0.79580133462002867
aF-0.075035185942914084
aF-0.29048712337938953
aF-0.050430853626891967
aF0.17366349405084008
aF0.68329488411693373
aF0.27193371548364176
aF-0.2546422183735807
aF-0.2256719976675684
a.