(lp1
F0.40717421401427306
aF0.47636810095095294
aF1.2242068120787333
aF0.71380691163795262
aF0.15585253021855683
aF0.24306294895583827
aF-0.19656659171261598
aF-0.1651876639011885
aF0.11907454267083133
aF0.20864916757730456
aF-0.00022589750660878405
aF0.53012999292937624
aF0.67361150917196599
aF0.49472891672451924
aF0.35845631307921855
aF0.8488268367203633
aF0.70847754391950912
aF0.13179237427576923
aF0.35225641330435581
aF0.79919695758171283
aF0.29229827236162698
aF0.57931670455996864
aF0.74413623067807444
aF0.90849602268129626
aF0.12993120893701782
aF-0.26119865275778065
aF0.65129581975188444
aF0.822852012699685
aF0.38093419784754384
aF0.56427862303751108
aF0.21277083937215552
aF0.39038192149202938
aF0.71196213431639221
aF0.27816954654919224
aF0.13334574741147967
aF0.13181472816885972
aF0.33457518370127598
aF0.060329249587506607
aF0.087655616909680031
aF0.93791258027563418
aF1.1740863036269209
aF0.36240567765402465
aF0.63464884049056358
aF0.18746422190306306
aF0.42519847406746247
aF-0.060502577738611625
aF0.14492392221172706
aF0.25641646917428762
a.