(lp1
F173
aF42
aF185
aF131
aF91
aF30
aF31
aF39
aF21
aF39
aF36
aF75
aF69
aF5
aF43
aF107
aF95
aF39
aF64
aF61
aF27
aF62
aF84
aF98
aF23
aF-13
aF40
aF88
aF54
aF94
aF47
aF62
aF96
aF60
aF10
aF39
aF59
aF49
aF34
aF87
aF38
aF23
aF107
aF31
aF66
aF48
aF-2
aF89
a.