(lp1
F0.33598455068128613
aF0.34881807244351232
aF1.1526795099383853
aF0.2843871765549284
aF0.13353139262452257
aF0.18442903913351932
aF0.065004830308995995
aF-0.55657164555419458
aF-0.5753641449035618
aF-0.28071340313568766
aF-0.16430305129127629
aF-0.15302518730552378
aF-0.13353139262452263
aF0.14585187701256314
aF0.010152371464017908
aF-0.048790164169432056
aF0.029413885206293407
aF0.12604072089536497
aF-0.11441035117774422
aF-0.1368591827171973
aF0.17246926035094298
aF0.02061928720273561
aF0.10178269430994238
aF-0.11477551459242818
aF-0.055262678675049415
aF-0.090971778205726758
aF-0.3941655528542311
aF0.3746934494414107
aF0.19259310711578442
aF0.38566248081198473
aF-0.076961041136128325
aF0.82448318262103226
aF0.95977584381389391
aF1.0414538748281612
aF0.4295626596872249
aF0.49062291644847122
aF0.83372913118113468
aF0.86081157955392651
aF0.53311066855542566
aF0.90240161971348798
aF1.0537617225027578
aF1.0672617587840336
aF0.99325177301028345
aF1.032362903126909
aF0.46262352194811296
aF0
aF1.133098464739279
aF1.052361271017354
a.