(lp1
(lp2
V\u8fc7\u65e5\u5b50
p3
aF0.38083790395152028
aa(lp4
V\u575a\u5b88
p5
aF0.41384491254961286
aa(lp6
V\u70b9\u534a
p7
aF2.5307102916245872
aa(lp8
V\u5185\u6d4b
p9
aF0.44567913659189079
aa(lp10
V\u5965\u8fea
p11
aF0.29968079874282316
aa(lp12
V\u51fa\u6765
p13
aF0.85120403751429363
aa(lp14
V\u4e0b\u5468
p15
aF0.2849206421432714
aa(lp16
V\u5929\u9ad8\u4e91\u6de1
p17
aF0.79975959829819265
aa(lp18
V\u968f
aF0.66851870488783627
aa(lp19
V\u6050\u614c\u6027
p20
aF0.41384491254961286
aa(lp21
V\u6682\u505c
p22
aF0.38083790395152028
aa(lp23
V\u5e73\u5b89
p24
aF1.142513711854561
aa(lp25
V\u6536\u9633
p26
aF0.39503378016099416
aa(lp27
V\u575a\u5b9a
p28
aF0.15620079518628416
aa(lp29
V\u4e3a\u4e3b
p30
aF0.20541580408209834
aa(lp31
V\u6c89\u7740
p32
aF0.17736210537840552
aa(lp33
V\u56fe\u5f62
p34
aF0.2665865327660642
aa(lp35
V\u62c9\u7206
p36
aF0.27158572386068347
aa(lp37
V\u5267\u672c
p38
aF0.21196934545224078
aa(lp39
V\u59d4\u5458
p40
aF0.61519969099860972
aa(lp41
V\u53ef\u653b\u53ef\u5b88
p42
aF1.2415347376488386
aa(lp43
V\u4e0b\u6ed1
p44
aF0.20506656366620324
aa(lp45
V\u529b\u4e0d\u4ece\u5fc3
p46
aF0.22283956829594539
aa(lp47
V\u8bd5\u63a2\u6027
p48
aF0.34762972654167484
aa(lp49
V\u7136
aF0.14984039937141158
aa(lp50
V\u4eba\u6c14\u6307\u6807
p51
aF0.28969143878472903
aa(lp52
V\u5438
aF0.58074164277707507
aa(lp53
V\u83b7\u5229\u76d8
p54
aF0.98556909918768798
aa(lp55
V\u5708\u5185
p56
aF0.4209261043674698
aa(lp57
V\u7ebf
aF0.2267448550046009
aa(lp58
V\u770b\u4f5c
p59
aF0.27158572386068347
aa(lp60
V\u60ca\u559c
p61
aF0.38890009540364917
aa(lp62
V\u84c4\u610f
p63
aF0.79975959829819265
aa(lp64
V\u53d1\u529b\u70b9
p65
aF0.28562842796364024
aa(lp66
V\u4e24\u5929
p67
aF0.829528516139594
aa(lp68
V\u53cd
aF0.21151667149536463
aa(lp69
V\u6df1\u6210\u6307
p70
aF0.76655374381264629
aa(lp71
V\u6700\u8212\u670d
p72
aF0.34762972654167484
aa(lp73
V\u78e8\u78e8
p74
aF0.22870376746162818
aa(lp75
V\u6b63\u5e38
p76
aF0.5090637009257778
aa(lp77
V\u8001\u9f99\u76d8
p78
aF0.5112201860906983
aa(lp79
V\u957f\u65f6\u95f4
p80
aF0.29620725862896025
aa(lp81
V\u8bdd
aF0.76655374381264629
aa(lp82
V\u96be\u4ee5
p83
aF0.41384491254961286
aa(lp84
V\u8d5e
aF0.86452654770380177
aa(lp85
V\u5357\u5927
p86
aF0.81160542249133116
aa(lp87
V\u8ba2\u9605
p88
aF0.72705418027108426
aa(lp89
V\u7efc\u5408
p90
aF0.34783089535342765
aa(lp91
V\u4e09\u7ebf
p92
aF0.49661389505953546
aa(lp93
V\u9c9c\u82b1
p94
aF6.2076736882441939
aa(lp95
V\u8dcc\u4e0b\u6765
p96
aF0.5112201860906983
aa(lp97
V\u575a\u5b9e
p98
aF0.30759984549930486
aa(lp99
V\u897f\u85cf
p100
aF0.37960654374368813
aa(lp101
V\u8f93\u6389
p102
aF0.27158572386068347
aa(lp103
V\u76c8\u5229
p104
aF0.3242758431290545
aa(lp105
V\u640f\u591a
p106
aF0.72705418027108426
aa(lp107
V\u5927\u82cf
p108
aF0.17736210537840552
aa(lp109
V\u522b\u4e70\u522b
p110
aF0.6207673688244193
aa(lp111
V\u63a5\u8fd1
p112
aF0.94447166026600504
aa(lp113
V\u56de\u6765
p114
aF0.74783662030495768
aa(lp115
V\u7eff
aF0.7345890690957817
aa(lp116
V\u78c1\u94c1
p117
aF0.2665865327660642
aa(lp118
V\u5e94\u4e3a
p119
aF0.28969143878472903
aa(lp120
V\u5b9a\u505a
p121
aF0.31038368441220965
aa(lp122
V\u7b2c\u4e00
p123
aF0.19485595103151518
aa(lp124
V\u8d70\u6cd5
p125
aF0.34762972654167484
aa(lp126
V\u7f29\u91cf
p127
aF0.66040980603446708
aa(lp128
V\u7c89\u592a\u591a
p129
aF0.79006756032198833
aa(lp130
V\u65e9\u95f4
p131
aF0.78681169456753008
aa(lp132
V\u89e3\u9664
p133
aF1.448457193923645
aa(lp134
V\u4e70\u8fc7
p135
aF0.17381486327083742
aa(lp136
V\u5b9c\u534e
p137
aF1.142513711854561
aa(lp138
V\u610f\u5473\u7740
p139
aF0.27844517300365157
aa(lp140
V\u7d27\u4e2d
p141
aF2.8969143878472901
aa(lp142
V\u62a5\u5230
p143
aF0.96563812928243009
aa(lp144
V\u7f8e\u5fb7
p145
aF0.25561009304534915
aa(lp146
V\u9664\u975e
p147
aF0.21196934545224078
aa(lp148
V\u4e24\u79cd
p149
aF0.38083790395152028
aa(lp150
V\u70b9\u4f4d
p151
aF0.36479115591157807
aa(lp152
V\u53cd\u8fc7\u6765
p153
aF0.2172685790885468
aa(lp154
V\u4e8c\u9000
p155
aF0.44431088794344031
aa(lp156
V\u6210\u529f
p157
aF0.53234473335553989
aa(lp158
V\u662f
aF0.27595447651058413
aa(lp159
V\u518d\u8fdb
p160
aF0.79006756032198833
aa(lp161
V\u7cbe\u9009
p162
aF0.69019371589761469
aa(lp163
V\u82cf\u6e1d
p164
aF0.79975959829819265
aa(lp165
V\u8bb2
aF0.37577400414987211
aa(lp166
V\u62bd\u65f6\u95f4
p167
aF0.63267757290614679
aa(lp168
V\u4e0d\u5f97
p169
aF0.66646633191516047
aa(lp170
V\u60c5\u51b5
p171
aF0.20120583868768607
aa(lp172
V\u8d2c\u503c
p173
aF0.94447166026600504
aa(lp174
V\u5e76\u975e
p175
aF0.45740753492325636
aa(lp176
V\u89c1\u8bc1
p177
aF0.4209261043674698
aa(lp178
V\u9ad8\u624b
p179
aF0.84357009720819576
aa(lp180
V\u4f9d\u8d56
p181
aF0.41384491254961286
aa(lp182
V\u7a84\u5e45
p183
aF0.64375502282797925
aa(lp184
V\u4e0d\u7528
p185
aF0.21694554886983908
aa(lp186
V\u98db\u9f8d\u76d8
p187
aF0.5112201860906983
aa(lp188
V\u4e00\u70b9\u70b9
p189
aF0.45652805015137382
aa(lp190
V\u597d\u82e6
p191
aF1.2415347376488386
aa(lp192
V\u7f51\u7edc\u6e38\u620f
p193
aF0.19751689008049708
aa(lp194
V\u505a\u505a
p195
aF2.6658653276606419
aa(lp196
V\u5165\u573a
p197
aF0.62840502447151481
aa(lp198
V\u6765\u7535
p199
aF0.86907431635418719
aa(lp200
V\u6da8\u8dcc\u5e45
p201
aF0.48281906464121505
aa(lp202
V\u597d\u574f
p203
aF0.36352709013554213
aa(lp204
V\u4e5f
aF0.14667265041410921
aa(lp205
V\u968f\u610f
p206
aF0.18599060425539363
aa(lp207
V\u66f4\u5f3a
p208
aF1.142513711854561
aa(lp209
V\u53e3\u540e
p210
aF0.17750090362077744
aa(lp211
V\u5f00\u5de5
p212
aF0.4345371581770936
aa(lp213
V\u65b0\u95fb
p214
aF0.45740753492325636
aa(lp215
V\u6536\u76ca
p216
aF0.21304496570668197
aa(lp217
V\u70ed\u6f6e
p218
aF0.41384491254961286
aa(lp219
V\u8001\u662f
p220
aF1.142513711854561
aa(lp221
V\u5b66\u4e60\u8005
p222
aF0.28969143878472903
aa(lp223
V\u63a2\u5e95
p224
aF0.41839498710611822
aa(lp225
V\u6ef4
aF0.84357009720819576
aa(lp226
V\u51f6
aF0.72705418027108426
aa(lp227
V\u6536\u76d8
p228
aF0.29027818115234139
aa(lp229
V\u5411\u4e0b
p230
aF0.1821361524457564
aa(lp231
V\u5411\u4e0a
p232
aF0.36253489372805003
aa(lp233
V\u4e0d\u9519
p234
aF1.5003628071718151
aa(lp235
V\u6536\u56de
p236
aF0.1583785021025769
aa(lp237
V\u6ca1\u80a1
p238
aF0.15519184220610482
aa(lp239
V\u629b\u538b\u91cd
p240
aF0.41384491254961286
aa(lp241
V\u91cc\u9762
p242
aF0.27114753124549146
aa(lp243
V\u76ee\u524d
p244
aF0.98580062888137532
aa(lp245
V\u6536\u5728
p246
aF0.54317144772136694
aa(lp247
V\u6e2f\u53e3
p248
aF0.79006756032198833
aa(lp249
V\u795d\u4f60\u4eec
p250
aF0.6207673688244193
aa(lp251
V\u4e0a
aF0.28205915929935133
aa(lp252
V\u589e\u6548
p253
aF0.25307102916245872
aa(lp254
V\u5e95
aF0.73646357293284104
aa(lp255
V\u8499
aF1.7381486327083744
aa(lp256
V\u6655\u4eba\u54c8
p257
aF0.18599060425539363
aa(lp258
V\u6323\u94b1
p259
aF0.280346553662641
aa(lp260
V\u6210\u4ea4\u989d
p261
aF0.44431088794344031
aa(lp262
V\u574e\u5777
p263
aF0.79975959829819265
aa(lp264
V\u7ee9\u4f18\u80a1
p265
aF0.68550822711273651
aa(lp266
V\u4e00\u6b21
p267
aF0.28799301782493003
aa(lp268
V\u5927\u6392
p269
aF0.45740753492325636
aa(lp270
V\u5403\u996d
p271
aF1.634147365640255
aa(lp272
V\u6307\u8d70
p273
aF0.13527419008458463
aa(lp274
V\u4ea7\u751f
p275
aF0.3163387864530734
aa(lp276
V\u731b\u4eba
p277
aF0.28969143878472903
aa(lp278
V\u66b4\u6da8\u66b4\u8dcc
p279
aF0.17736210537840552
aa(lp280
V\u52a0\u4ed3
p281
aF0.66981733167083346
aa(lp282
V\u89e3\u76d8
p283
aF0.34772156447747504
aa(lp284
V\u8868\u660e
p285
aF0.17381486327083742
aa(lp286
V\u90bb\u5c45
p287
aF0.66851870488783627
aa(lp288
V\u79bb
aF0.40580271124566558
aa(lp289
V\u636e\u8bf4
p290
aF0.96563812928243009
aa(lp291
V\u65e5\u5b50
p292
aF0.41735764371907674
aa(lp293
V\u9524\u5b50
p294
aF0.18892919920743198
aa(lp295
V\u5c3e
aF0.18105714924045563
aa(lp296
V\u906d\u9047
p297
aF0.24480966657864425
aa(lp298
V\u6da8\u8fb9
p299
aF0.16093968821373833
aa(lp300
V\u4e2a\u70b9
p301
aF0.56457916063896996
aa(lp302
V\u53cd\u8f6c
p303
aF0.48406522236488475
aa(lp304
V\u6781\u5ea6
p305
aF0.19670292364188252
aa(lp306
V\u52ff\u6270
p307
aF0.72422859696182251
aa(lp308
V\u6848\u4f8b
p309
aF0.25561009304534915
aa(lp310
V\u6ca1\u60f3
p311
aF0.17381486327083742
aa(lp312
V\u5c24\u4e3a
p313
aF0.33425935244391813
aa(lp314
V\u6ca1\u80fd
p315
aF0.15460758538584887
aa(lp316
V\u62c9\u5347
p317
aF0.36534064240773245
aa(lp318
V\u9669\u4e9b
p319
aF0.33323316595758024
aa(lp320
V\u4f1a\u5927\u4e9b
p321
aF0.22870376746162818
aa(lp322
V\u6559\u8bad
p323
aF0.4345371581770936
aa(lp324
V\u8fd9\u662f
p325
aF0.43755670043430961
aa(lp326
V\u4e00\u6b65
p327
aF0.36211429848091126
aa(lp328
V\u4f4e\u5f00
p329
aF0.18280660063317183
aa(lp330
V\u4e0b\u5730\u5e72\u6d3b
p331
aF1.7381486327083744
aa(lp332
V\u5e7f\u544a\u8bcd
p333
aF0.57938287756945805
aa(lp334
V\u4e3b\u8981
p335
aF0.19751519623278685
aa(lp336
V\u697c\u54e5
p337
aF0.41384491254961286
aa(lp338
V\u6052\u4fe1
p339
aF0.6131666376805962
aa(lp340
V\u8001
aF0.53963795771772793
aa(lp341
V\u660e\u5929
p342
aF0.27788131719044085
aa(lp343
V\u626b\u7801
p344
aF0.72705418027108426
aa(lp345
V\u589e\u91cf
p346
aF0.63267757290614679
aa(lp347
V\u667a\u6167
p348
aF0.34305565119244225
aa(lp349
V\u7231\u60dc
p350
aF0.21196934545224078
aa(lp351
V\u84dd\u9edb
p352
aF1.0863428954427339
aa(lp353
V\u8001\u674e
p354
aF0.19446964463747093
aa(lp355
V\u8fd1\u5728\u54ab\u5c3a
p356
aF0.86907431635418719
aa(lp357
V\u665a\u4f1a
p358
aF0.41384491254961286
aa(lp359
V\u671f\u6307
p360
aF0.52239128948867564
aa(lp361
V\u672a\u6765
p362
aF0.70577759072730606
aa(lp363
V\u4f1a\u5356
p364
aF0.20211030612888073
aa(lp365
V\u6307\u8dcc
p366
aF0.14907038372289758
aa(lp367
V\u6765\u6362
p368
aF0.6207673688244193
aa(lp369
V\u4e2d\u4fe1
p370
aF1.7381486327083744
aa(lp371
V\u63a5\u4e0b
p372
aF0.13110813086855619
aa(lp373
V\u96c5\u6ea5
p374
aF0.20061540478990136
aa(lp375
V\u8001\u6768
p376
aF0.39958583551967164
aa(lp377
V\u53cc\u91cd
p378
aF0.41320635136637723
aa(lp379
V\u636e\u6b64
p380
aF0.79006756032198833
aa(lp381
V\u610f\u89c1
p382
aF0.91305610030274764
aa(lp383
V\u9502\u7535\u6c60
p384
aF0.18535682709167678
aa(lp385
V\u52a8\u6447
p386
aF0.36211429848091126
aa(lp387
V\u9891\u7387
p388
aF0.96563812928243009
aa(lp389
V\u8fd8\u884c
p390
aF0.28969143878472903
aa(lp391
V\u745e\u7fd4
p392
aF0.3160270241287953
aa(lp393
V\u514b
aF0.72422859696182251
aa(lp394
V\u4eca
aF1.448457193923645
aa(lp395
V\u524d
aF0.26283779795283629
aa(lp396
V\u4e8c\u516b
p397
aF0.6207673688244193
aa(lp398
V\u54ce
aF1.7381486327083744
aa(lp399
V\u903e
aF0.26450325547006109
aa(lp400
V\u6807\u7684
p401
aF0.38286211288002092
aa(lp402
V\u672c\u535a
p403
aF0.31363121501889907
aa(lp404
V\u4e0d\u5438
p405
aF0.31038368441220965
aa(lp406
V\u65f6\u8981
p407
aF0.25561009304534915
aa(lp408
V\u4e0d\u540c
p409
aF0.56650442008862167
aa(lp410
V\u6a21\u7cca
p411
aF0.32187937642747666
aa(lp412
V\u6e38\u8d44
p413
aF0.19979291775983582
aa(lp414
V\u6709\u5229
p415
aF0.26227056485584338
aa(lp416
V\u7b2c\u4e8c\u53ea
p417
aF1.448457193923645
aa(lp418
V\u6390\u7740
p419
aF0.27158572386068347
aa(lp420
V\u8870\u7aed\u6027
p421
aF2.5307102916245872
aa(lp422
V\u6709\u5927
p423
aF0.49139677465752513
aa(lp424
V\u683c\u5c40
p425
aF0.32662297440809845
aa(lp426
V\u9274\u80a1
p427
aF0.66404080022018008
aa(lp428
V\u98de\u54e5
p429
aF0.280346553662641
aa(lp430
V\u9634\u661f
p431
aF0.72422859696182251
aa(lp432
V\u90a3\u5929
p433
aF0.43383604999278635
aa(lp434
V\u867d\u7136
p435
aF0.33992268077268184
aa(lp436
V\u8036\u4f26
p437
aF0.5112201860906983
aa(lp438
V\u6655\u4eba
p439
aF0.20211030612888073
aa(lp440
V\u7f3a\u5927
p441
aF0.2213469334067267
aa(lp442
V\u518d
aF0.20498081921023081
aa(lp443
V\u5f52\u6765
p444
aF0.30368523499495048
aa(lp445
V\u8fd9\u5c4a
p446
aF0.4345371581770936
aa(lp447
V\u6316
aF1.2769564854167625
aa(lp448
V\u8054\u7cfb
p449
aF0.96563812928243009
aa(lp450
V\u5c31
aF0.38634213948056317
aa(lp451
V\u6709\u51fa
p452
aF0.25561009304534915
aa(lp453
V\u771f\u50bb
p454
aF0.28969143878472903
aa(lp455
V\u6982\u51b5
p456
aF0.15801351206439765
aa(lp457
V\u98d8\u7ea2
p458
aF0.45740753492325636
aa(lp459
V\u7206
aF0.2104630521837349
aa(lp460
V\u4e0b\u964d
p461
aF0.2823268950524197
aa(lp462
V\u4e00\u6837
p463
aF0.42560201875714682
aa(lp464
V\u4e8c\u5341\u65e5
p465
aF0.39987979914909633
aa(lp466
V\u4e00\u6839
p467
aF0.44075344145746903
aa(lp468
V\u5229\u7a7a\u6d88\u606f
p469
aF0.96563812928243009
aa(lp470
V\u6781\u81f4
p471
aF0.3300926467336418
aa(lp472
V\u4e48
aF0.62718033584671062
aa(lp473
V\u91cd
aF0.68989836943138172
aa(lp474
V\u574e
aF0.31990383931927707
aa(lp475
V\u516c\u4f17
p476
aF0.45740753492325636
aa(lp477
V\u98db\u9f8d
p478
aF0.27595934777255265
aa(lp479
V\u80d6\u5934\u9640
p480
aF3.4762972654167488
aa(lp481
V\u8d8a\u6765\u8d8a\u4f4e
p482
aF0.6207673688244193
aa(lp483
V\u5b66
aF0.29620725862896025
aa(lp484
V\u963b\u529b
p485
aF0.26311677538811362
aa(lp486
V\u5927\u80dc
p487
aF1.0845901249819658
aa(lp488
V\u5f88\u5927
p489
aF0.96672856760761783
aa(lp490
V\u4e3a\u51c6
p491
aF0.35544871035475228
aa(lp492
V\u732a\u8089
p493
aF0.38197168154150896
aa(lp494
V\u50cf\u662f
p495
aF0.15995191965963854
aa(lp496
V\u770b\u6de1
p497
aF0.79006756032198833
aa(lp498
V\u521b\u4e1a
p499
aF1.0646930117579709
aa(lp500
V\u6551\u4e3b
p501
aF0.5112201860906983
aa(lp502
V\u8d8a
aF0.1613782889047097
aa(lp503
V\u6bcf\u6b21
p504
aF0.24927887343498589
aa(lp505
V\u7b11
aF0.35341118112001935
aa(lp506
V\u5b9e\u76d8
p507
aF0.45987497826044715
aa(lp508
V\u91cd\u4e0e\u8f7b
p509
aF0.86907431635418719
aa(lp510
V\u4e8f\u6b7b
p511
aF0.86907431635418719
aa(lp512
V\u5e95\u90e8
p513
aF0.76331154989476002
aa(lp514
V\u56e0\u4e3a
p515
aF0.29161655662365099
aa(lp516
V\u65b0\u578b
p517
aF0.54471578854675173
aa(lp518
V\u524d\u4e9b\u5929
p519
aF0.5112201860906983
aa(lp520
V\u6ca1\u4ec0\u4e48
p521
aF0.31482388675533501
aa(lp522
V\u4ece\u5e7f\u665f
p523
aF0.26335585344066276
aa(lp524
V\u592a\u725b
p525
aF1.448457193923645
aa(lp526
V\u6709\u5173
p527
aF0.34783089535342765
aa(lp528
V\u522e\u5956
p529
aF0.96563812928243009
aa(lp530
V\u656c\u8bf7
p531
aF0.32187937642747666
aa(lp532
V\u51fa\u5c0f\u4ed3
p533
aF0.38083790395152028
aa(lp534
V\u5f00\u53d1\u8005
p535
aF0.27577917182696299
aa(lp536
V\u66b4\u6da8
p537
aF0.2777460030672968
aa(lp538
V\u70b9\u8d5e
p539
aF0.30554327071031712
aa(lp540
V\u5927\u800c
p541
aF0.33425935244391813
aa(lp542
V\u90e8\u5206
p543
aF0.97427975515757592
aa(lp544
V\u6b65\u5b50
p545
aF0.57938287756945805
aa(lp546
V\u7565\u6709\u4e0d\u540c
p547
aF0.24830694752976773
aa(lp548
V\u51fa\u624b
p549
aF1.3222603243724071
aa(lp550
V\u76d8\u5c40
p551
aF0.14484571939236451
aa(lp552
V\u5b50\u5f39
p553
aF0.73044488024219811
aa(lp554
V\U0001f44f
aF1.1335751952445918
aa(lp555
V\u5b66\u4e60
p556
aF0.1994733873551485
aa(lp557
V\u79d2
aF0.45740753492325636
aa(lp558
V\u672c\u9053
p559
aF0.31038368441220965
aa(lp560
V\u6c5f\u7c89
p561
aF0.24062652399121362
aa(lp562
V\u6a2a\u76d8
p563
aF0.32463972512971195
aa(lp564
V\u5206\u65f6\u91cf
p565
aF0.280346553662641
aa(lp566
V\u7565
aF0.4345371581770936
aa(lp567
V\u5956\u8865
p568
aF0.66851870488783627
aa(lp569
V\u81f3\u4eca
p570
aF0.41384491254961286
aa(lp571
V\u725b\u6563\u7968
p572
aF0.42178504860409788
aa(lp573
V\u8fde\u7eed
p574
aF0.25931209424281476
aa(lp575
V\u5728
aF0.19550617503588141
aa(lp576
V\u7279\u522b
p577
aF0.64448571173841185
aa(lp578
V\u597d
aF0.17623204797774003
aa(lp579
V\u6b22\u8fce
p580
aF0.73976930516276129
aa(lp581
V\u62a5\u9053
p582
aF0.37471294524925325
aa(lp583
V\u591a\u5927
p584
aF0.4209261043674698
aa(lp585
V\u5151\u73b0
p586
aF0.15995191965963854
aa(lp587
V\u5f39\u836f
p588
aF1.7381486327083744
aa(lp589
V\u4f1a\u51c6
p590
aF0.57938287756945805
aa(lp591
V\u7403
aF0.79975959829819265
aa(lp592
V\u522b\u5fd8\u4e86
p593
aF0.81160542249133116
aa(lp594
V\u9002\u5e94
p595
aF0.41013312733240648
aa(lp596
V\u6728\u6869
p597
aF0.280346553662641
aa(lp598
V\u661f\u7c89
p599
aF0.17381486327083742
aa(lp600
V\u6216
aF1.1199401420367112
aa(lp601
V\u4e00\u4e9b
p602
aF0.1689983280493777
aa(lp603
V\u597d\u591a
p604
aF0.32118252449935991
aa(lp605
V\u8d70\u4f4e
p606
aF0.56188067710938316
aa(lp607
V\u56fd\u6295
p608
aF0.99969949787274082
aa(lp609
V\u9022
aF1.5970395176369565
aa(lp610
V\u56de\u843d
p611
aF0.23490050230503931
aa(lp612
V\u7ea2\u76d8
p613
aF1.4608897604843962
aa(lp614
V\u5f15\u53d1
p615
aF0.47450817967961012
aa(lp616
V\u521b\u8fbe
p617
aF0.88516315638847143
aa(lp618
V\u79cb\u6797
p619
aF0.32187937642747666
aa(lp620
V\u6da8\u8dcc
p621
aF0.16977020704751219
aa(lp622
V\u8bc1\u5238
p623
aF0.42587720470318841
aa(lp624
V\u5230\u4f4d
p625
aF0.59031987147324116
aa(lp626
V\u57c3\u53ca
p627
aF0.51883330880665834
aa(lp628
V\u6321\u4e0d\u4f4f
p629
aF1.7381486327083744
aa(lp630
V\u5468\u56db
p631
aF0.20162470822369935
aa(lp632
V\u518d\u6b21\u51fa\u73b0
p633
aF0.91305610030274764
aa(lp634
V\u6548\u5e94
p635
aF0.78752704759913228
aa(lp636
V\u51e0\u5c0f\u65f6
p637
aF0.22283956829594539
aa(lp638
V\u5916\u5a92
p639
aF0.72705418027108426
aa(lp640
V\u6492\u54c8\u62c9
p641
aF0.49661389505953546
aa(lp642
V\u5760\u6d77
p643
aF0.5331730655321284
aa(lp644
V\u6bdb
aF0.3160270241287953
aa(lp645
V\u52a0\u6cb9
p646
aF0.78681169456753008
aa(lp647
V\u8ddf
aF1.7024080750285873
aa(lp648
V\u56de\u6478
p649
aF0.27158572386068347
aa(lp650
V\u5360
aF0.34509685794880735
aa(lp651
V\u5386\u5e74
p652
aF0.34762972654167484
aa(lp653
V\u6e2f\u80a1
p654
aF0.37785839841486396
aa(lp655
V\u666e
aF1.0434926860602829
aa(lp656
V\u5df4\u83f2\u7279
p657
aF1.5995191965963853
aa(lp658
V\u9632\u6b62
p659
aF0.36153004166065533
aa(lp660
V\u6362\u4ed3
p661
aF1.2415347376488386
aa(lp662
V\u6b7b\u53c9
p663
aF0.22826402507568691
aa(lp664
V\u8d2a\u5fc3
p665
aF1.0663461310642568
aa(lp666
V\u4f9d\u987f
p667
aF0.44075344145746903
aa(lp668
V\u4f1a\u51b2
p669
aF0.66646633191516047
aa(lp670
V\u6380
aF0.41384491254961286
aa(lp671
V\u53ea\u5356
p672
aF0.88862177588688063
aa(lp673
V\u4e2d\u8dcc
p674
aF0.96563812928243009
aa(lp675
V\u500d
aF0.75154800829974422
aa(lp676
V\u666e\u5929\u540c\u5e86
p677
aF0.34772156447747504
aa(lp678
V\u9884\u671f
p679
aF0.94916848166464673
aa(lp680
V\u5b8b\u9a70
p681
aF0.36211429848091126
aa(lp682
V\u6389\u4e0b\u6765
p683
aF0.36211429848091126
aa(lp684
V\u699c
aF0.6207673688244193
aa(lp685
V\u7fa4\u4e70
p686
aF0.28969143878472903
aa(lp687
V\u4e0a\u8bc1\u7efc\u6307
p688
aF0.57938287756945805
aa(lp689
V\u65e9\u76d8
p690
aF0.29772911259375973
aa(lp691
V\u80a1\u5e02
p692
aF0.25151158726914341
aa(lp693
V\u968f\u624b
p694
aF0.86907431635418719
aa(lp695
V\u5927
aF0.1639866233991136
aa(lp696
V\u5b66\u4f1a
p697
aF0.24348162674739937
aa(lp698
V\u5269\u4e0b
p699
aF0.96354757349807973
aa(lp700
V\u5b81\u53ef
p701
aF0.34509685794880735
aa(lp702
V\u8fd9\u4e09\u53ea
p703
aF0.49661389505953546
aa(lp704
V\u53d8\u4e3a
p705
aF0.44431088794344031
aa(lp706
V\u519c\u7267
p707
aF0.39503378016099416
aa(lp708
V\u5f62\u6210
p709
aF0.87612599317612094
aa(lp710
V\u5ea6\u8fc7
p711
aF0.280346553662641
aa(lp712
V\u4eba\u6c14
p713
aF0.47885868203128595
aa(lp714
V\u56de\u64a4
p715
aF0.6744100239150258
aa(lp716
V\u5c1d\u8bd5
p717
aF0.19670292364188252
aa(lp718
V\u6210\u672c\u4ef7
p719
aF0.57938287756945805
aa(lp720
V\u8d44\u91d1\u9762
p721
aF0.25551791460421541
aa(lp722
V\u552f\u6709
p723
aF0.14281421398182012
aa(lp724
V\u8d76\u7d27
p725
aF0.50614205832491743
aa(lp726
V\u4e00\u89c8
p727
aF0.66851870488783627
aa(lp728
V\u51fa\u529b
p729
aF0.51883330880665834
aa(lp730
V\u91cc
aF1.3141889897641814
aa(lp731
V\u5f53
aF0.15860485039633829
aa(lp732
V\u65f6\u6bb5
p733
aF0.57125685592728048
aa(lp734
V\u7a7a\u5934
p735
aF1.1110497895225444
aa(lp736
V\u97f5\u5347
p737
aF0.7494258904985065
aa(lp738
V\u4f01\u4e1a
p739
aF0.50856166322015661
aa(lp740
V\u5f53\u65e5
p741
aF0.41384491254961286
aa(lp742
V\u5f88\u8f7b
p743
aF0.26335585344066276
aa(lp744
V\u7279\u9080\u5609\u5bbe
p745
aF0.86907431635418719
aa(lp746
V\u5c01\u4e0d\u4e0a
p747
aF0.66851870488783627
aa(lp748
V\u674e\u658c
p749
aF0.25171391562974005
aa(lp750
V\u74f6\u9888
p751
aF0.16810942290915332
aa(lp752
V\u523b\u610f
p753
aF0.39503378016099416
aa(lp754
V\u884c\u7a0b
p755
aF0.24140953232060752
aa(lp756
V\u54ea\u91cc
p757
aF0.77572956421923389
aa(lp758
V\u9177
aF1.3797967388627634
aa(lp759
V\u80c6\u5927
p760
aF0.6207673688244193
aa(lp761
V\u4e0d\u6562
p762
aF0.20606961517896213
aa(lp763
V\u63d0\u9192
p764
aF0.20257439358839147
aa(lp765
V\u723d\u6b6a\u6b6a
p766
aF0.4209261043674698
aa(lp767
V\u8fdf\u8fdf
p768
aF0.54229506249098292
aa(lp769
V\u663e\u793a
p770
aF0.31482388675533501
aa(lp771
V\u6ed1\u7834
p772
aF0.36211429848091126
aa(lp773
V\u4ee5\u6b65
p774
aF0.37785839841486396
aa(lp775
V\u4e00\u4e0b
p776
aF0.1880703646791039
aa(lp777
V\u836f\u8f85
p778
aF0.39503378016099416
aa(lp779
V\u7a0d\u5dee
p780
aF0.45740753492325636
aa(lp781
V\u5c0f\u6563
p782
aF0.14541083605421684
aa(lp783
V\u6df7\u4e2a
p784
aF0.18892919920743198
aa(lp785
V\u6280\u672f
p786
aF0.18619190805230465
aa(lp787
V\u7559\u7ed9
p788
aF0.2665865327660642
aa(lp789
V\u6253\u8138
p790
aF0.18490942901152915
aa(lp791
V\u8001\u4ed9\u76d8
p792
aF0.5112201860906983
aa(lp793
V\u673a\u573a
p794
aF0.14281421398182012
aa(lp795
V\u771f\u7684
p796
aF1.6862082536216396
aa(lp797
V\u5f3a\u5f31
p798
aF0.2499248744681852
aa(lp799
V\u6c11\u8fdb\u515a
p800
aF0.22283956829594539
aa(lp801
V\u51fa\u8d27
p802
aF0.50375508982220563
aa(lp803
V\u4e94\u65e5
p804
aF0.5235952327499146
aa(lp805
V\u4e00\u4e2a
p806
aF0.1202547913961924
aa(lp807
V\u4e4b\u610f
p808
aF0.26335585344066276
aa(lp809
V\u524d\u5217
p810
aF0.72705418027108426
aa(lp811
V\u53d7\u91cf
p812
aF0.19312762585648602
aa(lp813
V\u5c31\u6b64
p814
aF0.16397628610456361
aa(lp815
V\u5176\u4ed6
p816
aF0.33500064058752238
aa(lp817
V\u533a
aF0.53069105340875511
aa(lp818
V\u957f\u957f\u7684
p819
aF0.48281906464121505
aa(lp820
V\u5f88\u68d2
p821
aF0.30759984549930486
aa(lp822
V\u4e1a\u5185
p823
aF0.15801351206439765
aa(lp824
V\u53d7\u538b
p825
aF0.18176354506777107
aa(lp826
V\u5bf9\u5f85
p827
aF0.39330299317146883
aa(lp828
V\u6307\u6807
p829
aF1.4956732406099154
aa(lp830
V\u6539
aF0.17040672869689943
aa(lp831
V\u5065\u5eb7
p832
aF0.57489579320539441
aa(lp833
V\u9501\u5b9a
p834
aF0.51883330880665834
aa(lp835
V\u63d0\u632f
p836
aF0.26335585344066276
aa(lp837
V\u8f6e\u52a8
p838
aF0.36352709013554213
aa(lp839
V\u6446\u8131
p840
aF0.66646633191516047
aa(lp841
V\u9762
aF1.1273220124496164
aa(lp842
V\u62e5\u6709
p843
aF1.0863428954427339
aa(lp844
V\u60ca\u4eba
p845
aF0.99969949787274082
aa(lp846
V\u65b0\u5174
p847
aF0.28061740291164655
aa(lp848
V\u822a\u73ed
p849
aF0.50614205832491743
aa(lp850
V\u7092\u4f5c
p851
aF0.50438012223006146
aa(lp852
V\u6df1
aF0.96390843052679609
aa(lp853
V\u8d62\u53d6
p854
aF1.0863428954427339
aa(lp855
V\u548b
aF0.92764551231509318
aa(lp856
V\u591a\u70b9
p857
aF0.5555248947612722
aa(lp858
V\u7b80\u76f4
p859
aF0.20946834149050492
aa(lp860
V\u8f6c\u5f31
p861
aF0.37785839841486396
aa(lp862
V\u77ed\u6682
p863
aF0.19751689008049708
aa(lp864
V\u60f3\u8c61
p865
aF0.72150206513396142
aa(lp866
V\u72af\u56f0
p867
aF1.2415347376488386
aa(lp868
V\u89c2\u70b9
p869
aF0.18239557795578903
aa(lp870
V\u8d85\u8dcc
p871
aF0.15681408403966687
aa(lp872
V\u9ad8\u660e
p873
aF0.86907431635418719
aa(lp874
V\u6284
aF0.44659593381610363
aa(lp875
V\u4e07
aF0.37471294524925325
aa(lp876
V\u4e0d\u516c
p877
aF1.0863428954427339
aa(lp878
V\u632f\u5e45
p879
aF0.17381486327083742
aa(lp880
V\u7b49\u4e8e
p881
aF0.39987979914909633
aa(lp882
V\u73b0\u5b9e
p883
aF0.33425935244391813
aa(lp884
V\u7ade\u5f97
p885
aF0.2104630521837349
aa(lp886
V\u6536\u4e0d\u56de
p887
aF0.22870376746162818
aa(lp888
V\u5b66\u6821
p889
aF0.280346553662641
aa(lp890
V\u9636\u6bb5
p891
aF0.14430041302679228
aa(lp892
V\u673a\u7535
p893
aF0.31359016792335531
aa(lp894
V\u5c0f\u65f6
p895
aF0.15960075703393006
aa(lp896
V\u5e73\u5f00
p897
aF0.84357009720819576
aa(lp898
V\u91cd\u70b9
p899
aF0.25272317699231955
aa(lp900
V\u4fbf\u6765
p901
aF0.27158572386068347
aa(lp902
V\u6e38\u51fb\u961f
p903
aF1.0863428954427339
aa(lp904
V\u6f2b\u6b65
p905
aF0.28094033855469158
aa(lp906
V\u5929
aF0.29014154385231189
aa(lp907
V\u5929\u6e90
p908
aF1.1199401420367112
aa(lp909
V\u4e9b\u8bb8
p910
aF0.22283956829594539
aa(lp911
V\u7167\u8fdb
p912
aF0.33425935244391813
aa(lp913
V\u5408\u5eb7
p914
aF1.448457193923645
aa(lp915
V\u51cf\u6301
p916
aF0.44075344145746903
aa(lp917
V\u6807\u53ef
p918
aF0.18076502083032767
aa(lp919
V\u5408\u7ea6
p920
aF1.2415347376488386
aa(lp921
V\u57fa\u91d1
p922
aF0.57806573478430778
aa(lp923
V\u6284\u5230
p924
aF0.57938287756945805
aa(lp925
V\u9633\u661f
p926
aF0.72422859696182251
aa(lp927
V\u5f00\u59cb
p928
aF0.16069197103591312
aa(lp929
V\u5176\u4e2d
p930
aF0.75096513700810363
aa(lp931
V\u6d41\u901a\u76d8
p932
aF0.86907431635418719
aa(lp933
V\u5fae\u535a
p934
aF0.66504379962490923
aa(lp935
V\u4e0d\u7136
p936
aF0.32118252449935991
aa(lp937
V\u94a2\u6784
p938
aF0.79006756032198833
aa(lp939
V\u9ed1\u7329\u7329
p940
aF0.5112201860906983
aa(lp941
V\u51fa\u6389
p942
aF0.32187937642747666
aa(lp943
V\u78e8
aF0.43118648089461353
aa(lp944
V\u77e5\u9053
p945
aF0.21903149829403024
aa(lp946
V\u7231\u65bd
p947
aF0.3300926467336418
aa(lp948
V\u5e02\u76c8\u7387
p949
aF0.76394336308301791
aa(lp950
V\u795d\u8d3a
p951
aF0.36522244012109906
aa(lp952
V\u8ba9
aF0.21535102370689144
aa(lp953
V\u5bd2
aF0.39503378016099416
aa(lp954
V\u65b9\u5411
p955
aF0.23868601975976428
aa(lp956
V\u5f55
aF0.41384491254961286
aa(lp957
V\u7c7b
aF0.52890412974896284
aa(lp958
V\u53d1\u91cc
p959
aF0.39675488320509167
aa(lp960
V\u6539\u9769
p961
aF0.20299509324979037
aa(lp962
V\u5f85\u4f1a\u513f
p963
aF0.79975959829819265
aa(lp964
V\u521a\u624d
p965
aF0.88654807339341013
aa(lp966
V\u4fdd\u5b58
p967
aF0.22283956829594539
aa(lp968
V\u4eba\u8981
p969
aF0.26335585344066276
aa(lp970
V\u62c9\u770b
p971
aF0.21196934545224078
aa(lp972
V\u6025\u7f3a
p973
aF0.17381486327083742
aa(lp974
V\u4e00\u4f1a
p975
aF0.22576199858262871
aa(lp976
V\u5bc2\u5bde
p977
aF0.280346553662641
aa(lp978
V\u519c\u4e1a\u94f6\u884c
p979
aF0.40737858579102521
aa(lp980
V\u5173\u4e8e
p981
aF0.8116898232757066
aa(lp982
V\u7d2f\u79ef
p983
aF0.56188067710938316
aa(lp984
V\u4e0b\u4e0d\u6765
p985
aF0.19138662840831816
aa(lp986
V\U0001f622
aF0.96563812928243009
aa(lp987
V\u5c42\u9762
p988
aF0.34772156447747504
aa(lp989
V\u76f8\u53cd
p990
aF0.38083790395152028
aa(lp991
V\u534a\u5e74
p992
aF0.96563812928243009
aa(lp993
V\u6700\u9ad8\u70b9
p994
aF0.18490942901152915
aa(lp995
V\U0001f436
aF0.32795257220912721
aa(lp996
V\u70b9
aF0.39281221474593025
aa(lp997
V\u7406\u4f1a
p998
aF0.6207673688244193
aa(lp999
V\u8c03\u6574
p1000
aF0.1321921536338207
aa(lp1001
V\u5b9e\u6218
p1002
aF0.9054411042533983
aa(lp1003
V\u673a\u5668
p1004
aF0.25561009304534915
aa(lp1005
V\u53cd\u6b63
p1006
aF0.44965553429910388
aa(lp1007
V\u5e74\u5316
p1008
aF0.12415347376488386
aa(lp1009
V\u516c\u76ca
p1010
aF0.84103966098792293
aa(lp1011
V\u4e3a\u6b62
p1012
aF0.6207673688244193
aa(lp1013
V\u80fd\u4ee5
p1014
aF0.22870376746162818
aa(lp1015
V\u9ad8\u5904
p1016
aF0.39503378016099416
aa(lp1017
V\u8054\u52a8
p1018
aF0.25974074344822612
aa(lp1019
V\u5168\u9762
p1020
aF0.33471598968489458
aa(lp1021
V\u6b23\u8d4f
p1022
aF0.6207673688244193
aa(lp1023
V\u5e94\u8be5
p1024
aF0.34575682584512951
aa(lp1025
V\u4e70\u7968
p1026
aF0.29995581279625289
aa(lp1027
V\u8239\u8236
p1028
aF0.94901635935922024
aa(lp1029
V\u72ed\u8def\u76f8\u9022
p1030
aF0.36211429848091126
aa(lp1031
V\u7ecf\u8fc7
p1032
aF0.41654736771222184
aa(lp1033
V\u7968
aF0.40344572226177422
aa(lp1034
V\u9664\u6743
p1035
aF0.47044682252834863
aa(lp1036
V\u8d70
aF0.21456770789005358
aa(lp1037
V\u544a\u4e00\u6bb5\u843d
p1038
aF0.28562842796364024
aa(lp1039
V\u7092\u80a1
p1040
aF0.9681304447297695
aa(lp1041
V\u4e2d\u6bc5
p1042
aF0.53069105340875511
aa(lp1043
V\u4ee3\u8868
p1044
aF0.16560126028272371
aa(lp1045
V\u671f\u671b
p1046
aF0.44948913505310722
aa(lp1047
V\u73a9\u7d2f
p1048
aF0.31038368441220965
aa(lp1049
V\u540c\u82b1\u987a
p1050
aF0.28745765392974232
aa(lp1051
V\u6709\u9650
p1052
aF0.36034081212237262
aa(lp1053
V\u6d88\u5316
p1054
aF0.13764965335686852
aa(lp1055
V\u5c11
aF0.62718033584671062
aa(lp1056
V\u540c\u6b65
p1057
aF0.51883330880665834
aa(lp1058
V\u836f\u4e1a
p1059
aF2.1726857908854678
aa(lp1060
V\u7ffb\u8eab
p1061
aF0.13788958591348149
aa(lp1062
V\u95ee
aF0.18911518231020666
aa(lp1063
V\u6e1d
aF0.17736210537840552
aa(lp1064
V\u4e3b\u6d41
p1065
aF0.17730961467868203
aa(lp1066
V\u5927\u9006\u8f6c
p1067
aF0.79006756032198833
aa(lp1068
V\u540e\u671f
p1069
aF0.35499121128876621
aa(lp1070
V\u5176\u4f59
p1071
aF0.21645061954018843
aa(lp1072
V\u4e00\u8fb9
p1073
aF0.46976990073199304
aa(lp1074
V\u5927\u6709
p1075
aF0.26335585344066276
aa(lp1076
V\u4ece\u672a
p1077
aF0.37785839841486396
aa(lp1078
V\u63a5\u89e6
p1079
aF0.27158572386068347
aa(lp1080
V\u5728\u7ebf
p1081
aF0.71828802304692896
aa(lp1082
V\u653b\u7834
p1083
aF0.22870376746162818
aa(lp1084
V\u6709\u592a\u9ad8
p1085
aF0.39503378016099416
aa(lp1086
V\u641e\u7b11
p1087
aF1.7381486327083744
aa(lp1088
V\u4e0d\u96be
p1089
aF0.31990383931927707
aa(lp1090
V\u4e09\u5206\u4e4b\u4e00
p1091
aF0.33425935244391813
aa(lp1092
V\u5206\u65f6\u56fe
p1093
aF0.46012914393174315
aa(lp1094
V\u5200\u53e3
p1095
aF0.4345371581770936
aa(lp1096
V\u56e2
aF0.54317144772136694
aa(lp1097
V\u7b56\u7565
p1098
aF0.47373346910770187
aa(lp1099
V\u91cd\u91cd
p1100
aF0.66404080022018008
aa(lp1101
V\u5238\u5546
p1102
aF0.47220323655230834
aa(lp1103
V\u6c34\u5e73
p1104
aF1.2174081337369969
aa(lp1105
V\u4e0b\u5230
p1106
aF2.8969143878472901
aa(lp1107
V\u8bf4
aF0.27590943202783513
aa(lp1108
V\u5fb7\u6613\u5c1a
p1109
aF0.37785839841486396
aa(lp1110
V\u6b63\u5b97
p1111
aF1.7381486327083744
aa(lp1112
V\u51cf\u51fa
p1113
aF0.69019371589761469
aa(lp1114
V\u5fc3\u4e8b
p1115
aF0.18490942901152915
aa(lp1116
V\u4f18\u5148
p1117
aF0.72422859696182251
aa(lp1118
V\u81ea\u8d38
p1119
aF0.14281421398182012
aa(lp1120
V\u5783\u573e\u80a1
p1121
aF0.27158572386068347
aa(lp1122
V\u653e\u5230
p1123
aF0.4345371581770936
aa(lp1124
V\u642c\u4e2a
p1125
aF0.13579286193034174
aa(lp1126
V\u5468\u5c0f\u5f6c
p1127
aF0.18105714924045563
aa(lp1128
V\u670b\u7968
p1129
aF0.79006756032198833
aa(lp1130
V\u7a00\u91cc\u7cca\u6d82
p1131
aF0.33425935244391813
aa(lp1132
V\u540c
aF0.45652805015137382
aa(lp1133
V\u7a0d\u5feb
p1134
aF0.41320635136637723
aa(lp1135
V\u9ad8\u5927
p1136
aF0.36211429848091126
aa(lp1137
V\u5c0f\u677f
p1138
aF0.18892919920743198
aa(lp1139
V\u667a\u80fd
p1140
aF0.64935185862056533
aa(lp1141
V\u63a2\u9876
p1142
aF0.54317144772136694
aa(lp1143
V\u8fbe\u65af
p1144
aF0.20692245627480643
aa(lp1145
V\u624b\u673a
p1146
aF0.70813052511077723
aa(lp1147
V\u513f\u7ae5
p1148
aF0.17040672869689943
aa(lp1149
V\u811a
aF0.36153004166065533
aa(lp1150
V\u56f4\u89c2
p1151
aF0.99969949787274082
aa(lp1152
V\u5192\u4e2a
p1153
aF0.18892919920743198
aa(lp1154
V\u9644\u8fd1
p1155
aF1.086734435422047
aa(lp1156
V\u8fb9\u6218\u8fb9
p1157
aF0.30759984549930486
aa(lp1158
V\u4e0d\u53cd
p1159
aF0.2172685790885468
aa(lp1160
V\u7f8e\u5143\u5151
p1161
aF0.24140953232060752
aa(lp1162
V\u6f02\u4eae
p1163
aF0.51772826272617101
aa(lp1164
V\u5317\u4eac
p1165
aF0.78681169456753008
aa(lp1166
V\u9047\u963b
p1167
aF0.39987979914909633
aa(lp1168
V\u5929\u6c14
p1169
aF0.25798696719296538
aa(lp1170
V\u78e8\u5e95
p1171
aF0.43118648089461353
aa(lp1172
V\u603b\u88c1
p1173
aF0.96563812928243009
aa(lp1174
V\u888b\u5b50
p1175
aF0.69525945308334969
aa(lp1176
V\u6587\u7ae0
p1177
aF1.2987037172411307
aa(lp1178
V\u522b\u5fd8\u8bb0
p1179
aF0.41654736771222184
aa(lp1180
V\u5434\u5947\u9686
p1181
aF0.4345371581770936
aa(lp1182
V\u4e0d\u53d8
p1183
aF0.7345890690957817
aa(lp1184
V\u7ed3\u6784
p1185
aF0.2441915494873331
aa(lp1186
V\u4e2d\u6807
p1187
aF0.5331730655321284
aa(lp1188
V\u8d76\u5feb
p1189
aF1.1018836036436725
aa(lp1190
V\u8fd9\u6837
p1191
aF0.24089927886187096
aa(lp1192
V\u4f46
aF0.18612418733369368
aa(lp1193
V\u96be\u4ee5\u5fd8\u6000
p1194
aF0.45740753492325636
aa(lp1195
V\u50cf
aF0.17799075982137097
aa(lp1196
V\u534e
aF1.0845901249819658
aa(lp1197
V\u7ebd\u7ea6
p1198
aF0.48281906464121505
aa(lp1199
V\u53cc
aF0.29968079874282316
aa(lp1200
V\u518d\u653b
p1201
aF0.86907431635418719
aa(lp1202
V\u56fd\u5bb6\u961f
p1203
aF0.19199534521662001
aa(lp1204
V\u6613\u5c1a
p1205
aF0.44327403669670506
aa(lp1206
V\u7edd\u5730
p1207
aF0.33323316595758024
aa(lp1208
V\u640f\u5f08
p1209
aF0.79006756032198833
aa(lp1210
V\u4e3e\u8350
p1211
aF1.448457193923645
aa(lp1212
V\u6210\u5458
p1213
aF0.54317144772136694
aa(lp1214
V\u5e26\u70b9\u91cf
p1215
aF0.34762972654167484
aa(lp1216
V\u4e70
aF0.50631459224966502
aa(lp1217
V\u6295\u8d44\u8005
p1218
aF0.16216714572297503
aa(lp1219
V\u601d\u8003\u95ee\u9898
p1220
aF0.34762972654167484
aa(lp1221
V\u8fea\u58eb\u5c3c
p1222
aF0.6207673688244193
aa(lp1223
V\u59ff\u52bf
p1224
aF0.27158572386068347
aa(lp1225
V\u53d1\u73b0
p1226
aF0.70979534117198062
aa(lp1227
V\u5e02\u573a\u8d8b\u52bf
p1228
aF0.28969143878472903
aa(lp1229
V\u63a8\u5e7f
p1230
aF0.15681560750944953
aa(lp1231
V\u503c\u5f97\u6ce8\u610f
p1232
aF0.33323316595758024
aa(lp1233
V\u7b14\u8bb0\u672c
p1234
aF0.25307102916245872
aa(lp1235
V\u5efa\u8bae
p1236
aF0.71400398604626969
aa(lp1237
V\u8fd8\u4f1a
p1238
aF0.43226327385190089
aa(lp1239
V\u6807\u51c6
p1240
aF0.17040672869689943
aa(lp1241
V\u9006\u5e02
p1242
aF0.26445206487448142
aa(lp1243
V\u95f2\u7bc7
p1244
aF0.24140953232060752
aa(lp1245
V\u544a\u7ec8
p1246
aF0.31038368441220965
aa(lp1247
V\u8001\u8054
p1248
aF1.7381486327083744
aa(lp1249
V\u4fe1\u53f7
p1250
aF0.62218896779817279
aa(lp1251
V\u51b2\u660f
p1252
aF0.19751689008049708
aa(lp1253
V\u50f5\u6301
p1254
aF0.86907431635418719
aa(lp1255
V\u8d81\u80dc
p1256
aF1.3329326638303209
aa(lp1257
V\u5229\u6da6
p1258
aF0.35192311543762717
aa(lp1259
V\u62a5\u540d
p1260
aF0.54317144772136694
aa(lp1261
V\u5471\u7c89\u4eec
p1262
aF0.79006756032198833
aa(lp1263
V\u5386\u5bb3
p1264
aF0.79006756032198833
aa(lp1265
V\u90e8\u961f
p1266
aF0.5331730655321284
aa(lp1267
V\u8f6c\u5dee
p1268
aF0.54317144772136694
aa(lp1269
V\u5927\u90e8\u4efd
p1270
aF0.27577917182696299
aa(lp1271
V\u524d\u540e
p1272
aF0.280346553662641
aa(lp1273
V\u4e3a\u6d77\u54e5
p1274
aF1.448457193923645
aa(lp1275
V\u8bba\u5e02
p1276
aF0.1401732768313205
aa(lp1277
V\u4f9d\u6b21
p1278
aF0.20506656366620324
aa(lp1279
V\u4ed3\u4e0d\u52a8
p1280
aF0.28969143878472903
aa(lp1281
V\U0001f339
aF0.69019371589761469
aa(lp1282
V\u5f02\u5e38
p1283
aF0.24235139342369474
aa(lp1284
V\u7a33\u5065
p1285
aF0.49950142970812716
aa(lp1286
V\u6253\u51fa
p1287
aF0.2946014631709109
aa(lp1288
V\u5404\u79cd
p1289
aF0.6207673688244193
aa(lp1290
V\u6d88\u505c
p1291
aF0.17381486327083742
aa(lp1292
V\u53c2\u8003
p1293
aF0.24041096806771037
aa(lp1294
V\u563b\u563b
p1295
aF0.51462212533061658
aa(lp1296
V\u5bb6\u6709
p1297
aF0.44431088794344031
aa(lp1298
V\u4e34\u754c\u70b9
p1299
aF0.2172685790885468
aa(lp1300
V\u5b8c\u5168
p1301
aF0.31482388675533501
aa(lp1302
V\u6709\u7814
p1303
aF0.35499121128876621
aa(lp1304
V\u9177\u9177
p1305
aF0.96563812928243009
aa(lp1306
V\u522b\u4eba
p1307
aF0.21483672948299945
aa(lp1308
V\u4ebf\u65b0
p1309
aF0.4209261043674698
aa(lp1310
V\u4e07\u5b89
p1311
aF0.21077603170270495
aa(lp1312
V\u5e3d\u5b50
p1313
aF0.43230248556659062
aa(lp1314
V\u4e00\u6ce2
p1315
aF0.24649526201628424
aa(lp1316
V\u56e0
aF0.57491530785948464
aa(lp1317
V\u88c5\u4fee
p1318
aF0.66851870488783627
aa(lp1319
V\u7ed3\u675f
p1320
aF0.87511340086861922
aa(lp1321
V\u80a1\u7b49
p1322
aF0.13773545045545907
aa(lp1323
V\u751f\u5e73
p1324
aF1.2415347376488386
aa(lp1325
V\u672c\u5468
p1326
aF0.28208347789790322
aa(lp1327
V\u62bd\u5206
p1328
aF0.28969143878472903
aa(lp1329
V\u6d88\u706d
p1330
aF0.33323316595758024
aa(lp1331
V\u66f4\u5927
p1332
aF0.45652805015137382
aa(lp1333
V\u8fc7\u7a0b
p1334
aF0.2777624473806361
aa(lp1335
V\u91d1\u4e09\u80d6
p1336
aF0.19358054759235838
aa(lp1337
V\u4eba\u6c11\u5e01
p1338
aF0.34530584165123385
aa(lp1339
V\u5a31\u4e50
p1340
aF0.88862177588688063
aa(lp1341
V\u7a0d\u5fae
p1342
aF0.16397628610456361
aa(lp1343
V\u529b\u6c14
p1344
aF0.31990383931927707
aa(lp1345
V\u53ea\u5230
p1346
aF0.49984974893637041
aa(lp1347
V\u4e4b\u540e
p1348
aF0.17712253146002227
aa(lp1349
V\u5927\u5757\u5934
p1350
aF0.4345371581770936
aa(lp1351
V\u600e\u4e48\u6837
p1352
aF0.8116898232757066
aa(lp1353
V\u6b63\u597d
p1354
aF0.32467592931028266
aa(lp1355
V\u4e24\u5e74
p1356
aF0.66646633191516047
aa(lp1357
V\u5929\u6d25
p1358
aF1.4162610502215545
aa(lp1359
V\u521b\u4e1a\u677f
p1360
aF0.13716809069222202
aa(lp1361
V\u89e3\u91ca
p1362
aF0.18892919920743198
aa(lp1363
V\u5495\u975e
p1364
aF0.6207673688244193
aa(lp1365
V\u4e2d\u8f74
p1366
aF0.20211030612888073
aa(lp1367
V\u7761\u89c9
p1368
aF0.50614205832491743
aa(lp1369
V\u4e0b\u5348
p1370
aF0.56619362068993295
aa(lp1371
V\u63d0\u51fa
p1372
aF0.25551791460421541
aa(lp1373
V\u5341\u8db3
p1374
aF0.5331730655321284
aa(lp1375
V\u9000\u573a
p1376
aF0.25561009304534915
aa(lp1377
V\u9001\u51fa
p1378
aF0.27595934777255265
aa(lp1379
V\u6570\u636e
p1380
aF0.22103886111266624
aa(lp1381
V\u8d85\u4e70
p1382
aF0.47208701674051806
aa(lp1383
V\u5c11\u91cf
p1384
aF0.36352709013554213
aa(lp1385
V\u6740
aF0.38181641556787677
aa(lp1386
V\u7ed3\u5a5a
p1387
aF0.36211429848091126
aa(lp1388
V\u57cb
aF0.44431088794344031
aa(lp1389
V\u4e0d\u52a8
p1390
aF0.50375508982220563
aa(lp1391
V\u8ffd\u51fb
p1392
aF1.2653551458122936
aa(lp1393
V\u5954
aF0.17381486327083742
aa(lp1394
V\u62d6\u540e\u817f
p1395
aF0.79006756032198833
aa(lp1396
V\u7740\u529b
p1397
aF0.2849423988046515
aa(lp1398
V\u8fdb
aF0.39330299317146883
aa(lp1399
V\u8ffd\u9ad8\u8981
p1400
aF0.22283956829594539
aa(lp1401
V\u4e00\u8d5e
p1402
aF0.28562842796364024
aa(lp1403
V\u8def\u5b50
p1404
aF0.32187937642747666
aa(lp1405
V\u9760
aF0.20280315126914106
aa(lp1406
V\u65e0\u4eba\u9a7e\u9a76
p1407
aF0.17796909031212127
aa(lp1408
V\u4ebf\u591a
p1409
aF0.20946834149050492
aa(lp1410
V\u8981\u7d27
p1411
aF0.39503378016099416
aa(lp1412
V\u4e00\u6d6a
p1413
aF0.33425935244391813
aa(lp1414
V\u5929\u8d50
p1415
aF0.22534526213236986
aa(lp1416
V\u4e24\u5e02
p1417
aF0.33181140645583762
aa(lp1418
V\u6389\u5934
p1419
aF0.34762972654167484
aa(lp1420
V\u795e\u5e99
p1421
aF0.19041895197576014
aa(lp1422
V\u4e00\u8d77
p1423
aF0.68064375623114826
aa(lp1424
V\u6c89\u91cd
p1425
aF0.96563812928243009
aa(lp1426
V\u7ffb
aF0.7454005527481864
aa(lp1427
V\u6253\u5047
p1428
aF0.33425935244391813
aa(lp1429
V\u9876\u4e0a
p1430
aF0.18105714924045563
aa(lp1431
V\u6caa\u5e02
p1432
aF0.25561009304534915
aa(lp1433
V\u51b7\u94fe
p1434
aF0.17040672869689943
aa(lp1435
V\u4e0a\u5e1d
p1436
aF0.11905127621290233
aa(lp1437
V\u7164\u70ad
p1438
aF0.55785998280815763
aa(lp1439
V\u8eb2\u8d77\u6765
p1440
aF0.57938287756945805
aa(lp1441
V\u4e86
aF0.21109859109268808
aa(lp1442
V\u770b
aF0.9023346996393522
aa(lp1443
V\u65b9\u9762
p1444
aF0.27620816217360511
aa(lp1445
V\u540d
aF0.7262877180623355
aa(lp1446
V\u7ebf\u5947\u4fa0
p1447
aF0.44965553429910388
aa(lp1448
V\u4e09\u5957
p1449
aF0.66851870488783627
aa(lp1450
V\u8bf1\u7a7a
p1451
aF1.0863428954427339
aa(lp1452
V\u6c47\u7387
p1453
aF0.24140953232060752
aa(lp1454
V\u5f90
aF0.82768982509922573
aa(lp1455
V\u6682\u4e0d\u4e70
p1456
aF0.5112201860906983
aa(lp1457
V\u76d1\u63a7
p1458
aF0.96563812928243009
aa(lp1459
V\u76f8\u5173
p1460
aF0.31114975187527744
aa(lp1461
V\u4e3e\u62a5
p1462
aF1.448457193923645
aa(lp1463
V\u4e0a\u5e02
p1464
aF0.29968079874282316
aa(lp1465
V\u5207\u5fcc
p1466
aF0.21196934545224078
aa(lp1467
V\u6709\u6761\u4e0d\u7d0a
p1468
aF0.13557376562274573
aa(lp1469
V\u5148\u5e72
p1470
aF2.8969143878472901
aa(lp1471
V\u811a\u6b65
p1472
aF0.18980327187184406
aa(lp1473
V\u53d1\u529b
p1474
aF0.60776272088159711
aa(lp1475
V\u592a\u5751
p1476
aF0.86907431635418719
aa(lp1477
V\u4e0b\u53cd
p1478
aF0.45740753492325636
aa(lp1479
V\u52a8\u624b
p1480
aF0.34494918471569086
aa(lp1481
V\u592a\u574f
p1482
aF0.26335585344066276
aa(lp1483
V\u6bd4\u8f83\u7a33\u5b9a
p1484
aF0.26335585344066276
aa(lp1485
V\u5238\u571f
p1486
aF0.13016950366629843
aa(lp1487
V\u9f3b
aF1.3016732932190345
aa(lp1488
V\u53d1\u7ea2\u5305
p1489
aF0.79006756032198833
aa(lp1490
V\u5de6\u53f3
p1491
aF0.26011708532346356
aa(lp1492
V\u6d88\u606f\u9762
p1493
aF0.56950108899878804
aa(lp1494
V\u5b9a\u578b
p1495
aF0.48281906464121505
aa(lp1496
V\u7b80\u8a00\u4e4b
p1497
aF0.41384491254961286
aa(lp1498
V\u5982\u53cd
p1499
aF0.28969143878472903
aa(lp1500
V\u9634\u9669
p1501
aF0.79006756032198833
aa(lp1502
V\u538b\u7740
p1503
aF0.20211030612888073
aa(lp1504
V\u8ba4\u4e3a
p1505
aF0.26515178639187631
aa(lp1506
V\u5bc6\u5207
p1507
aF0.16321624455065156
aa(lp1508
V\u4e0b\u53bb
p1509
aF0.23560745408001288
aa(lp1510
V\u6536\u51fa
p1511
aF0.6207673688244193
aa(lp1512
V\u94dd\u4e1a
p1513
aF0.20660317568318862
aa(lp1514
V\u699c\u4e0a
p1515
aF0.44659593381610363
aa(lp1516
V\u5df4\u8700
p1517
aF0.82768982509922573
aa(lp1518
V\u7ecf\u6d4e
p1519
aF0.24356993878939398
aa(lp1520
V\u89e3\u51b3
p1521
aF0.52615763045933728
aa(lp1522
V\u8fd9\u80a1
p1523
aF0.31850978073297964
aa(lp1524
V\u51b2\u677f
p1525
aF0.26335585344066276
aa(lp1526
V\u65e0\u6570\u6b21
p1527
aF0.66851870488783627
aa(lp1528
V\u4e09\u5929
p1529
aF0.5112201860906983
aa(lp1530
V\u6ca1\u6709
p1531
aF0.19838959821750915
aa(lp1532
V\u7684\u8bdd
p1533
aF0.2518511972165341
aa(lp1534
V\u4e92\u8054\u7f51
p1535
aF0.18045584181543722
aa(lp1536
V\u6380\u8d77
p1537
aF0.44431088794344031
aa(lp1538
V\u56fe
aF0.45652805015137382
aa(lp1539
V\u7ed3\u7b97
p1540
aF0.36211429848091126
aa(lp1541
V\u8981
aF1.0885977153534896
aa(lp1542
V\u5927\u90fd\u5e02\u5708
p1543
aF0.20211030612888073
aa(lp1544
V\u7ec4\u65e5
p1545
aF0.12970832720166459
aa(lp1546
V\u65e0\u804a
p1547
aF0.54317144772136694
aa(lp1548
V\u770b\u6765
p1549
aF0.44075344145746903
aa(lp1550
V\u524d\u5341\u540d
p1551
aF1.7381486327083744
aa(lp1552
V\u6570\u4e00\u6570\u4e8c
p1553
aF0.15801351206439765
aa(lp1554
V\u5b9e\u4f53
p1555
aF0.20211030612888073
aa(lp1556
V\u6574\u4f53
p1557
aF0.25913625660592238
aa(lp1558
V\u6740\u8dcc
p1559
aF1.3489666028973117
aa(lp1560
V\u5f53\u4e2d
p1561
aF0.62928478907435015
aa(lp1562
V\u97ed\u83dc
p1563
aF0.22283956829594539
aa(lp1564
V\u8001\u4ed9
p1565
aF0.35406526255538862
aa(lp1566
V\u4f1a
aF0.20565710194717404
aa(lp1567
V\u4e0d\u786e\u5b9a\u6027
p1568
aF0.23258044877539857
aa(lp1569
V\u5f31
aF0.15912401317317618
aa(lp1570
V\u52c7\u4e8e
p1571
aF0.14484571939236451
aa(lp1572
V\u5428
aF0.54367302728066602
aa(lp1573
V\u88ab
aF0.23934781248159678
aa(lp1574
V\u522b\u4e71
p1575
aF0.66851870488783627
aa(lp1576
V\u4e0a\u51b2
p1577
aF0.94901635935922024
aa(lp1578
V\u6d3b\u8dc3
p1579
aF0.47051839381820404
aa(lp1580
V\u8fdf
aF0.79006756032198833
aa(lp1581
V\u4e0b\u534a\u5e74
p1582
aF0.56678759762229591
aa(lp1583
V\u5916\u51fa
p1584
aF2.1726857908854678
aa(lp1585
V\u5f3a
aF0.63847824270838127
aa(lp1586
V\u4fdd\u9669
p1587
aF0.70979534117198062
aa(lp1588
V\u627e\u51c6
p1589
aF0.96563812928243009
aa(lp1590
V\u89c1
aF0.52250072607421449
aa(lp1591
V\u8840
aF0.4345371581770936
aa(lp1592
V\u7ad9\u4e0a
p1593
aF0.46382275615754659
aa(lp1594
V\u518d\u6b21
p1595
aF0.63165779767250785
aa(lp1596
V\u8bb0\u5f55
p1597
aF1.3329326638303209
aa(lp1598
V\u5f80\u540e\u9762
p1599
aF0.41384491254961286
aa(lp1600
V\u5fc3\u60c5
p1601
aF0.99969949787274082
aa(lp1602
V\u7535\u5b50
p1603
aF0.31726116872116972
aa(lp1604
V\u52a0\u4ed3\u8be5
p1605
aF0.32187937642747666
aa(lp1606
V\u8981\u521b
p1607
aF0.19467002243266054
aa(lp1608
V\u4e2d\u56fd
p1609
aF0.2526578501907743
aa(lp1610
V\u5173\u952e\u70b9
p1611
aF0.47450817967961012
aa(lp1612
V\u5ba3\u544a
p1613
aF1.0863428954427339
aa(lp1614
V\u65e9\u76d8\u91cf
p1615
aF1.2415347376488386
aa(lp1616
V\u5e73\u53f0
p1617
aF0.16909012689434544
aa(lp1618
V\u65f6\u800c
p1619
aF0.32187937642747666
aa(lp1620
V\u65e0\u91cf
p1621
aF1.0717077306733336
aa(lp1622
V\u5b57\u5934
p1623
aF2.8969143878472901
aa(lp1624
V\u5976
aF0.37034784755481764
aa(lp1625
V\u667a\u4e91
p1626
aF0.12423342545803107
aa(lp1627
V\u5904\u4e8e
p1628
aF0.42091287220566703
aa(lp1629
V\u5408\u529b
p1630
aF0.6207673688244193
aa(lp1631
V\u591a\u5c4f
p1632
aF0.39958583551967164
aa(lp1633
V\u8868\u8fbe
p1634
aF0.48281906464121505
aa(lp1635
V\u5bdf\u89c9
p1636
aF0.14541083605421684
aa(lp1637
V\u62c9\u952f\u6218
p1638
aF0.36522244012109906
aa(lp1639
V\u4e00\u628a
p1640
aF0.30435203343424921
aa(lp1641
V\u5fc3\u6001
p1642
aF0.41320635136637723
aa(lp1643
V\u518d\u8bf4
p1644
aF0.57207708097668197
aa(lp1645
V\u5413
aF0.57938287756945805
aa(lp1646
V\u73a9\u4e2a
p1647
aF0.72705418027108426
aa(lp1648
V\u4e2a\u7968
p1649
aF0.27158572386068347
aa(lp1650
V\u653b\u7565
p1651
aF0.14984039937141158
aa(lp1652
V\u8f6c\u53d1
p1653
aF0.27098775354208404
aa(lp1654
V\u629b\u538b
p1655
aF0.68064375623114826
aa(lp1656
V\u65b9\u7565
p1657
aF0.45740753492325636
aa(lp1658
V\u4f46\u613f
p1659
aF0.72705418027108426
aa(lp1660
V\u4ea4\u5272
p1661
aF0.41384491254961286
aa(lp1662
V\u4e00\u8e74\u800c\u5c31
p1663
aF0.20692245627480643
aa(lp1664
V\u6240\u8bf4
p1665
aF0.44258157819423571
aa(lp1666
V\u5ba2
aF0.18517392377740882
aa(lp1667
V\u4eba\u6709
p1668
aF0.32643248910130312
aa(lp1669
V\u826f\u6027
p1670
aF0.34509685794880735
aa(lp1671
V\u8df3
aF0.94901635935922024
aa(lp1672
V\u60e0\u6210
p1673
aF0.18899184297940622
aa(lp1674
V\u6298\u817e
p1675
aF1.1600742811291416
aa(lp1676
V\u91d1\u878d
p1677
aF0.16481700905263649
aa(lp1678
V\u4e00\u90e8\u5206
p1679
aF0.36211429848091126
aa(lp1680
V\u665a\u4e0a
p1681
aF0.4209261043674698
aa(lp1682
V\u5148\u5165
p1683
aF0.79006756032198833
aa(lp1684
V\u53c2\u4e0e
p1685
aF0.27098775354208404
aa(lp1686
V\u66fe\u4e91\u9e4f
p1687
aF2.8969143878472901
aa(lp1688
V\u7f3a\u53e3
p1689
aF0.21314922968125968
aa(lp1690
V\u7ed9\u529b
p1691
aF0.37016752298491185
aa(lp1692
V\u8be5\u70b9
p1693
aF0.48281906464121505
aa(lp1694
V\u504f
aF0.48696325349479874
aa(lp1695
V\u4e00\u62db
p1696
aF0.17381486327083742
aa(lp1697
V\u6709\u5229\u4e8e
p1698
aF0.29200503364899089
aa(lp1699
V\u6280\u672f\u6307\u6807
p1700
aF0.30759984549930486
aa(lp1701
V\u5d29\u76d8
p1702
aF0.27158572386068347
aa(lp1703
V\u4e2a\u591f
p1704
aF0.39987979914909633
aa(lp1705
V\u6c5f\u7279
p1706
aF0.32187751141398963
aa(lp1707
V\u5f00\u95e8
p1708
aF0.37785839841486396
aa(lp1709
V\u80a1\u8f69\u9633
p1710
aF0.14730073158545545
aa(lp1711
V\u5c11\u5e05
p1712
aF2.8969143878472901
aa(lp1713
V\u66f4
aF1.028955589554545
aa(lp1714
V\u6210\u7acb
p1715
aF0.6207673688244193
aa(lp1716
V\u8b66\u544a
p1717
aF2.8969143878472901
aa(lp1718
V\u4e09\u661f\u7535\u5b50
p1719
aF0.41013312733240648
aa(lp1720
V\u8fd9\u4e48
p1721
aF0.35914401152346448
aa(lp1722
V\u8d22\u4fe1
p1723
aF0.73044488024219811
aa(lp1724
V\u8bdd\u7b52
p1725
aF0.35802902963964645
aa(lp1726
V\u6b63\u9762
p1727
aF0.27577917182696299
aa(lp1728
V\u6700\u5c0f
p1729
aF0.2172685790885468
aa(lp1730
V\u76ce\u53f8
p1731
aF0.69525945308334969
aa(lp1732
V\u57ce\u5efa
p1733
aF0.78681169456753008
aa(lp1734
V\u968f\u540e
p1735
aF0.17290530954076036
aa(lp1736
V\u901a\u76d8
p1737
aF0.24140953232060752
aa(lp1738
V\u4ef7\u683c
p1739
aF0.37641471505456325
aa(lp1740
V\u6e05\u4ed3
p1741
aF0.23488495036599652
aa(lp1742
V\u641e
aF0.61843034154339549
aa(lp1743
V\u4e2d\u6765
p1744
aF0.37785839841486396
aa(lp1745
V\u8ddf\u98ce\u76d8
p1746
aF0.28969143878472903
aa(lp1747
V\u521b\u65b0
p1748
aF1.7744824445184659
aa(lp1749
V\u65e5\u5348
p1750
aF0.45740753492325636
aa(lp1751
V\u6307\u6570
p1752
aF0.83292433812863287
aa(lp1753
V\u5747\u503c
p1754
aF0.61519969099860972
aa(lp1755
V\u65a4\u65a4\u8ba1\u8f83
p1756
aF0.25561009304534915
aa(lp1757
V\u5f00\u542f
p1758
aF0.27114753124549146
aa(lp1759
V\u4e00\u832c
p1760
aF0.22283956829594539
aa(lp1761
V\u5598\u6c14
p1762
aF0.66851870488783627
aa(lp1763
V\u4e0a\u6d77
p1764
aF0.47637709581012921
aa(lp1765
V\u672a\u8fc7
p1766
aF0.86907431635418719
aa(lp1767
V\u4e0a\u8f7b\u4ed3
p1768
aF0.5112201860906983
aa(lp1769
V\u5e7b\u60f3
p1770
aF0.11905127621290233
aa(lp1771
V\u5e7f\u665f
p1772
aF0.55094180182183627
aa(lp1773
V\u975e\u8bda
p1774
aF0.72422859696182251
aa(lp1775
V\u6b63\u5728
p1776
aF1.0086143056544354
aa(lp1777
V\u7c89\u4e1d
p1778
aF0.63408797585379539
aa(lp1779
V\u5168\u4e16\u754c
p1780
aF0.39503378016099416
aa(lp1781
V\u652f\u4ed8\u5b9d
p1782
aF0.33323316595758024
aa(lp1783
V\u8fd9\u4e00
p1784
aF0.33323316595758024
aa(lp1785
V\u590d\u5408\u6750\u6599
p1786
aF0.41384491254961286
aa(lp1787
V\u7535\u5b50\u4fe1\u606f
p1788
aF0.33425935244391813
aa(lp1789
V\u7f8e\u8054\u50a8
p1790
aF0.46194298735919553
aa(lp1791
V\u8bd7
aF1.2627783131024093
aa(lp1792
V\u7838
aF0.93328345169725924
aa(lp1793
V\u91cf\u4ef7
p1794
aF0.88516315638847143
aa(lp1795
V\u4e2d\u671f
p1796
aF0.63267757290614679
aa(lp1797
V\u4f18\u96c5
p1798
aF1.142513711854561
aa(lp1799
V\u6301\u80a1
p1800
aF0.25743988431918435
aa(lp1801
V\u624b\u6709\u4f59\u9999
p1802
aF0.57938287756945805
aa(lp1803
V\u8fd9\u4e2a
p1804
aF0.21509573375995225
aa(lp1805
V\u53d1\u5c55
p1806
aF0.17933801337279062
aa(lp1807
V\u53c9
aF0.42178504860409788
aa(lp1808
V\u966a
aF0.39503378016099416
aa(lp1809
V\u6c1f
aF0.17016161665918991
aa(lp1810
V\u8fc7\u4e0d\u53bb
p1811
aF0.82641270273275447
aa(lp1812
V\u968f\u6ce2\u9010\u6d41
p1813
aF0.36211429848091126
aa(lp1814
V\u6574\u4e2a
p1815
aF0.26589746499731831
aa(lp1816
V\u9876
aF0.33501228604124517
aa(lp1817
V\u6765\u6765\u6765
p1818
aF0.79006756032198833
aa(lp1819
V\u5356\u51fa
p1820
aF0.24050068837798713
aa(lp1821
V\u6d41\u51fa
p1822
aF0.59539318370740746
aa(lp1823
V\u4ec1\u8005\u89c1\u4ec1
p1824
aF0.4345371581770936
aa(lp1825
V\u4e8b\u5b9e
p1826
aF0.4209261043674698
aa(lp1827
V\u5c31\u662f
p1828
aF0.36052079858128022
aa(lp1829
V\u91cd\u65b0
p1830
aF0.47121490816002576
aa(lp1831
V\u592a\u597d
p1832
aF1.7381486327083744
aa(lp1833
V\u5f71\u54cd\u529b
p1834
aF0.26335585344066276
aa(lp1835
V\u6e05
aF0.22850274237091217
aa(lp1836
V\u597d\u8bdd
p1837
aF0.6207673688244193
aa(lp1838
V\u6307
aF0.1447238375254366
aa(lp1839
V\u7a33\u5f53
p1840
aF0.45740753492325636
aa(lp1841
V\u9002\u5408
p1842
aF1.1836308882604181
aa(lp1843
V\u5b8c
aF0.29217795209687925
aa(lp1844
V\u5f0f
aF0.2104630521837349
aa(lp1845
V\u624b\u91cc
p1846
aF0.58401006729798177
aa(lp1847
V\u5bf9\u6218
p1848
aF0.96563812928243009
aa(lp1849
V\u5f3a\u52bf
p1850
aF0.47983911245278182
aa(lp1851
V\u8f9b\u5b87
p1852
aF0.28969143878472903
aa(lp1853
V\u4e0b\u5df4
p1854
aF2.1726857908854678
aa(lp1855
V\u6c34\u5206
p1856
aF0.2499248744681852
aa(lp1857
V\u653f\u6cbb
p1858
aF0.4345371581770936
aa(lp1859
V\u5b89\u5fc3
p1860
aF2.6658653276606419
aa(lp1861
V\u5171\u632f
p1862
aF0.13360953303976927
aa(lp1863
V\u5f3a\u52b2
p1864
aF0.39958583551967164
aa(lp1865
V\u53d8\u91cf
p1866
aF0.54317144772136694
aa(lp1867
V\u8be5\u51cf
p1868
aF0.25561009304534915
aa(lp1869
V\u7fa4
aF0.30435203343424921
aa(lp1870
V\u65e5\u53ca
p1871
aF0.33425935244391813
aa(lp1872
V\u7acb\u4e0b
p1873
aF0.25561009304534915
aa(lp1874
V\u5413\u8dd1
p1875
aF0.45740753492325636
aa(lp1876
V\u6253\u5e95
p1877
aF0.16093968821373833
aa(lp1878
V\u9738\u4e1a
p1879
aF0.69019371589761469
aa(lp1880
V\u96be\u6709
p1881
aF0.22283956829594539
aa(lp1882
V\u8fd9\u4efd
p1883
aF0.36211429848091126
aa(lp1884
V\u5173\u952e
p1885
aF0.44957552479479523
aa(lp1886
V\u725b\u54e5
p1887
aF0.38444467381168318
aa(lp1888
V\u5fae\u535a\u8bc4
p1889
aF0.15801351206439765
aa(lp1890
V\u76f8\u5f53
p1891
aF0.25290375896813466
aa(lp1892
V\u723d
aF0.62718033584671062
aa(lp1893
V\u4e45
aF0.31758473054008612
aa(lp1894
V\u9884\u6d4b
p1895
aF0.26365324571116855
aa(lp1896
V\u534a\u5c0f\u65f6
p1897
aF0.37577400414987211
aa(lp1898
V\u672c\u5468\u4e00
p1899
aF0.34762972654167484
aa(lp1900
V\u592a\u91cd
p1901
aF0.5112201860906983
aa(lp1902
V\u8fd9\u4e9b
p1903
aF0.23911975903538246
aa(lp1904
V\u62a2
aF0.72705418027108426
aa(lp1905
V\u7f8e\u56fd
p1906
aF0.56206941787387987
aa(lp1907
V\u592a\u592a
p1908
aF0.4209261043674698
aa(lp1909
V\u98ef\u592a\u7d30\u679c
p1910
aF0.37034784755481764
aa(lp1911
V\u53ef\u53d6
p1912
aF0.39503378016099416
aa(lp1913
V\u6b21\u65b0\u80a1
p1914
aF1.1802175418512952
aa(lp1915
V\u5c0f\u5e45\u5ea6
p1916
aF0.2499248744681852
aa(lp1917
V\u79c1\u52df
p1918
aF0.1863501381870466
aa(lp1919
V\u795e\u5947
p1920
aF0.57938287756945805
aa(lp1921
V\u5178\u578b
p1922
aF0.3372050119575129
aa(lp1923
V\u6d41\u5165
p1924
aF0.53801404011837184
aa(lp1925
V\u5bfb\u5e95
p1926
aF0.20692245627480643
aa(lp1927
V\u4e2d\u67a2
p1928
aF0.26335585344066276
aa(lp1929
V\u76d8\u9762
p1930
aF0.58508904477246881
aa(lp1931
V\u4e0d\u5c0f
p1932
aF0.29515993573662058
aa(lp1933
V\u65e9\u4e0a\u597d
p1934
aF0.26625135543116618
aa(lp1935
V\u6e10\u8fdc
p1936
aF0.32187937642747666
aa(lp1937
V\u5165\u5e02
p1938
aF1.3370374097756725
aa(lp1939
V\u5e73\u7a33
p1940
aF0.34783089535342765
aa(lp1941
V\u8bc4\u8bba
p1942
aF0.42653558850722811
aa(lp1943
V\u5750\u6807
p1944
aF0.37785839841486396
aa(lp1945
V\u53e6\u8fc7
p1946
aF0.280346553662641
aa(lp1947
V\u961f\u53cb
p1948
aF0.45740753492325636
aa(lp1949
V\u7ed3\u8bba
p1950
aF0.34762972654167484
aa(lp1951
V\u5355\u8fb9
p1952
aF0.27053514083044372
aa(lp1953
V\u65b0\u80a1\u7533\u8d2d
p1954
aF1.3797967388627634
aa(lp1955
V\u5e03\u5c40
p1956
aF0.29204199772537365
aa(lp1957
V\u582a\u79f0
p1958
aF0.2172685790885468
aa(lp1959
V\u5206\u949f
p1960
aF0.23640187291921527
aa(lp1961
V\u7761\u7761
p1962
aF0.96563812928243009
aa(lp1963
V\u629b
aF0.52094862194124192
aa(lp1964
V\u738b\u9053
p1965
aF0.19751689008049708
aa(lp1966
V\u592a\u9ad8
p1967
aF0.99969949787274082
aa(lp1968
V\u4e0a\u53bb
p1969
aF0.3372050119575129
aa(lp1970
V\u5f02\u52a8
p1971
aF0.26794909029446895
aa(lp1972
V\u53ef\u9022
p1973
aF0.36522244012109906
aa(lp1974
V\u5348\u95f4
p1975
aF0.56188067710938316
aa(lp1976
V\u539f\u5730
p1977
aF0.15519184220610482
aa(lp1978
V\u4f30\u8ba1
p1979
aF0.82641270273275447
aa(lp1980
V\u56de\u8d2d
p1981
aF0.79975959829819265
aa(lp1982
V\u4e8b\u5b9e\u4e0a
p1983
aF0.2499248744681852
aa(lp1984
V\u590d\u76d8
p1985
aF0.22275613840292124
aa(lp1986
V\u4f5c\u7528
p1987
aF0.38669142704304715
aa(lp1988
V\u6de1
aF0.28562842796364024
aa(lp1989
V\u4e2d\u591a\u5b66
p1990
aF0.16093968821373833
aa(lp1991
V\u6d6a\u8ff9
p1992
aF0.96563812928243009
aa(lp1993
V\u4e09\u8f6e
p1994
aF0.69525945308334969
aa(lp1995
V\u5f53\u7136
p1996
aF0.9125940100782608
aa(lp1997
V\u4f4e\u5438
p1998
aF0.21432795860210038
aa(lp1999
V\u6a5f\u4e0a
p2000
aF0.25942516906095137
aa(lp2001
V\u8fd9
aF0.37805290364970406
aa(lp2002
V\u8be5
aF0.1321921536338207
aa(lp2003
V\u7279\u8272
p2004
aF0.27158572386068347
aa(lp2005
V\u5c01\u6b7b
p2006
aF0.29515993573662058
aa(lp2007
V\u56f0\u52b2
p2008
aF1.0863428954427339
aa(lp2009
V\u592a\u9a9a
p2010
aF0.57125685592728048
aa(lp2011
V\u51b2\u9ad8\u540e
p2012
aF0.22283956829594539
aa(lp2013
V\u73a9\u6cd5
p2014
aF0.1765611831365991
aa(lp2015
V\u89e6\u6478\u5c4f
p2016
aF0.23488495036599652
aa(lp2017
V\u8f6e
aF0.66851870488783627
aa(lp2018
V\u4e0a\u73ed
p2019
aF1.2415347376488386
aa(lp2020
V\u9020\u6210
p2021
aF0.49984974893637041
aa(lp2022
V\u535a\u4e3b\u5e26
p2023
aF0.45740753492325636
aa(lp2024
V\u529b\u7ed9\u529b
p2025
aF0.20211030612888073
aa(lp2026
V\u68a6\u60f3
p2027
aF0.33425935244391813
aa(lp2028
V\u9886\u8896
p2029
aF0.36211429848091126
aa(lp2030
V\u6709
aF0.15690417258936526
aa(lp2031
V\u9760\u4e0d\u4f4f
p2032
aF0.45740753492325636
aa(lp2033
V\u5c0f
aF1.0620229767628888
aa(lp2034
V\u7f8e
aF0.53801404011837184
aa(lp2035
V\u4efb\u52a1
p2036
aF0.16745433291770837
aa(lp2037
V\u5192
aF0.2946014631709109
aa(lp2038
V\u4fe1\u5ff5
p2039
aF0.36211429848091126
aa(lp2040
V\u5927\u6821
p2041
aF0.27158572386068347
aa(lp2042
V\u5c0f\u5f6c\u76d8
p2043
aF0.5112201860906983
aa(lp2044
V\u5b50\u975e\u9c7c
p2045
aF0.27158572386068347
aa(lp2046
V\u7ed3\u6784\u6027
p2047
aF0.22215544397172016
aa(lp2048
V\u8fdb\u884c
p2049
aF0.34998129438647224
aa(lp2050
V\u66f4\u957f
p2051
aF0.20692245627480643
aa(lp2052
V\u4fe1\u5fc3
p2053
aF0.38308694562502876
aa(lp2054
V\u4e00\u80a1
p2055
aF1.2653551458122936
aa(lp2056
V\u518d\u89c1
p2057
aF0.91305610030274764
aa(lp2058
V\u4e00\u8bc4
p2059
aF0.28562842796364024
aa(lp2060
V\u7edd\u5bf9
p2061
aF0.4058449116378533
aa(lp2062
V\u5927\u89c4\u6a21
p2063
aF0.6207673688244193
aa(lp2064
V\u8ba1\u5212
p2065
aF0.86237296178922707
aa(lp2066
V\u5355\u5e72
p2067
aF0.22850274237091217
aa(lp2068
V\u5bb6
aF1.1802175418512952
aa(lp2069
V\u5145\u7535
p2070
aF0.64935185862056533
aa(lp2071
V\u4f53\u7cfb
p2072
aF0.37034784755481764
aa(lp2073
V\u6362\u6765
p2074
aF0.57938287756945805
aa(lp2075
V\u4ef7
aF0.5112201860906983
aa(lp2076
V\u6de1\u5316
p2077
aF0.27158572386068347
aa(lp2078
V\u8fd9\u8d85
p2079
aF0.31038368441220965
aa(lp2080
V\u6740\u6f0f
p2081
aF0.22870376746162818
aa(lp2082
V\u4ebf\u94b1
p2083
aF0.6207673688244193
aa(lp2084
V\u9ad8\u5347
p2085
aF0.34762972654167484
aa(lp2086
V\u53cd\u5783\u573e
p2087
aF0.56069310732528199
aa(lp2088
V\u9019\u4e2a
p2089
aF0.57938287756945805
aa(lp2090
V\u4e0a\u5348
p2091
aF0.20625130627818308
aa(lp2092
V\u5355\u8f68
p2093
aF0.41366875774044448
aa(lp2094
V\u4f59
aF0.21196934545224078
aa(lp2095
V\u4e0d\u592a\u597d
p2096
aF0.86907431635418719
aa(lp2097
V\u53e6
aF0.36211429848091126
aa(lp2098
V\u5927\u725b\u80a1
p2099
aF0.48281626712098435
aa(lp2100
V\u624d\u884c
p2101
aF0.3163387864530734
aa(lp2102
V\u5e26
aF0.25941665440332917
aa(lp2103
V\u5c9b\u4e3b
p2104
aF0.44431088794344031
aa(lp2105
V\u70b9\u4e3a
p2106
aF0.6207673688244193
aa(lp2107
V\u795e\u9a6c
p2108
aF0.32795257220912721
aa(lp2109
V\u602f\u573a
p2110
aF0.24830694752976773
aa(lp2111
V\u8981\u70b9
p2112
aF1.0863428954427339
aa(lp2113
V\u4e8b\u5b9e\u8bc1\u660e
p2114
aF0.23522341126417431
aa(lp2115
V\u8ddf\u4e0a
p2116
aF0.25590009300277772
aa(lp2117
V\u8f83
aF0.18017266416352223
aa(lp2118
V\u94b4\u4e1a
p2119
aF0.70813052511077723
aa(lp2120
V\u53d7\u6b64
p2121
aF0.27158572386068347
aa(lp2122
V\u6536\u7d27
p2123
aF0.28969143878472903
aa(lp2124
V\u4f4e\u5934
p2125
aF0.2172685790885468
aa(lp2126
V\u6708
aF0.21638625655250723
aa(lp2127
V\u6da8\u8d77\u6765
p2128
aF0.6207673688244193
aa(lp2129
V\u5c0f\u4f19\u5b50
p2130
aF0.57938287756945805
aa(lp2131
V\u6ede\u540e
p2132
aF0.22283956829594539
aa(lp2133
V\u4e0d\u8db3\u4ee5
p2134
aF0.34176413611608697
aa(lp2135
V\u56de\u8c03
p2136
aF0.26880127500451378
aa(lp2137
V\u53cd\u653b
p2138
aF0.98556909918768798
aa(lp2139
V\u8d44\u91d1
p2140
aF0.54333659451189897
aa(lp2141
V\u731b\u6ef4
p2142
aF0.4345371581770936
aa(lp2143
V\u6cd5\u5219
p2144
aF0.23604350837025903
aa(lp2145
V\u4e4b\u4e0b
p2146
aF0.20034247338975866
aa(lp2147
V\u4e4b\u4e0a
p2148
aF1.2174081337369969
aa(lp2149
V\u770b\u4f3c
p2150
aF0.18261122006054953
aa(lp2151
V\u653e\u7f13
p2152
aF0.61519969099860972
aa(lp2153
V\u4e2d\u95f4\u4ef7
p2154
aF0.70835374519950378
aa(lp2155
V\u505a\u5ba2
p2156
aF0.75921308748737626
aa(lp2157
V\u7ea6\u675f
p2158
aF0.32643248910130312
aa(lp2159
V\u4e4f\u5584\u53ef\u9648
p2160
aF0.29968079874282316
aa(lp2161
V\u5b64\u821f
p2162
aF0.57938287756945805
aa(lp2163
V\u633a\u4e0d\u9519
p2164
aF0.49984974893637041
aa(lp2165
V\u8c28\u614e
p2166
aF0.80660296083120686
aa(lp2167
V\u9707\u8361
p2168
aF0.96361531414759849
aa(lp2169
V\u5347\u662f
p2170
aF0.3163387864530734
aa(lp2171
V\u73bb
aF0.86907431635418719
aa(lp2172
V\u653e\u5f03
p2173
aF0.31940790352739135
aa(lp2174
V\u54b1\u4eec
p2175
aF0.92764551231509318
aa(lp2176
V\u8001\u89c4\u77e9
p2177
aF0.36211429848091126
aa(lp2178
V\u6536\u4e0a\u53bb
p2179
aF0.21089252430204894
aa(lp2180
V\u731b\u5e72
p2181
aF0.15801351206439765
aa(lp2182
V\u52bf\u5934
p2183
aF0.39987979914909633
aa(lp2184
V\u51fb\u7a7f
p2185
aF0.32187937642747666
aa(lp2186
V\u7262\u6d77\u54e5
p2187
aF0.57125685592728048
aa(lp2188
V\u59d4\u7f29
p2189
aF0.86907431635418719
aa(lp2190
V\u878d\u5238
p2191
aF0.38083790395152028
aa(lp2192
V\u4e24\u6876
p2193
aF0.75921308748737626
aa(lp2194
V\u526f\u603b\u88c1
p2195
aF0.54471578854675173
aa(lp2196
V\u4e07\u9a6c
p2197
aF0.27158572386068347
aa(lp2198
V\u8def
aF0.97625496991427596
aa(lp2199
V\u4f19\u4f34
p2200
aF0.88862177588688063
aa(lp2201
V\u72e0\u6bd2
p2202
aF2.1726857908854678
aa(lp2203
V\u76f4\u64ad
p2204
aF0.15748611889742029
aa(lp2205
V\u7a81\u7834
p2206
aF0.27501773264959251
aa(lp2207
V\u58eb\u5175
p2208
aF0.31795401817836111
aa(lp2209
V\u522b\u53bb
p2210
aF0.6207673688244193
aa(lp2211
V\u661f\u54e5
p2212
aF0.24830694752976773
aa(lp2213
V\u90fd
aF0.18058702914297423
aa(lp2214
V\u6316\u5c40
p2215
aF0.31038368441220965
aa(lp2216
V\u524d\u65e5
p2217
aF0.1765611831365991
aa(lp2218
V\u7bb1\u4f53
p2219
aF0.70813052511077723
aa(lp2220
V\u5728\u5386\u53f2\u4e0a
p2221
aF0.28119003240273188
aa(lp2222
V\u8282\u8282
p2223
aF0.34762972654167484
aa(lp2224
V\u89c6\u9891
p2225
aF0.25187754491110281
aa(lp2226
V\u9000\u5b88
p2227
aF1.3329326638303209
aa(lp2228
V\u524d\u5929
p2229
aF0.70813052511077723
aa(lp2230
V\u6da8\u505c\u677f
p2231
aF0.15434333843318176
aa(lp2232
V\u7092
aF0.62058365137538718
aa(lp2233
V\u4e8c\u7ea7
p2234
aF0.45740753492325636
aa(lp2235
V\u5c01\u5408\u5eb7
p2236
aF0.39503378016099416
aa(lp2237
V\u5143\u5668\u4ef6
p2238
aF0.31038368441220965
aa(lp2239
V\u8fc7\u8fdc\u8981
p2240
aF0.23810255242580466
aa(lp2241
V\u79fb\u52a8
p2242
aF0.38934004486532109
aa(lp2243
V\u4e0d\u5e78
p2244
aF0.18105714924045563
aa(lp2245
V\u7387\u5148
p2246
aF0.22283956829594539
aa(lp2247
V\u5e2e\u52a9
p2248
aF0.2617976163749573
aa(lp2249
V\u5e93\u5b58
p2250
aF0.49661389505953546
aa(lp2251
V\u667a\u80fd\u624b\u673a
p2252
aF0.20211030612888073
aa(lp2253
V\u629b\u70b9
p2254
aF0.21196934545224078
aa(lp2255
V\u8fd9\u6ce2
p2256
aF1.1241388357477597
aa(lp2257
V\u6ca1\u52a8
p2258
aF0.22215544397172016
aa(lp2259
V\u4ed8\u8d39
p2260
aF0.69019371589761469
aa(lp2261
V\u6293\u4f4f
p2262
aF0.54229506249098292
aa(lp2263
V\u5e02\u503c
p2264
aF0.16186772350353329
aa(lp2265
V\u4e3a
aF0.24523262273487242
aa(lp2266
V\u5fc5\u987b
p2267
aF0.52250072607421449
aa(lp2268
V\u5931\u8bef
p2269
aF0.45740753492325636
aa(lp2270
V\u96be
aF0.24548785764428036
aa(lp2271
V\u653b\u9632
p2272
aF0.45740753492325636
aa(lp2273
V\u627e\u5230
p2274
aF0.13781978872494305
aa(lp2275
V\u6700\u7ec8
p2276
aF0.59010877092564762
aa(lp2277
V\u54c1\u79cd
p2278
aF0.17185176035477731
aa(lp2279
V\u6df1\u5733
p2280
aF0.61576567400937143
aa(lp2281
V\u66f4\u540d
p2282
aF1.142513711854561
aa(lp2283
V\u5348\u540e
p2284
aF0.63165779767250785
aa(lp2285
V\u738b\u4f73\u5fe0
p2286
aF0.39012663331619157
aa(lp2287
V\u521a\u521a
p2288
aF0.48394975759594533
aa(lp2289
V\u8fd8
aF0.19618558808651945
aa(lp2290
V\u5f00\u76d8
p2291
aF0.72233905614204663
aa(lp2292
V\u5206\u754c
p2293
aF1.0116150358725386
aa(lp2294
V\u5de8\u8d44
p2295
aF0.4345371581770936
aa(lp2296
V\u5f3a\u70c8
p2297
aF0.34772156447747504
aa(lp2298
V\u4e19\u70ef
p2299
aF0.4345371581770936
aa(lp2300
V\u4e0d\u7518\u5bc2\u5bde
p2301
aF0.72422859696182251
aa(lp2302
V\u5148\u5230
p2303
aF0.88516315638847143
aa(lp2304
V\u4e09\u7532
p2305
aF0.79975959829819265
aa(lp2306
V\u521b\u677f
p2307
aF0.27577917182696299
aa(lp2308
V\u5f00\u56ed
p2309
aF0.6207673688244193
aa(lp2310
V\u4e2d\u65b0
p2311
aF0.81160542249133116
aa(lp2312
V\u60a8
aF0.22984579680569892
aa(lp2313
V\u77ff\u91c7
p2314
aF0.41384491254961286
aa(lp2315
V\u539f\u56e0
p2316
aF0.2113822463017245
aa(lp2317
V\u8d81
aF0.24418293969337143
aa(lp2318
V\u4ee5\u5c0f\u5e26
p2319
aF0.36522244012109906
aa(lp2320
V\u653b\u51fb
p2321
aF0.87511340086861922
aa(lp2322
V\u5f04\u5802
p2323
aF0.37785839841486396
aa(lp2324
V\u5b5f\u5b50
p2325
aF0.45740753492325636
aa(lp2326
V\u9ad8\u4e9b
p2327
aF0.39503378016099416
aa(lp2328
V\u8d62\u5bb6
p2329
aF0.25307102916245872
aa(lp2330
V\u4e07\u5143
p2331
aF0.50916535850550304
aa(lp2332
V\u589e\u6301
p2333
aF0.26335585344066276
aa(lp2334
V\u9759\u89c2\u5176\u53d8
p2335
aF0.24418293969337143
aa(lp2336
V\u718a\u5e02
p2337
aF0.22688125207704943
aa(lp2338
V\u5ef6\u957f
p2339
aF0.28094033855469158
aa(lp2340
V\u8036\u9177
p2341
aF0.24830694752976773
aa(lp2342
V\u4ea4\u6613\u989d
p2343
aF0.37785839841486396
aa(lp2344
V\u4e3b\u529b\u519b
p2345
aF0.20506656366620324
aa(lp2346
V\u540c\u610f
p2347
aF0.48281906464121505
aa(lp2348
V\u8ddf\u73ed
p2349
aF0.31990383931927707
aa(lp2350
V\u6bd4\u524d
p2351
aF0.54317144772136694
aa(lp2352
V\u65c5\u6e38
p2353
aF0.75921308748737626
aa(lp2354
V\u59b9
aF0.5112201860906983
aa(lp2355
V\u5927\u4e8e
p2356
aF1.0116150358725386
aa(lp2357
V\u77ed\u7ebf
p2358
aF0.43262886643795873
aa(lp2359
V\u8865\u4ed3
p2360
aF1.0646930117579709
aa(lp2361
V\u62bd\u8840
p2362
aF0.28562842796364024
aa(lp2363
V\u8f6f
aF1.142513711854561
aa(lp2364
V\u62c9\u5012
p2365
aF0.28969143878472903
aa(lp2366
V\u5404\u534a
p2367
aF0.21326779425361406
aa(lp2368
V\u6bcf\u65e5
p2369
aF1.7247459235784541
aa(lp2370
V\u5f3a\u8feb\u75c7
p2371
aF0.25561009304534915
aa(lp2372
V\u53e3
aF0.200845698560011
aa(lp2373
V\u53ea\u7968
p2374
aF0.24418293969337143
aa(lp2375
V\u4ec5\u5b58
p2376
aF0.22283956829594539
aa(lp2377
V\u969c\u788d
p2378
aF0.18892919920743198
aa(lp2379
V\u6709\u5f85
p2380
aF0.17815728786395077
aa(lp2381
V\u5272\u8089
p2382
aF0.66404080022018008
aa(lp2383
V\u9f99\u5934\u80a1
p2384
aF0.25941665440332917
aa(lp2385
V\u666e\u6da8
p2386
aF0.31850978073297964
aa(lp2387
V\u5dee\u4e2a
p2388
aF0.57938287756945805
aa(lp2389
V\u521a\u521a\u5f00\u59cb
p2390
aF0.15519184220610482
aa(lp2391
V\u5566
aF1.0086143056544354
aa(lp2392
V\u8ffd\u9ad8
p2393
aF0.47121490816002576
aa(lp2394
V\u4e3b\u5fc3\u9aa8
p2395
aF0.27158572386068347
aa(lp2396
V\u60f3
aF1.2266383824059026
aa(lp2397
V\u597d\u4e8b
p2398
aF0.77609237507434137
aa(lp2399
V\u5de5\u4e1a
p2400
aF0.28745765392974232
aa(lp2401
V\u9009\u80a1
p2402
aF0.2617976163749573
aa(lp2403
V\u5c4f\u5e55
p2404
aF0.16810942290915332
aa(lp2405
V\u76f4\u63a5
p2406
aF0.28603854048834099
aa(lp2407
V\u52ff
aF1.3329326638303209
aa(lp2408
V\u6700\u597d
p2409
aF0.27338082116186269
aa(lp2410
V\u9700\u8981
p2411
aF0.63460684592750172
aa(lp2412
V\u5168\u7ebf
p2413
aF0.22391443400709146
aa(lp2414
V\u662f\u4e0d\u662f
p2415
aF0.75646072924082663
aa(lp2416
V\u8d77\u6765
p2417
aF0.23214231857646567
aa(lp2418
V\u4e1a\u52a1
p2419
aF0.30513699793209398
aa(lp2420
V\u6d41\u5411
p2421
aF0.1615346994653992
aa(lp2422
V\u65e0\u8bba
p2423
aF0.84310412681081981
aa(lp2424
V\u56fd\u8d27
p2425
aF0.1401732768313205
aa(lp2426
V\u6551\u6025
p2427
aF0.23488495036599652
aa(lp2428
V\u7d2f\u8ba1
p2429
aF0.35598151964274194
aa(lp2430
V\u9677\u9631
p2431
aF0.19751689008049708
aa(lp2432
V\u4e0d\u597d
p2433
aF0.33237183124664782
aa(lp2434
V\u5fae\u7b11
p2435
aF0.30435203343424921
aa(lp2436
V\u9898\u6750
p2437
aF0.22755810276732025
aa(lp2438
V\u51fa\u9003
p2439
aF0.36352709013554213
aa(lp2440
V\u671d
aF0.28969143878472903
aa(lp2441
V\u5bf9\u5cd9
p2442
aF0.2172685790885468
aa(lp2443
V\u6536\u7a84
p2444
aF0.72705418027108426
aa(lp2445
V\u670b\u53cb
p2446
aF0.20445925917252269
aa(lp2447
V\u771f\u4e0d\u9519
p2448
aF0.36522244012109906
aa(lp2449
V\u76d8\u524d
p2450
aF0.21366342106202779
aa(lp2451
V\u4fdd\u536b\u6218
p2452
aF0.57938287756945805
aa(lp2453
V\u4ea7\u4e1a\u94fe
p2454
aF0.86907431635418719
aa(lp2455
V\u7b7e\u5230
p2456
aF0.33323316595758024
aa(lp2457
V\u53d8\u8138
p2458
aF0.26335585344066276
aa(lp2459
V\u68d5\u6988
p2460
aF0.280346553662641
aa(lp2461
V\u7a0d
aF0.33818025378869088
aa(lp2462
V\u5206\u522b
p2463
aF0.79006756032198833
aa(lp2464
V\u90e8\u5c06
p2465
aF0.88862177588688063
aa(lp2466
V\u63d0\u63d0\u795e
p2467
aF1.2415347376488386
aa(lp2468
V\u5e02\u573a
p2469
aF0.25258241477551946
aa(lp2470
V\u5dee\u4ef7
p2471
aF0.4952183382598157
aa(lp2472
V\u4e0d\u5927
p2473
aF0.31758473054008612
aa(lp2474
V\u4f4d\u7f6e
p2475
aF0.25307758098102129
aa(lp2476
V\u9879\u76ee
p2477
aF0.50614205832491743
aa(lp2478
V\u54d7\u5566\u5566
p2479
aF0.280346553662641
aa(lp2480
V\u4f9b\u7ed9
p2481
aF0.88862177588688063
aa(lp2482
V\u9664\u4ee5
p2483
aF2.6658653276606419
aa(lp2484
V\u9010\u6e10
p2485
aF0.31758473054008612
aa(lp2486
V\u770b\u6837\u5b50
p2487
aF1.0116150358725386
aa(lp2488
V\u7cbe\u529b
p2489
aF0.16093968821373833
aa(lp2490
V\u800c\u5df2
p2491
aF0.94447166026600504
aa(lp2492
V\u8054\u52a8\u6027
p2493
aF0.26325598470673339
aa(lp2494
V\u5b50
aF0.27158572386068347
aa(lp2495
V\u5ab3\u5987
p2496
aF0.19312762585648602
aa(lp2497
V\u8d27\u7269
p2498
aF0.3160270241287953
aa(lp2499
V\u4e2d\u62a5
p2500
aF0.41384491254961286
aa(lp2501
V\u6709\u5f3a
p2502
aF0.54317144772136694
aa(lp2503
V\u7565\u6709
p2504
aF0.29995581279625289
aa(lp2505
V\u5148\u950b
p2506
aF0.280346553662641
aa(lp2507
V\u53ea
aF0.18915645278095414
aa(lp2508
V\u4eec
aF0.21221324948674911
aa(lp2509
V\u529e\u4e8b
p2510
aF0.48281906464121505
aa(lp2511
V\u53ef\u80fd\u6027
p2512
aF0.66404080022018008
aa(lp2513
V\u4f8b\u5916
p2514
aF0.34762972654167484
aa(lp2515
V\u5979
aF0.2946014631709109
aa(lp2516
V\u4e0d\u591f
p2517
aF1.0845901249819658
aa(lp2518
V\u8ffd\u8fdb\u53bb
p2519
aF0.27158572386068347
aa(lp2520
V\u5f00\u9a82
p2521
aF0.45740753492325636
aa(lp2522
V\u6362\u80a1
p2523
aF0.60870406686849843
aa(lp2524
V\u4e24\u5468
p2525
aF0.2665865327660642
aa(lp2526
V\u597d\u4f3c
p2527
aF0.64375875285495332
aa(lp2528
V\u90aa\u6076
p2529
aF0.57938287756945805
aa(lp2530
V\u8fc7\u53bb
p2531
aF0.19550240621700168
aa(lp2532
V\u5e95\u78e8\u5e95
p2533
aF0.12543606716934211
aa(lp2534
V\u51e0\u70b9
p2535
aF0.15801351206439765
aa(lp2536
V\u653e\u5927
p2537
aF0.83678997421223644
aa(lp2538
V\u5929\u671d
p2539
aF1.2415347376488386
aa(lp2540
V\u5929\u671f
p2541
aF0.61519969099860972
aa(lp2542
V\u5b83\u4eec
p2543
aF0.23725408983980506
aa(lp2544
V\u91cd\u590d
p2545
aF0.2499248744681852
aa(lp2546
V\u4e2d\u836f
p2547
aF2.4830694752976772
aa(lp2548
V\u57fa\u7840
p2549
aF0.64375502282797925
aa(lp2550
V\u6301\u7eed\u6027
p2551
aF0.25398603142257592
aa(lp2552
V\u5de5\u4f5c
p2553
aF0.58401006729798177
aa(lp2554
V\u5938
aF0.34762972654167484
aa(lp2555
V\u5468\u4e00
p2556
aF0.23666080752584415
aa(lp2557
V\u670b
aF0.15519184220610482
aa(lp2558
V\u5c0f\u4e0d\u5fcd\u5219\u4e71\u5927\u8c0b
p2559
aF0.15246917830775211
aa(lp2560
V\u5fcd\u8010
p2561
aF0.26740748195513453
aa(lp2562
V\u7206\u53d1
p2563
aF0.25349749207406658
aa(lp2564
V\u5e73\u76d8
p2565
aF0.18157192951558387
aa(lp2566
V\u8d8a\u5357
p2567
aF0.51885033812190273
aa(lp2568
V\u5d1b\u8d77
p2569
aF0.28562842796364024
aa(lp2570
V\u65e7\u68a6
p2571
aF0.57938287756945805
aa(lp2572
V\u8bf4\u5b8c
p2573
aF0.27158572386068347
aa(lp2574
V\u4e94\u53ea
p2575
aF0.15519184220610482
aa(lp2576
V\u4e0b\u73ed
p2577
aF0.38083790395152028
aa(lp2578
V\u653f\u7b56\u5e95
p2579
aF0.69544312895495008
aa(lp2580
V\u505a\u5dee
p2581
aF1.448457193923645
aa(lp2582
V\u8f6c\u597d
p2583
aF0.5112201860906983
aa(lp2584
V\u5c71\u6d77
p2585
aF0.17381486327083742
aa(lp2586
V\u6709\u5229\u53ef\u56fe
p2587
aF0.44431088794344031
aa(lp2588
V\u76d8\u53e3
p2589
aF0.68398341733420887
aa(lp2590
V\u8f6c
aF1.0209656343467224
aa(lp2591
V\u53ca\u4e07\u6da6
p2592
aF0.16987090238190652
aa(lp2593
V\u4e13\u95e8
p2594
aF0.31990383931927707
aa(lp2595
V\u5931\u8d25
p2596
aF1.1498306157189693
aa(lp2597
V\u8650
aF0.34762972654167484
aa(lp2598
V\u60e8
aF0.57938287756945805
aa(lp2599
V\u903c
aF0.72150206513396142
aa(lp2600
V\u8c01
aF0.5273064914223371
aa(lp2601
V\u949d\u5316
p2602
aF1.1802175418512952
aa(lp2603
V\u5206\u5316
p2604
aF0.67436328719219285
aa(lp2605
V\u7559\u7740
p2606
aF0.33425935244391813
aa(lp2607
V\u628a
aF0.35723591022444451
aa(lp2608
V\u5e74\u8f7b\u4eba
p2609
aF0.15519184220610482
aa(lp2610
V\u6708\u5e95
p2611
aF0.36211429848091126
aa(lp2612
V\u9ad8\u4f1a
p2613
aF0.39987979914909633
aa(lp2614
V\u5f69\u7968
p2615
aF0.31371316346449107
aa(lp2616
V\u901f\u901f
p2617
aF0.66851870488783627
aa(lp2618
V\u5e26\u6765
p2619
aF0.1863501381870466
aa(lp2620
V\u4f17
aF0.14051735446846997
aa(lp2621
V\u5348\u524d
p2622
aF0.24830694752976773
aa(lp2623
V\u4e0b\u79fb
p2624
aF0.31464239453717507
aa(lp2625
V\u6df1\u6df1\u623f
p2626
aF0.37785839841486396
aa(lp2627
V\u5438\u5f15\u529b
p2628
aF0.28119003240273188
aa(lp2629
V\u6628\u65e5
p2630
aF0.15604933522801179
aa(lp2631
V\u5927\u4f17
p2632
aF0.5112201860906983
aa(lp2633
V\u62bd\u5956
p2634
aF0.72705418027108426
aa(lp2635
V\u5feb\u62a5
p2636
aF0.33425935244391813
aa(lp2637
V\u91cd\u538b
p2638
aF0.18490942901152915
aa(lp2639
V\u5988\u5f31
p2640
aF1.0863428954427339
aa(lp2641
V\u4e2d
aF0.6057495596989273
aa(lp2642
V\u5927\u4f1a
p2643
aF0.94901635935922024
aa(lp2644
V\u5468\u4e94
p2645
aF0.84310412681081981
aa(lp2646
V\u65b0
aF0.95978457308624909
aa(lp2647
V\u5927\u5bb6\u4f19
p2648
aF0.20660317568318862
aa(lp2649
V\u80a1\u901a
p2650
aF0.29515993573662058
aa(lp2651
V\u6838\u5fc3
p2652
aF0.42178504860409788
aa(lp2653
V\u5341\u5206\u949f
p2654
aF0.23258044877539857
aa(lp2655
V\u9ad8\u4f4e
p2656
aF0.29620725862896025
aa(lp2657
V\u9ad8\u4f4d
p2658
aF0.39436344382786476
aa(lp2659
V\u5c0f\u624b\u6307
p2660
aF0.37785839841486396
aa(lp2661
V\u629b\u76d8
p2662
aF0.41654736771222184
aa(lp2663
V\u4e0d\u7834
p2664
aF0.28094033855469158
aa(lp2665
V\u6001\u5ea6
p2666
aF0.1994733873551485
aa(lp2667
V\u80a1\u707e
p2668
aF0.51105264564382613
aa(lp2669
V\u5206\u5373
p2670
aF0.45740753492325636
aa(lp2671
V\u4f59\u652f
p2672
aF0.41384491254961286
aa(lp2673
V\u4e00\u67e5
p2674
aF0.66851870488783627
aa(lp2675
V\u6015\u6015
p2676
aF0.49984974893637041
aa(lp2677
V\u680b\u8f89
p2678
aF0.51715304281282259
aa(lp2679
V\u7a0d\u540e
p2680
aF0.29620725862896025
aa(lp2681
V\u7ef4\u7a33
p2682
aF0.43230248556659062
aa(lp2683
V\u91d1\u878d\u8857
p2684
aF0.86907431635418719
aa(lp2685
V\u5fb7\u607a\u82f1
p2686
aF0.6207673688244193
aa(lp2687
V\u5747\u7ebf
p2688
aF0.4104502988839594
aa(lp2689
V\u5e72\u8d27
p2690
aF0.79006756032198833
aa(lp2691
V\u8ddf\u522b
p2692
aF0.37960654374368813
aa(lp2693
V\u624b\u6cd5
p2694
aF0.37781631736665416
aa(lp2695
V\u591a\u5934
p2696
aF0.86570593367923188
aa(lp2697
V\u5e26\u6709
p2698
aF0.32187937642747666
aa(lp2699
V\u5883\u5730
p2700
aF0.2172685790885468
aa(lp2701
V\u672b
aF0.17040672869689943
aa(lp2702
V\u603b\u60f3
p2703
aF0.25942516906095137
aa(lp2704
V\u6cd5\u773c
p2705
aF0.280346553662641
aa(lp2706
V\u6210\u5c31
p2707
aF0.64375502282797925
aa(lp2708
V\u4e2d\u7279\u4e0d\u8865
p2709
aF1.448457193923645
aa(lp2710
V\u6389
aF0.73044488024219811
aa(lp2711
V\u5356
aF0.47121490816002576
aa(lp2712
V\u767e\u70b9
p2713
aF0.19979291775983582
aa(lp2714
V\u4f34\u968f
p2715
aF0.16712967622195907
aa(lp2716
V\u5e02
aF0.42653558850722811
aa(lp2717
V\u51fa\u53bb\u73a9
p2718
aF0.33323316595758024
aa(lp2719
V\u6c14\u8d28
p2720
aF0.57938287756945805
aa(lp2721
V\u70b9\u81f3
p2722
aF0.19138662840831816
aa(lp2723
V\u4ea4\u6d41
p2724
aF0.25561009304534915
aa(lp2725
V\u609f
aF0.36211429848091126
aa(lp2726
V\u6628\u665a
p2727
aF1.5514591284384678
aa(lp2728
V\u56f0\u56f0
p2729
aF1.0863428954427339
aa(lp2730
V\u73a9
aF0.27053514083044372
aa(lp2731
V\u5174\u8d77
p2732
aF1.3329326638303209
aa(lp2733
V\u574f\u5904
p2734
aF0.79006756032198833
aa(lp2735
V\u9876\u4e00\u4e0b
p2736
aF0.4209261043674698
aa(lp2737
V\u4fdd\u5065
p2738
aF1.2415347376488386
aa(lp2739
V\u4e24\u91cd\u5929
p2740
aF0.17736210537840552
aa(lp2741
V\u4eca\u65e5
p2742
aF0.28581994809000938
aa(lp2743
V\u641e\u4e86\u4e2a
p2744
aF0.79006756032198833
aa(lp2745
V\u5931\u671b
p2746
aF0.75921308748737626
aa(lp2747
V\u8001\u6881
p2748
aF0.22254786110689731
aa(lp2749
V\u6c7d\u8f66
p2750
aF0.79006756032198833
aa(lp2751
V\u6491
aF0.15246917830775211
aa(lp2752
V\u4ef7\u4f4d
p2753
aF0.24140953232060752
aa(lp2754
V\u7f8e\u5143
p2755
aF0.38286211288002092
aa(lp2756
V\u81ea\u6551
p2757
aF0.21615124278329531
aa(lp2758
V\u7cfb\u7edf\u6027
p2759
aF0.12174081337369969
aa(lp2760
V\u4e0d\u7b97
p2761
aF0.6207673688244193
aa(lp2762
V\u5bf9
aF0.19203795658578585
aa(lp2763
V\u6fee\u9633
p2764
aF0.18073727700002271
aa(lp2765
V\u6cc4\u9732
p2766
aF0.96563812928243009
aa(lp2767
V\u6e10\u884c
p2768
aF0.32187937642747666
aa(lp2769
V\u98ce\u9669
p2770
aF0.16207005890175924
aa(lp2771
V\u8fd8\u6709
p2772
aF0.26624539779365985
aa(lp2773
V\u684c\u9762
p2774
aF0.17271476222214077
aa(lp2775
V\u6309
aF0.53069105340875511
aa(lp2776
V\u7a7f\u6234
p2777
aF0.86907431635418719
aa(lp2778
V\u6ce2\u52a8
p2779
aF0.34476869520854836
aa(lp2780
V\u529e\u6cd5
p2781
aF0.84357009720819576
aa(lp2782
V\u89c9\u5f97
p2783
aF0.17227154166231021
aa(lp2784
V\u8be5\u56fe
p2785
aF0.23006457196587157
aa(lp2786
V\u8272\u8272\u8272
p2787
aF0.45740753492325636
aa(lp2788
V\u7b2c\u4e00\u4e2a
p2789
aF0.32187751141398963
aa(lp2790
V\uff21
aF0.34494918471569086
aa(lp2791
V\u6253\u5e7f\u544a
p2792
aF0.280346553662641
aa(lp2793
V\u54c8\u54c8\u54c8\u54c8
p2794
aF1.4608897604843962
aa(lp2795
V\u6e38\u620f
p2796
aF0.57125685592728048
aa(lp2797
V\u5427
aF0.19691623479923653
aa(lp2798
V\u590d\u724c
p2799
aF0.79006756032198833
aa(lp2800
V\u9876\u80cc\u79bb
p2801
aF0.45969159361139783
aa(lp2802
V\u4f8b\u5b50
p2803
aF0.26335585344066276
aa(lp2804
V\u591a\u7a7a
p2805
aF1.2411673027507744
aa(lp2806
V\u4e2d\u56fd\u961f
p2807
aF0.64856292265237836
aa(lp2808
V\u503c\u5f97\u7eaa\u5ff5
p2809
aF0.28119003240273188
aa(lp2810
V\u90a3\u53e5\u8bdd
p2811
aF0.63267757290614679
aa(lp2812
V\u53f3\u4fa7
p2813
aF0.39987979914909633
aa(lp2814
V\u94bc
aF0.5112201860906983
aa(lp2815
V\u6309\u7167
p2816
aF0.44258157819423571
aa(lp2817
V\u534a\u5929
p2818
aF0.69019371589761469
aa(lp2819
V\u4e13\u6cbb
p2820
aF0.6207673688244193
aa(lp2821
V\u6ca1
aF0.18553233290449109
aa(lp2822
V\u6301\u6709
p2823
aF0.49646692110030971
aa(lp2824
V\u6bcf\u6761
p2825
aF0.79006756032198833
aa(lp2826
V\u6700\u4f4e\u70b9
p2827
aF0.35406526255538862
aa(lp2828
V\u4f4e\u70b9
p2829
aF1.8375631110646422
aa(lp2830
V\u590d\u5236
p2831
aF0.25798696719296538
aa(lp2832
V\u8fd8\u4f1a\u62c9\u8d77
p2833
aF0.36522244012109906
aa(lp2834
V\u6c57
aF1.0663461310642568
aa(lp2835
V\u82b1\u56ed
p2836
aF0.57938287756945805
aa(lp2837
V\u6652\u592a\u9633
p2838
aF0.54229506249098292
aa(lp2839
V\u9762\u677f
p2840
aF0.54471578854675173
aa(lp2841
V\u5206\u504f
p2842
aF0.57938287756945805
aa(lp2843
V\u6ecb\u5473
p2844
aF0.22870376746162818
aa(lp2845
V\u5426\u5219
p2846
aF0.62058365137538718
aa(lp2847
V\u65e0\u5f02\u4e8e
p2848
aF0.4345371581770936
aa(lp2849
V\u4f5c\u51fa
p2850
aF0.4345371581770936
aa(lp2851
V\u4f20\u4e3a\u4f73\u8bdd
p2852
aF0.2172685790885468
aa(lp2853
V\u4e1c\u65b9
p2854
aF0.96354757349807973
aa(lp2855
V\u73cd\u60dc
p2856
aF0.44431088794344031
aa(lp2857
V\u6709\u7d27
p2858
aF0.14730073158545545
aa(lp2859
V\u5f69\u8679
p2860
aF0.26880127500451378
aa(lp2861
V\u539f\u521b
p2862
aF0.24140953232060752
aa(lp2863
V\u5e72\u8fdb
p2864
aF0.12240483328932213
aa(lp2865
V\u4e0d\u723d
p2866
aF0.79006756032198833
aa(lp2867
V\u5b89\u5168\u7cfb\u6570
p2868
aF0.22283956829594539
aa(lp2869
V\u94f6\u884c\u4e1a
p2870
aF0.27158572386068347
aa(lp2871
V\u5eb7\u4f73
p2872
aF1.7381486327083744
aa(lp2873
V\u76ee\u7684\u5730
p2874
aF0.27158572386068347
aa(lp2875
V\u7a7a\u95f4
p2876
aF0.74642960867744923
aa(lp2877
V\u51fa\u95e8
p2878
aF0.6207673688244193
aa(lp2879
V\u76c6\u53cb
p2880
aF0.36352709013554213
aa(lp2881
V\u5531\u6b4c
p2882
aF0.61519969099860972
aa(lp2883
V\u5927\u6da8
p2884
aF0.38030073154139832
aa(lp2885
V\u5f20
aF0.64375502282797925
aa(lp2886
V\u7ea0\u7ed3
p2887
aF0.45652805015137382
aa(lp2888
V\u60f3\u8fc7
p2889
aF0.17381486327083742
aa(lp2890
V\u6536\u590d
p2891
aF0.42246853835036791
aa(lp2892
V\u5c0f\u6e38\u620f
p2893
aF0.72705418027108426
aa(lp2894
V\u6bd4\u514b
p2895
aF0.6207673688244193
aa(lp2896
V\u9ad8\u8003
p2897
aF0.6207673688244193
aa(lp2898
V\u5c0f\u6e56
p2899
aF0.46976990073199304
aa(lp2900
V\u4ebf\u5143
p2901
aF0.87111246416561261
aa(lp2902
V\u8001\u8981
p2903
aF1.8980327187184405
aa(lp2904
V\u6253\u65b0
p2905
aF0.4296734589659989
aa(lp2906
V\u88c5
aF0.4209261043674698
aa(lp2907
V\u8865\u6da8
p2908
aF0.37960654374368813
aa(lp2909
V\u62c9
aF0.67436328719219285
aa(lp2910
V\u987a\u4fbf
p2911
aF0.17381486327083742
aa(lp2912
V\u571f
aF0.21196934545224078
aa(lp2913
V\u8f6c\u5411
p2914
aF0.54471578854675173
aa(lp2915
V\u652f\u6491\u4f4f
p2916
aF0.5112201860906983
aa(lp2917
V\u652f\u6491\u4f4d
p2918
aF0.28094033855469158
aa(lp2919
V\u62ac\u8f7f\u5b50
p2920
aF0.54317144772136694
aa(lp2921
V\u5475\u5475
p2922
aF0.39340584728376504
aa(lp2923
V\u96ea\u4eae
p2924
aF0.11761170563208716
aa(lp2925
V\u4e0b\u538b
p2926
aF0.57125685592728048
aa(lp2927
V\u625b\u8fc7
p2928
aF1.0863428954427339
aa(lp2929
V\u5ffd\u89c6
p2930
aF0.280346553662641
aa(lp2931
V\u5317\u65b9
p2932
aF0.72422859696182251
aa(lp2933
V\u518d\u52a0
p2934
aF0.20692245627480643
aa(lp2935
V\u91cf\u653b
p2936
aF0.86907431635418719
aa(lp2937
V\u56fe\u7247
p2938
aF2.2996612314379385
aa(lp2939
V\u56de\u8865
p2940
aF0.26051579203426922
aa(lp2941
V\u7a33\u59a5
p2942
aF0.47044682252834863
aa(lp2943
V\u500d\u6570
p2944
aF0.39503378016099416
aa(lp2945
V\u7a33\u5b9a
p2946
aF0.26534552670437755
aa(lp2947
V\u6fc0\u70c8
p2948
aF1.2415347376488386
aa(lp2949
V\u4e3b\u677f
p2950
aF0.44005414198471032
aa(lp2951
V\u52a0\u606f
p2952
aF0.14995626291705347
aa(lp2953
V\u540c\u8fbe
p2954
aF1.448457193923645
aa(lp2955
V\u62e9\u673a
p2956
aF1.2174081337369969
aa(lp2957
V\u521b\u6307
p2958
aF0.2617976163749573
aa(lp2959
V\u5dee\u8ddd
p2960
aF0.19270951469961595
aa(lp2961
V\u80a1\u7237
p2962
aF0.6207673688244193
aa(lp2963
V\u4e09\u5143
p2964
aF0.6207673688244193
aa(lp2965
V\u653e\u592a\u9ad8\u9022
p2966
aF0.72422859696182251
aa(lp2967
V\u56fd\u9645
p2968
aF1.6233796465514132
aa(lp2969
V\u968f\u4e4b
p2970
aF0.15741194337766751
aa(lp2971
V\u8fd8\u662f
p2972
aF0.20178490895954224
aa(lp2973
V\u5ba2\u89c2
p2974
aF0.12070476616030376
aa(lp2975
V\u53cc\u6797
p2976
aF0.57125685592728048
aa(lp2977
V\u6062\u590d
p2978
aF0.44258157819423571
aa(lp2979
V\u8868\u6f14
p2980
aF0.57125685592728048
aa(lp2981
V\u5149\u7535
p2982
aF0.28745765392974232
aa(lp2983
V\u826f\u673a
p2984
aF0.41013312733240648
aa(lp2985
V\u5077\u7b11
p2986
aF0.19143105644001046
aa(lp2987
V\u5960\u5b9a
p2988
aF0.72705418027108426
aa(lp2989
V\u9ec4\u91d1
p2990
aF0.66474366249329564
aa(lp2991
V\u5c0f\u4ed3
p2992
aF0.28562842796364024
aa(lp2993
V\u513f
aF0.24140953232060752
aa(lp2994
V\u653b\u5230
p2995
aF0.31038368441220965
aa(lp2996
V\u6240\u5904
p2997
aF0.18261122006054953
aa(lp2998
V\u60ca
aF2.1726857908854678
aa(lp2999
V\u4e0d\u8d1f\u4f17\u671b
p3000
aF0.57938287756945805
aa(lp3001
V\u5237\u5237
p3002
aF0.54317144772136694
aa(lp3003
V\u7cbe\u5f69
p3004
aF0.59010877092564762
aa(lp3005
V\u56f4\u800c
p3006
aF0.280346553662641
aa(lp3007
V\u4e70\u6df1
p3008
aF0.86907431635418719
aa(lp3009
V\u6bcf
aF0.25907214333321116
aa(lp3010
V\u4ed6
aF0.72855723903117675
aa(lp3011
V\u6240\u591a
p3012
aF0.22870376746162818
aa(lp3013
V\u65b9\u624d
p3014
aF0.79006756032198833
aa(lp3015
V\u6700\u9ad8
p3016
aF0.22309120790945031
aa(lp3017
V\u9886\u8dcc
p3018
aF0.27577917182696299
aa(lp3019
V\u9996\u94a2
p3020
aF0.79006756032198833
aa(lp3021
V\u4e00\u65e6
p3022
aF0.58074164277707507
aa(lp3023
V\u64e6\u4eae\u773c\u775b
p3024
aF1.0863428954427339
aa(lp3025
V\u5269
aF0.57125685592728048
aa(lp3026
V\u9633\u5149
p3027
aF0.76167580790304057
aa(lp3028
V\u5b89\u59ae
p3029
aF0.99969949787274082
aa(lp3030
V\u9ad8\u8d70
p3031
aF0.79006756032198833
aa(lp3032
V\u518d\u91cf
p3033
aF0.16093968821373833
aa(lp3034
V\u3000
aF0.48177378674903987
aa(lp3035
V\u8bda\u610f
p3036
aF0.86907431635418719
aa(lp3037
V\u8ddf\u8fdb
p3038
aF0.18155581730729811
aa(lp3039
V\u51fa\u9762
p3040
aF0.27158572386068347
aa(lp3041
V\u65e2\u7136
p3042
aF0.32306939893079839
aa(lp3043
V\u58a8\u8ff9
p3044
aF0.84357009720819576
aa(lp3045
V\u592a\u60e8
p3046
aF0.28969143878472903
aa(lp3047
V\u6f5c\u4f0f
p3048
aF0.45937790943777151
aa(lp3049
V\u504f\u9633
p3050
aF0.17736210537840552
aa(lp3051
V\u4e0a\u8981
p3052
aF0.40422061225776146
aa(lp3053
V\u6743\u5229
p3054
aF0.48281906464121505
aa(lp3055
V\u4ee5\u4e0a
p3056
aF0.77609237507434137
aa(lp3057
V\u5347\u6d6a\u4f1a
p3058
aF0.13591825682016651
aa(lp3059
V\u4f2a
aF0.26335585344066276
aa(lp3060
V\u538b\u51cf
p3061
aF0.22037672072873452
aa(lp3062
V\u722c
aF0.28119003240273188
aa(lp3063
V\u56fd\u5185
p3064
aF0.21901535537504177
aa(lp3065
V\u4e25\u683c\u7eaa\u5f8b
p3066
aF0.21196934545224078
aa(lp3067
V\u9876\u4e0d\u4f4f
p3068
aF1.0845901249819658
aa(lp3069
V\u5206\u4eab
p3070
aF0.44654488778055562
aa(lp3071
V\u9006\u88ad
p3072
aF0.24140953232060752
aa(lp3073
V\u4ebf
aF0.24723843528256848
aa(lp3074
V\u62cd\u7167
p3075
aF0.54471578854675173
aa(lp3076
V\u5404\u4f4d
p3077
aF0.20895651579547023
aa(lp3078
V\u6253\u677f
p3079
aF1.2415347376488386
aa(lp3080
V\u8bc4\u5206
p3081
aF0.36352709013554213
aa(lp3082
V\u8282\u594f
p3083
aF0.28799301782493003
aa(lp3084
V\u63a8\u571f\u673a
p3085
aF0.22870376746162818
aa(lp3086
V\u4e09\u4e94
p3087
aF0.36075103256698071
aa(lp3088
V\u9634\u8dcc
p3089
aF0.34762972654167484
aa(lp3090
V\u4f59\u989d
p3091
aF0.78539284912487195
aa(lp3092
V\u5929\u9a6c
p3093
aF0.27500038214432343
aa(lp3094
V\u8d8a\u4e45
p3095
aF0.48281906464121505
aa(lp3096
V\u652f\u6491
p3097
aF0.52449458333219445
aa(lp3098
V\u8de8\u8fdb
p3099
aF0.21196934545224078
aa(lp3100
V\u56fe\u4f1a
p3101
aF0.41384491254961286
aa(lp3102
V\u80cc\u5305
p3103
aF0.86907431635418719
aa(lp3104
V\u5374\u6d3b
p3105
aF0.24235139342369474
aa(lp3106
V\u4e34\u65f6
p3107
aF0.88862177588688063
aa(lp3108
V\u5b9a\u6027
p3109
aF0.30759984549930486
aa(lp3110
V\u76ef
aF0.38197168154150896
aa(lp3111
V\u5b9e\u5728
p3112
aF0.88862177588688063
aa(lp3113
V\u62ab\u9732
p3114
aF0.39503378016099416
aa(lp3115
V\u5173\u6ce8
p3116
aF0.31548975804214063
aa(lp3117
V\u5e74
aF0.84663754181627449
aa(lp3118
V\u6765\u6765\u56de\u56de
p3119
aF0.45740753492325636
aa(lp3120
V\u5927\u8fde
p3121
aF1.7703263127769429
aa(lp3122
V\u6c7d\u914d
p3123
aF0.69525945308334969
aa(lp3124
V\u5f35\u5927
p3125
aF1.2415347376488386
aa(lp3126
V\u7761
aF0.6207673688244193
aa(lp3127
V\u80a1\u6c5f\u7c89
p3128
aF0.25187754491110281
aa(lp3129
V\u5927\u7237
p3130
aF0.19041895197576014
aa(lp3131
V\u5403
aF0.35598151964274194
aa(lp3132
V\u7684
aF0.18309444308843617
aa(lp3133
V\u6bcf\u5929
p3134
aF0.41654736771222184
aa(lp3135
V\u5f00\u5fc3
p3136
aF0.76655374381264629
aa(lp3137
V\u200b
aF0.54112654885047107
aa(lp3138
V\u4e00\u9635\u5b50
p3139
aF0.63267757290614679
aa(lp3140
V\u6253\u67b6
p3141
aF0.4345371581770936
aa(lp3142
V\u8f6c\u8036\u8036\u8036
p3143
aF0.47044682252834863
aa(lp3144
V\u518d\u4e0b
p3145
aF0.48281906464121505
aa(lp3146
V\u9519
aF0.6131666376805962
aa(lp3147
V\u674e\u514b\u5f3a
p3148
aF0.34239603761353038
aa(lp3149
V\u9e1f
aF0.5112201860906983
aa(lp3150
V\u6084\u6084\u7684
p3151
aF1.2415347376488386
aa(lp3152
V\u5c0f\u91cf
p3153
aF2.1726857908854678
aa(lp3154
V
aF0.26335585344066276
aa(lp3155
V\u554a
aF0.32053047556602215
aa(lp3156
V\u63a2
aF0.63267757290614679
aa(lp3157
V\u6162\u6162
p3158
aF0.73976930516276129
aa(lp3159
V\u76d8\u4e2d
p3160
aF0.36202425440255498
aa(lp3161
V\u5b88\u682a\u5f85\u5154
p3162
aF0.27158572386068347
aa(lp3163
V\u5f00\u6da8
p3164
aF0.4345371581770936
aa(lp3165
V\u961f
aF0.51885033812190273
aa(lp3166
V\u592a\u7ed9\u529b
p3167
aF0.31038368441220965
aa(lp3168
V\u5c0f\u5973\u5b69
p3169
aF1.142513711854561
aa(lp3170
V\u53cd\u5e94
p3171
aF0.13591825682016651
aa(lp3172
V\u7740\u6570
p3173
aF0.54317144772136694
aa(lp3174
V\u5fb7\u53d4
p3175
aF2.1726857908854678
aa(lp3176
V\u5343\u4ebf
p3177
aF0.2104630521837349
aa(lp3178
V\u6837\u5b50
p3179
aF1.0086143056544354
aa(lp3180
V\u8d5a\u5934
p3181
aF0.45740753492325636
aa(lp3182
V\u4e3e\u884c
p3183
aF0.6207673688244193
aa(lp3184
V\u5916\u7535
p3185
aF0.57938287756945805
aa(lp3186
V\u6301\u597d
p3187
aF0.96563812928243009
aa(lp3188
V\u6da8\u5e45
p3189
aF0.27606617432896013
aa(lp3190
V\u5443
aF1.142513711854561
aa(lp3191
V\u7559\u8a00
p3192
aF0.39503378016099416
aa(lp3193
V\u5e76\u672a
p3194
aF0.15541380430685067
aa(lp3195
V\u5bf9\u6b64
p3196
aF0.34494918471569086
aa(lp3197
V\u7b2c\u4e09\u4e2a
p3198
aF0.36352709013554213
aa(lp3199
V\u8bf4\u660e
p3200
aF0.59943403305972698
aa(lp3201
V\u957f\u4e45
p3202
aF0.38083790395152028
aa(lp3203
V\u786e\u5b9a\u6027
p3204
aF0.15801351206439765
aa(lp3205
V\u518d\u73b0
p3206
aF1.0863428954427339
aa(lp3207
V\u80a1\u6d77
p3208
aF0.5331730655321284
aa(lp3209
V\u4e4b\u95f4
p3210
aF1.0209656343467224
aa(lp3211
V\u7559
aF0.72620880992777015
aa(lp3212
V\u80a5\u8089
p3213
aF0.18105714924045563
aa(lp3214
V\u4e0d\u653b
p3215
aF0.280346553662641
aa(lp3216
V\u600e\u4e48
p3217
aF0.17342773055343336
aa(lp3218
V\u6570\u94b1
p3219
aF0.47044682252834863
aa(lp3220
V\u8fdb\u5237
p3221
aF0.4345371581770936
aa(lp3222
V\u4f4e\u4e8e
p3223
aF0.19163843595316157
aa(lp3224
V\u5feb\u5feb
p3225
aF1.9993989957454816
aa(lp3226
V\u788d\u4e8b
p3227
aF0.79006756032198833
aa(lp3228
V\u731b\u72ee
p3229
aF0.86907431635418719
aa(lp3230
V\u4e07\u6da6
p3231
aF0.24486302303192722
aa(lp3232
V\u6682\u65f6
p3233
aF0.75096513700810363
aa(lp3234
V\u4e09\u4e2a
p3235
aF0.82862448652081533
aa(lp3236
V\u604b\u6218
p3237
aF0.29200503364899089
aa(lp3238
V\u8f9b\u82e6
p3239
aF0.65757271570023224
aa(lp3240
V\u4e2d\u7ebf
p3241
aF0.70422043540690127
aa(lp3242
V\u5c01
aF0.36352709013554213
aa(lp3243
V\u975e\u5e38\u660e\u663e
p3244
aF0.20291128512687695
aa(lp3245
V\u8d22\u7ecf
p3246
aF0.42393869090448155
aa(lp3247
V\u7c89
aF1.2653551458122936
aa(lp3248
V\u4e2d\u77f3\u5316
p3249
aF0.24830694752976773
aa(lp3250
V\u51b3\u7b56
p3251
aF0.4345371581770936
aa(lp3252
V\u7f51\u5bbf
p3253
aF0.17381486327083742
aa(lp3254
V\u4e2d\u957f\u7ebf
p3255
aF0.75921308748737626
aa(lp3256
V\u6f14
aF0.19041895197576014
aa(lp3257
V\u5c0f\u5077
p3258
aF0.48281906464121505
aa(lp3259
V\u672a\u77e5
p3260
aF0.14984039937141158
aa(lp3261
V\u4fdd\u4f4f
p3262
aF0.19222233690584159
aa(lp3263
V\u561a
aF0.19506331665809579
aa(lp3264
V\u53cd\u5f39
p3265
aF0.21377628848489758
aa(lp3266
V\u72c2\u98d9
p3267
aF0.37785839841486396
aa(lp3268
V\u66b4\u529b
p3269
aF0.94901635935922024
aa(lp3270
V\u80a1
aF0.22095701355359881
aa(lp3271
V\u6298\u78e8
p3272
aF0.66018529346728361
aa(lp3273
V\u9888\u7ebf
p3274
aF0.54317144772136694
aa(lp3275
V\u51b2\u51b2
p3276
aF0.57938287756945805
aa(lp3277
V\u4e2a
aF0.31237536071468291
aa(lp3278
V\u4f5c\u4e3a
p3279
aF0.17413042982955854
aa(lp3280
V\u7b97\u4e2a
p3281
aF0.86907431635418719
aa(lp3282
V\u96e8\u9732
p3283
aF0.64375502282797925
aa(lp3284
V\u8036
aF0.70813052511077723
aa(lp3285
V\u8981\u6b7b
p3286
aF0.17040672869689943
aa(lp3287
V\u7a76\u7adf
p3288
aF0.79006756032198833
aa(lp3289
V\u63d0\u9632
p3290
aF0.37785839841486396
aa(lp3291
V\u91d1\u9e70
p3292
aF0.20200905264046262
aa(lp3293
V\u5229\u7a7a
p3294
aF0.25464778769433932
aa(lp3295
V\u7f29\u5c0f
p3296
aF0.72422859696182251
aa(lp3297
V\u725b\u6c14
p3298
aF0.33724165072432793
aa(lp3299
V\u4e0d
aF0.23799436887327222
aa(lp3300
V\u62cd
aF0.45740753492325636
aa(lp3301
V\u4e24\u6781\u5206\u5316
p3302
aF0.48281906464121505
aa(lp3303
V\u6628\u5929
p3304
aF0.18737387492965346
aa(lp3305
V\u53d7
aF0.55126893331939264
aa(lp3306
V\u5565
aF0.56416695579580645
aa(lp3307
V\u4e2a\u80a1
p3308
aF0.20618774598388553
aa(lp3309
V\u76f4\u7ebf
p3310
aF0.98590860956966186
aa(lp3311
V\u6253\u5f00
p3312
aF0.31464239453717507
aa(lp3313
V\u77ed\u65f6\u95f4
p3314
aF0.27053514083044372
aa(lp3315
V\u6559\u5ba4
p3316
aF0.27158572386068347
aa(lp3317
V\u51b2\u51fb
p3318
aF0.19590662987406654
aa(lp3319
V\u6284\u5e95
p3320
aF0.6041641296532303
aa(lp3321
V\u5f88\u5dee
p3322
aF0.2213469334067267
aa(lp3323
V\u53ef\u7231
p3324
aF0.5331730655321284
aa(lp3325
V\u6216\u8bb8
p3326
aF0.91305610030274764
aa(lp3327
V\u521d\u9732\u950b\u8292
p3328
aF0.45740753492325636
aa(lp3329
V\u6cea\u6cea\u6cea
p3330
aF1.2415347376488386
aa(lp3331
V\u9001
aF0.36988465258138065
aa(lp3332
V\u6c14\u52bf
p3333
aF0.26335585344066276
aa(lp3334
V\u65f6\u65f6
p3335
aF0.14984039937141158
aa(lp3336
V\u4e24\u70b9
p3337
aF1.2776316141095654
aa(lp3338
V\u9664\u53bb
p3339
aF0.79006756032198833
aa(lp3340
V\u7d27\u5f20
p3341
aF0.34772156447747504
aa(lp3342
V\u6709\u6240
p3343
aF0.72150206513396142
aa(lp3344
V\u8bc4\u80a1
p3345
aF0.57207708097668197
aa(lp3346
V\u597d\u73a9
p3347
aF1.0863428954427339
aa(lp3348
V\u4f4e\u8ff7
p3349
aF0.48812748495713798
aa(lp3350
V\u5403\u6389
p3351
aF0.14907038372289758
aa(lp3352
V\u7406\u7531
p3353
aF0.25798696719296538
aa(lp3354
V\u534e\u53cb
p3355
aF0.70813052511077723
aa(lp3356
V\u53d1\u8d77
p3357
aF0.4345371581770936
aa(lp3358
V\u6da8
aF0.16924168163051848
aa(lp3359
V\u4e07\u6cfd
p3360
aF0.35040604037878903
aa(lp3361
V\u6709\u8272
p3362
aF0.49855774686997179
aa(lp3363
V\u57cb\u4f0f
p3364
aF0.21196934545224078
aa(lp3365
V\u4f30\u503c
p3366
aF0.3160270241287953
aa(lp3367
V\u80a1\u6c11
p3368
aF0.2076540273247571
aa(lp3369
V\u6211\u8981
p3370
aF1.448457193923645
aa(lp3371
V\u81f4\u656c
p3372
aF0.6207673688244193
aa(lp3373
V\u8981\u8bf4
p3374
aF0.47044682252834863
aa(lp3375
V\u592a\u5f31
p3376
aF0.64375502282797925
aa(lp3377
V\u5ef6\u7eed\u6027
p3378
aF0.42178504860409788
aa(lp3379
V\u5c3d\u91cf
p3380
aF0.47450817967961012
aa(lp3381
V\u8bf4\u6765
p3382
aF0.20211030612888073
aa(lp3383
V\u591a\u6570
p3384
aF0.55094180182183627
aa(lp3385
V\u56de\u5f52
p3386
aF1.4608897604843962
aa(lp3387
V\u559c\u6781\u800c\u6ce3
p3388
aF0.66851870488783627
aa(lp3389
V\u7389\u9f99
p3390
aF0.2149401335466784
aa(lp3391
V\u51c0
aF0.2356273807232897
aa(lp3392
V\u65e5\u8baf
p3393
aF0.29200503364899089
aa(lp3394
V\u8c46\u7c95
p3395
aF0.4345371581770936
aa(lp3396
V\u518d\u52a8
p3397
aF0.280346553662641
aa(lp3398
V\u4e0a\u884c
p3399
aF0.46382275615754659
aa(lp3400
V\u666e\u901a
p3401
aF0.99969949787274082
aa(lp3402
V\u6781\u5c0f
p3403
aF0.44258157819423571
aa(lp3404
V\u76c8\u4e8f\u81ea\u8d1f
p3405
aF0.36211429848091126
aa(lp3406
V\u96e8\u5b63
p3407
aF0.96563812928243009
aa(lp3408
V\u4e0b\u65b9
p3409
aF0.44327403669670506
aa(lp3410
V\u8d8a\u8fc7
p3411
aF0.5013890286658772
aa(lp3412
V\u9ad8\u5356
p3413
aF2.1726857908854678
aa(lp3414
V\u63d0\u795e\u9192\u8111
p3415
aF1.0863428954427339
aa(lp3416
V\u677e\u52a8
p3417
aF0.86907431635418719
aa(lp3418
V\u5927\u5355
p3419
aF1.3222603243724071
aa(lp3420
V\u9002\u9022
p3421
aF0.14984039937141158
aa(lp3422
V\u80a1\u6c47
p3423
aF1.8980327187184405
aa(lp3424
V\u5fc5\u8981
p3425
aF0.67448330144865587
aa(lp3426
V\u53c2\u4e0e\u5ea6
p3427
aF0.21615124278329531
aa(lp3428
V\u8fb9\u7f18
p3429
aF0.60870406686849843
aa(lp3430
V\u6076\u6c14
p3431
aF0.99969949787274082
aa(lp3432
V\u8ddf\u8e2a
p3433
aF0.3875336225169228
aa(lp3434
V\u4ebf\u8f83
p3435
aF0.99969949787274082
aa(lp3436
V\u6bd4\u8f83
p3437
aF0.2796151185065987
aa(lp3438
V\u597d\u53cb
p3439
aF0.28119003240273188
aa(lp3440
V\u5927\u5348
p3441
aF0.79006756032198833
aa(lp3442
V\u94a2\u7164
p3443
aF0.66646633191516047
aa(lp3444
V\u80a1\u4fa0
p3445
aF2.6979332057946235
aa(lp3446
V\u8fdb\u573a
p3447
aF0.28394243671250224
aa(lp3448
V\u4e0d\u8db3
p3449
aF0.23560745408001288
aa(lp3450
V\u4fa0\u54e5
p3451
aF0.57938287756945805
aa(lp3452
V\u5e08
aF0.54317144772136694
aa(lp3453
V\u4ec0\u4e48
p3454
aF0.32713352138346857
aa(lp3455
V\u6700\u6709
p3456
aF0.27158572386068347
aa(lp3457
V\u800c
aF0.13782272373754581
aa(lp3458
V\u7ba1\u4e2d\u7aa5\u8c79
p3459
aF0.23488495036599652
aa(lp3460
V\u5927\u4f19
p3461
aF0.22870376746162818
aa(lp3462
V\u6c42\u9053
p3463
aF0.27158572386068347
aa(lp3464
V\u5f00\u4f1a
p3465
aF0.79006756032198833
aa(lp3466
V\u751a
aF0.57938287756945805
aa(lp3467
V\u53d8\u5f97
p3468
aF0.27158572386068347
aa(lp3469
V\u6da8\u5f97\u5c11
p3470
aF0.31990383931927707
aa(lp3471
V\u98de\u673a
p3472
aF0.98556909918768798
aa(lp3473
V\u4e8b\u60c5
p3474
aF0.22842920164863778
aa(lp3475
V\u6b7b\u4e0d\u4e86
p3476
aF0.37785839841486396
aa(lp3477
V\u5e95\u7ebf
p3478
aF0.22850274237091217
aa(lp3479
V\u7ffb\u591a
p3480
aF1.3489666028973117
aa(lp3481
V\u9759\u6084\u6084
p3482
aF0.46976990073199304
aa(lp3483
V\u8d2a
aF0.36522244012109906
aa(lp3484
V\u65b0\u4e00\u671f
p3485
aF0.27158572386068347
aa(lp3486
V\u54af
aF0.57938287756945805
aa(lp3487
V\u808c\u8089
p3488
aF0.79975959829819265
aa(lp3489
V\u9ad8\u70b9
p3490
aF0.65312590759276812
aa(lp3491
V\u53ea\u6709
p3492
aF0.16691708833902805
aa(lp3493
V
aF1.9921224006605402
aa(lp3494
V\u73b0\u573a\u76f4\u64ad
p3495
aF2.1726857908854678
aa(lp3496
V\u5c0f\u5355
p3497
aF0.21089252430204894
aa(lp3498
V\u504f\u5411
p3499
aF0.30759984549930486
aa(lp3500
V\u57fa\u672c
p3501
aF1.244292774209391
aa(lp3502
V\u65b0\u6750
p3503
aF0.3727002763740932
aa(lp3504
V\u5929\u987a
p3505
aF0.8070210601775577
aa(lp3506
V\u5229\u597d
p3507
aF0.53949062975375428
aa(lp3508
V\u516c\u5f00
p3509
aF0.31990383931927707
aa(lp3510
V\u597d\u65f6\u673a
p3511
aF0.36211429848091126
aa(lp3512
V\u4e2d\u5c0f
p3513
aF0.31990024007038326
aa(lp3514
V\u4eba\u5f03\u6211\u53d6
p3515
aF0.19751689008049708
aa(lp3516
V\u8dcc\u7834
p3517
aF0.21654773120501106
aa(lp3518
V\u5448
aF0.47450817967961012
aa(lp3519
V\u78a7\u6c60
p3520
aF0.54229506249098292
aa(lp3521
V\u6015
aF0.70813052511077723
aa(lp3522
V\u9762\u5bf9
p3523
aF0.31371316346449107
aa(lp3524
V\u65e0\u5173\u7d27\u8981
p3525
aF0.20211030612888073
aa(lp3526
V\u8f7b\u4ed3
p3527
aF0.77572956421923389
aa(lp3528
V\u964d\u4e0b\u6765
p3529
aF1.7381486327083744
aa(lp3530
V\u533b\u7597
p3531
aF0.41372243425025806
aa(lp3532
V\u767d\u9152
p3533
aF0.42178504860409788
aa(lp3534
V\u6bcf\u7bc7
p3535
aF0.54317144772136694
aa(lp3536
V\u521b\u5efa
p3537
aF0.26335585344066276
aa(lp3538
V\u4f4e\u8c03
p3539
aF0.5112201860906983
aa(lp3540
V\u9e70\u6d3e
p3541
aF0.31038368441220965
aa(lp3542
V\u5c01\u677f
p3543
aF1.1907863674148149
aa(lp3544
V\u80a1\u8fdb
p3545
aF0.44431088794344031
aa(lp3546
V\u8d5e\u5927
p3547
aF0.57938287756945805
aa(lp3548
V\u65e5\u6caa\u6df1
p3549
aF0.38083790395152028
aa(lp3550
V\u4e0d\u6765
p3551
aF0.39503378016099416
aa(lp3552
V\u6ee1\u8db3\u6761\u4ef6
p3553
aF0.39503378016099416
aa(lp3554
V\u6ee1\u5929\u98de
p3555
aF0.54317144772136694
aa(lp3556
V\u53e4\u602a
p3557
aF0.26335585344066276
aa(lp3558
V\u534e\u817e
p3559
aF0.18889433205320103
aa(lp3560
V\u89d2\u8272
p3561
aF0.24235139342369474
aa(lp3562
V\u7ae5\u59e5
p3563
aF0.4209261043674698
aa(lp3564
V\u63a5\u4e0b\u6765
p3565
aF0.17546712281350807
aa(lp3566
V\u9ad8\u9001
p3567
aF1.2174081337369969
aa(lp3568
V\u94a2\u94c1\u80a1
p3569
aF0.66851870488783627
aa(lp3570
V\u5173\u4e0a
p3571
aF0.31038368441220965
aa(lp3572
V\u5361\u5361
p3573
aF1.8980327187184405
aa(lp3574
V\u7ea2\u67f1
p3575
aF0.45740753492325636
aa(lp3576
V\u63d0\u95ee
p3577
aF0.7494258904985065
aa(lp3578
V\u9664\u4e0d\u5c3d
p3579
aF2.8969143878472901
aa(lp3580
V\u73a9\u5427
p3581
aF0.25561009304534915
aa(lp3582
V\u518d\u51fa
p3583
aF0.91305610030274764
aa(lp3584
V\u5f31\u60f3
p3585
aF0.280346553662641
aa(lp3586
V\u5982\u671f
p3587
aF0.33202040011009004
aa(lp3588
V\u5c01\u8865
p3589
aF0.6207673688244193
aa(lp3590
V\u64a4
aF0.5331730655321284
aa(lp3591
V\u5047\u52a8\u4f5c
p3592
aF0.72422859696182251
aa(lp3593
V\u8001\u5468
p3594
aF0.20018827463722164
aa(lp3595
V\u80fd\u591f
p3596
aF0.45524264933093006
aa(lp3597
V\u81ea\u9009\u80a1
p3598
aF0.280346553662641
aa(lp3599
V\u914d\u6709
p3600
aF0.41384491254961286
aa(lp3601
V\u51b2\u523a
p3602
aF0.45740753492325636
aa(lp3603
V\u7aed\u529b
p3604
aF0.280346553662641
aa(lp3605
V\u538b\u5355
p3606
aF0.45740753492325636
aa(lp3607
V\u8bf7\u95ee
p3608
aF0.41384491254961286
aa(lp3609
V\u9a97\u4eba
p3610
aF0.44567913659189079
aa(lp3611
V\u667a\u8005\u89c1\u667a
p3612
aF0.4345371581770936
aa(lp3613
V\u8fbe
aF0.45057921688351199
aa(lp3614
V\u627e\u9ad8
p3615
aF0.21196934545224078
aa(lp3616
V\u5c0f\u73a9
p3617
aF0.66646633191516047
aa(lp3618
V\u8f69\u9633
p3619
aF0.21366760580141647
aa(lp3620
V\u53ef\u64cd\u4f5c\u6027
p3621
aF0.44431088794344031
aa(lp3622
V\u80cc
aF0.54317144772136694
aa(lp3623
V\u5c79\u7acb
p3624
aF0.57938287756945805
aa(lp3625
V\u95ee\u9898
p3626
aF0.35999127228116257
aa(lp3627
V\u76d8
aF0.89308977556111124
aa(lp3628
V\u6bd4\u8d5b
p3629
aF0.5851899499742873
aa(lp3630
V\u7e41\u8363
p3631
aF0.37785839841486396
aa(lp3632
V\u4e07\u8fbe
p3633
aF0.23006457196587157
aa(lp3634
V\u9762\u7b49
p3635
aF0.48281906464121505
aa(lp3636
V\u5c3d\u529b
p3637
aF0.280346553662641
aa(lp3638
V\u524d\u9ad8
p3639
aF0.88862177588688063
aa(lp3640
V\u8d70\u7ea2
p3641
aF0.22870376746162818
aa(lp3642
V\u5f39\u529b
p3643
aF0.57938287756945805
aa(lp3644
V\u4eca\u5929
p3645
aF0.27456485444640888
aa(lp3646
V\u7533\u8d2d
p3647
aF1.3612875124622965
aa(lp3648
V\u5316\u5de5\u54c1
p3649
aF0.41384491254961286
aa(lp3650
V\u5236\u9020
p3651
aF0.67307157993305533
aa(lp3652
V\u4fee\u6b63
p3653
aF0.42587720470318841
aa(lp3654
V\u618b\u7740
p3655
aF0.4209261043674698
aa(lp3656
V\u4e0b\u6765
p3657
aF0.51715304281282259
aa(lp3658
V\u592e\u4f01
p3659
aF0.20946834149050492
aa(lp3660
V\u7cd6
aF0.69525945308334969
aa(lp3661
V\u98d9\u5347
p3662
aF0.79006756032198833
aa(lp3663
V\u8d21\u732e
p3664
aF0.22215544397172016
aa(lp3665
V\u6211\u8be5
p3666
aF0.17736210537840552
aa(lp3667
V\u75af
aF0.39958583551967164
aa(lp3668
V\u7092\u4e0d\u6765
p3669
aF0.28969143878472903
aa(lp3670
V\u540e\u51b2
p3671
aF0.6207673688244193
aa(lp3672
V\u81ea\u7136\u89c4\u5f8b
p3673
aF0.23488495036599652
aa(lp3674
V\u989d
aF0.84357009720819576
aa(lp3675
V\u5929\u5927
p3676
aF0.23488495036599652
aa(lp3677
V\u6d6a\u8d39
p3678
aF2.2850274237091219
aa(lp3679
V\u4e0d\u4ec5\u4ec5
p3680
aF0.25798696719296538
aa(lp3681
V\u8865\u91cf
p3682
aF0.69019371589761469
aa(lp3683
V\u4e00\u5927
p3684
aF0.26335585344066276
aa(lp3685
V\u53bb\u7559
p3686
aF0.61519969099860972
aa(lp3687
V\u4e00\u5929
p3688
aF0.43461173004163123
aa(lp3689
V\u94f6\u884c
p3690
aF0.27457171028839011
aa(lp3691
V\u5927\u5199
p3692
aF0.88862177588688063
aa(lp3693
V\u6b65\u5165
p3694
aF0.17381486327083742
aa(lp3695
V\u6740\u4f24\u529b
p3696
aF0.24830694752976773
aa(lp3697
V\u795e\u63a2
p3698
aF0.6207673688244193
aa(lp3699
V\u8df7\u8df7\u677f
p3700
aF0.20291128512687695
aa(lp3701
V\u91cd\u6765
p3702
aF0.13016950366629843
aa(lp3703
V\u8ba1\u7b97
p3704
aF0.22215544397172016
aa(lp3705
V\u7279\u65af\u62c9
p3706
aF0.86907431635418719
aa(lp3707
V\u8bf4\u8bdd
p3708
aF0.33653578996652767
aa(lp3709
V\u6cd5
aF0.54317144772136694
aa(lp3710
V\u6211\u8ba4
p3711
aF0.79006756032198833
aa(lp3712
V\u80a1\u4ef7
p3713
aF0.44056262555502246
aa(lp3714
V\u9886\u5148
p3715
aF0.63267757290614679
aa(lp3716
V\u8d44\u91d1\u91cf
p3717
aF0.14730073158545545
aa(lp3718
V\u80a1\u4efd
p3719
aF0.13580567010304684
aa(lp3720
V\u5a74\u513f
p3721
aF1.3329326638303209
aa(lp3722
V\u8d70\u5f31
p3723
aF0.7494258904985065
aa(lp3724
V\u91cf
aF0.12862600578245278
aa(lp3725
V\u542f\u52a8
p3726
aF0.19017611166051501
aa(lp3727
V\u8d70\u5f3a
p3728
aF0.44956678571330955
aa(lp3729
V\u53eb
aF0.27194058920180281
aa(lp3730
V\u54e6
aF0.52440399089529177
aa(lp3731
V\u559c\u4eba
p3732
aF0.79006756032198833
aa(lp3733
V\u706b\u70ed
p3734
aF0.60870406686849843
aa(lp3735
V\u91d1\u5c5e
p3736
aF0.5112201860906983
aa(lp3737
V\u6210\u4ea4\u91cf
p3738
aF0.29422727702517265
aa(lp3739
V\u770b\u5c11
p3740
aF0.34762972654167484
aa(lp3741
V\u73b0\u8c61
p3742
aF0.53250271086233236
aa(lp3743
V\u53d8\u7eff
p3744
aF0.2104630521837349
aa(lp3745
V\u538b\u529b
p3746
aF0.71198375929087909
aa(lp3747
V\u8d77\u98de
p3748
aF0.27114753124549146
aa(lp3749
V\u79d1\u6280\u80a1
p3750
aF0.31935337309208128
aa(lp3751
V\u96c6\u4f53
p3752
aF0.28030752118904545
aa(lp3753
V\u664b\u7ea7
p3754
aF0.54317144772136694
aa(lp3755
V\u5c55\u793a
p3756
aF0.43755670043430961
aa(lp3757
V\u51e0\u4e2a
p3758
aF0.21716233560840187
aa(lp3759
V\u5f88
aF0.27210839457236646
aa(lp3760
V\u8ddf\u4e0a\u6765
p3761
aF0.2104630521837349
aa(lp3762
V\u5527\u5527
p3763
aF0.22870376746162818
aa(lp3764
V\u63d2\u5165
p3765
aF0.20211030612888073
aa(lp3766
V\u5144\u5f1f
p3767
aF0.54229506249098292
aa(lp3768
V\u731b\u5c06
p3769
aF0.28969143878472903
aa(lp3770
V\u5982\u679c
p3771
aF0.20968253989578253
aa(lp3772
V\u5e72\u6d3b
p3773
aF0.79975959829819265
aa(lp3774
V\u5931\u8054
p3775
aF1.2415347376488386
aa(lp3776
V\u541b\u4e34\u5929\u4e0b
p3777
aF0.57938287756945805
aa(lp3778
V\u5c40\u9762
p3779
aF0.5138005997654802
aa(lp3780
V\u70b9\u5219
p3781
aF0.24140953232060752
aa(lp3782
V\u7275\u725b
p3783
aF0.27053514083044372
aa(lp3784
V\u7b2c\u4e00\u5929
p3785
aF0.54317144772136694
aa(lp3786
V\u60c5\u62a5
p3787
aF0.14984039937141158
aa(lp3788
V\u6caa
aF0.14858557639941641
aa(lp3789
V\u6781\u6709
p3790
aF0.21196934545224078
aa(lp3791
V\u98ce\u5411\u6807
p3792
aF0.280346553662641
aa(lp3793
V\u8fdb\u5165
p3794
aF0.25046934372723922
aa(lp3795
V\u4e0a\u5468
p3796
aF0.86237296178922707
aa(lp3797
V\u8282\u76ee
p3798
aF0.79975959829819265
aa(lp3799
V\u70c2
aF0.34762972654167484
aa(lp3800
V\u591a\u6708
p3801
aF0.44431088794344031
aa(lp3802
V\u8d70\u5f97
p3803
aF1.3329326638303209
aa(lp3804
V\u6743\u91cd
p3805
aF1.0546129828446742
aa(lp3806
V\u8d26\u6237
p3807
aF0.57938287756945805
aa(lp3808
V\u4e0d\u662f
p3809
aF0.19800684144707698
aa(lp3810
V\u4e60\u60ef
p3811
aF0.37960654374368813
aa(lp3812
V\u963b\u6321
p3813
aF0.27158572386068347
aa(lp3814
V\u516c\u5f00\u5e02\u573a
p3815
aF0.84282101566407475
aa(lp3816
V\u84c4\u529b
p3817
aF0.21196934545224078
aa(lp3818
V\u8d44\u91d1\u4e0d\u8db3
p3819
aF0.66851870488783627
aa(lp3820
V\u6a21\u4eff
p3821
aF0.37785839841486396
aa(lp3822
V\u89c2\u671b
p3823
aF0.24760916912990785
aa(lp3824
V\u7f8e\u6c5f\u7279
p3825
aF0.39987979914909633
aa(lp3826
V\u7535\u94bb
p3827
aF0.59241451725792049
aa(lp3828
V\u725b\u5e02
p3829
aF0.59010877092564762
aa(lp3830
V\u4e07\u4ebf
p3831
aF0.86907431635418719
aa(lp3832
V\u843d\u5b9e
p3833
aF1.7381486327083744
aa(lp3834
V\u706d
aF0.4209261043674698
aa(lp3835
V\u8010\u5fc3
p3836
aF0.1689983280493777
aa(lp3837
V\u5185\u7ebf
p3838
aF1.1018836036436725
aa(lp3839
V\u6768\u5fb7\u9f99
p3840
aF0.37785839841486396
aa(lp3841
V\u5de8\u661f
p3842
aF0.24140953232060752
aa(lp3843
V\u6b7b
aF2.1293860235159419
aa(lp3844
V\u5934\u6761
p3845
aF0.73044488024219811
aa(lp3846
V\u611f\u609f
p3847
aF0.15519184220610482
aa(lp3848
V\u4e3a\u4ec0\u4e48
p3849
aF2.2482776714955195
aa(lp3850
V\u4e8e\u662f
p3851
aF0.20692245627480643
aa(lp3852
V\u8981\u4e48
p3853
aF0.20906011194890353
aa(lp3854
V\u9996\u4f4d
p3855
aF0.6207673688244193
aa(lp3856
V\u6574\u7406
p3857
aF0.36729453454789085
aa(lp3858
V\u4ecd\u7136
p3859
aF0.36075103256698071
aa(lp3860
V\u5168\u662f
p3861
aF0.57125685592728048
aa(lp3862
V\u5e78\u597d
p3863
aF0.22870376746162818
aa(lp3864
V\u5199
aF0.27053514083044372
aa(lp3865
V\u904f\u5236
p3866
aF0.19751689008049708
aa(lp3867
V\u5224\u65ad\u529b
p3868
aF0.21196934545224078
aa(lp3869
V\u5348\u8bc4
p3870
aF1.4643824548714139
aa(lp3871
V\u878d\u8d44
p3872
aF0.73254881908011427
aa(lp3873
V\u6da8\u9ad8
p3874
aF0.31990383931927707
aa(lp3875
V\u8dcc\u5e45
p3876
aF0.79360699251610312
aa(lp3877
V\u63a5
aF0.45652805015137382
aa(lp3878
V\u77ff\u4e1a
p3879
aF0.37960654374368813
aa(lp3880
V\u666e\u904d
p3881
aF0.37785839841486396
aa(lp3882
V\u5c40\u90e8
p3883
aF0.63267757290614679
aa(lp3884
V\u6d17\u5237
p3885
aF0.5112201860906983
aa(lp3886
V\u7533\u8bf7
p3887
aF0.14541083605421684
aa(lp3888
V\u5e84\u7a3c
p3889
aF1.448457193923645
aa(lp3890
V\u8fd0\u4f5c
p3891
aF0.58003714056457079
aa(lp3892
V\u8fb9\u7ad9
p3893
aF0.18176354506777107
aa(lp3894
V\u8eab\u5f71
p3895
aF0.13016950366629843
aa(lp3896
V\u65e0\u98ce\u9669
p3897
aF0.72422859696182251
aa(lp3898
V\u4e0a\u6da8
p3899
aF0.1307251872196227
aa(lp3900
V\u9605\u8bfb
p3901
aF0.69019371589761469
aa(lp3902
V\u6536
aF0.33621884581830663
aa(lp3903
V\u5df4\u54e5
p3904
aF0.19299009556256971
aa(lp3905
V\u59ff\u6001
p3906
aF0.2213469334067267
aa(lp3907
V\u7a7a\u4ed3
p3908
aF0.16866282042092606
aa(lp3909
V\u65e5\u4e2d
p3910
aF0.41384491254961286
aa(lp3911
V\u6606\u4ed1
p3912
aF0.25798696719296538
aa(lp3913
V\u592e\u884c
p3914
aF0.34494918471569086
aa(lp3915
V\u589e\u901f
p3916
aF0.89135827318378158
aa(lp3917
V\u4f55\u65f6
p3918
aF0.88516315638847143
aa(lp3919
V\u5357\u6d0b
p3920
aF0.44431088794344031
aa(lp3921
V\u573a\u9762
p3922
aF0.48281906464121505
aa(lp3923
V\u4e0a\u8e7f\u4e0b\u8df3
p3924
aF0.41384491254961286
aa(lp3925
V\u8dd1
aF0.68953739041709672
aa(lp3926
V\u9ad8\u76db
p3927
aF0.2104630521837349
aa(lp3928
V\u786e\u5b9a
p3929
aF0.17858784962506452
aa(lp3930
V\u540e\u76fe
p3931
aF0.15801351206439765
aa(lp3932
V\u4e00\u5e55
p3933
aF1.0863428954427339
aa(lp3934
V\u4e0d\u5fc5\u8981
p3935
aF0.39503378016099416
aa(lp3936
V\u611f\u60c5
p3937
aF1.142513711854561
aa(lp3938
V\u7c7b\u80a1\u7968
p3939
aF0.34762972654167484
aa(lp3940
V\u8d44\u6e90
p3941
aF0.69151365169025902
aa(lp3942
V\u8e0a\u8dc3
p3943
aF0.79975959829819265
aa(lp3944
V\u5341\u5b57\u661f
p3945
aF0.63267757290614679
aa(lp3946
V\u4ebf\u5de6\u53f3
p3947
aF0.25428083161007831
aa(lp3948
V\u5229\u7528
p3949
aF0.17271476222214077
aa(lp3950
V\u4ea4\u5272\u65e5
p3951
aF0.41384491254961286
aa(lp3952
V\u6750\u6599
p3953
aF0.2233337603916816
aa(lp3954
V\u70b9\u51fb
p3955
aF0.84357009720819576
aa(lp3956
V\u5927\u76d8
p3957
aF0.33178135806610065
aa(lp3958
V\u58f3
aF0.69544312895495008
aa(lp3959
V\u5f53\u524d
p3960
aF0.32939415942256212
aa(lp3961
V\u65f6\u5c1a
p3962
aF1.0845901249819658
aa(lp3963
V\u8ffd
aF0.30132720755973952
aa(lp3964
V\u6001\u52bf
p3965
aF0.50502263160115657
aa(lp3966
V\u8b66\u62a5
p3967
aF1.448457193923645
aa(lp3968
V\u56fd\u7535
p3969
aF0.27577917182696299
aa(lp3970
V\u91cf\u59d4\u7f29
p3971
aF0.22870376746162818
aa(lp3972
V\u5929\u7ebf
p3973
aF0.47044682252834863
aa(lp3974
V\u652f
aF0.36153004166065533
aa(lp3975
V\u6b62\u76c8
p3976
aF0.31464239453717507
aa(lp3977
V\u8868\u73b0
p3978
aF1.254496492794889
aa(lp3979
V\u751f\u6c14
p3980
aF0.57938287756945805
aa(lp3981
V\u89c1\u602a\u4e0d\u602a
p3982
aF0.4345371581770936
aa(lp3983
V\u51c0\u91cf
p3984
aF0.79006756032198833
aa(lp3985
V\u8001\u670b\u53cb
p3986
aF0.24980863016616883
aa(lp3987
V\u6ca1\u7535
p3988
aF0.86907431635418719
aa(lp3989
V\u606d\u559c
p3990
aF0.33181140645583762
aa(lp3991
V\u8001\u725b
p3992
aF0.45700548474182434
aa(lp3993
V\u94c1\u5320\u94fa
p3994
aF1.2415347376488386
aa(lp3995
V\u6307\u524d
p3996
aF0.27158572386068347
aa(lp3997
V\u5e02\u4f1a
p3998
aF0.36211429848091126
aa(lp3999
V\u81ea\u884c
p4000
aF1.5995191965963853
aa(lp4001
V\u6025\u4e8e
p4002
aF2.6658653276606419
aa(lp4003
V\u4e00\u518d
p4004
aF0.38083790395152028
aa(lp4005
V\u4e09\u5251\u5ba2
p4006
aF0.36352709013554213
aa(lp4007
V\u84dd\u7b79\u80a1
p4008
aF0.49984974893637041
aa(lp4009
V\u51c6
aF2.1726857908854678
aa(lp4010
V\u8fd9\u53e5
p4011
aF0.66404080022018008
aa(lp4012
V\u6123
aF0.4209261043674698
aa(lp4013
V\u771f\u662f
p4014
aF0.14925465413962161
aa(lp4015
V\u8dcc\u4e0d\u8dcc
p4016
aF0.24830694752976773
aa(lp4017
V\u8dcc\u4e0b\u53bb
p4018
aF0.27158572386068347
aa(lp4019
V\u54c8
aF0.42733521160283294
aa(lp4020
V\u91cf\u5316
p4021
aF0.29968079874282316
aa(lp4022
V\u9501\u6b7b
p4023
aF0.48281906464121505
aa(lp4024
V\u4e00\u7ebf
p4025
aF0.72705418027108426
aa(lp4026
V\u987e\u5fcc
p4027
aF0.22870376746162818
aa(lp4028
V\u54c0
aF0.4345371581770936
aa(lp4029
V\u5c31\u7b97
p4030
aF0.57207708097668197
aa(lp4031
V\u901f\u6218\u901f\u51b3
p4032
aF0.45740753492325636
aa(lp4033
V\u7ffb\u7ffb
p4034
aF0.79975959829819265
aa(lp4035
V\u4ea7\u80fd
p4036
aF0.29965942336873813
aa(lp4037
V\u62c5\u5fc3
p4038
aF0.22688125207704943
aa(lp4039
V\u5438\u8089
p4040
aF0.5112201860906983
aa(lp4041
V\u7ec8\u4e8e
p4042
aF0.49646692110030971
aa(lp4043
V\u51fa\u53bb
p4044
aF0.40580271124566558
aa(lp4045
V\u4e71\u62c9
p4046
aF0.23488495036599652
aa(lp4047
V\u53d1\u81ea
p4048
aF0.17271476222214077
aa(lp4049
V\u51fa\u73b0
p4050
aF0.23361643141260663
aa(lp4051
V\u6536\u62fe
p4052
aF0.79006756032198833
aa(lp4053
V\u7ef4\u6301
p4054
aF0.16462565531879972
aa(lp4055
V\u5217\u5165
p4056
aF0.32187751141398963
aa(lp4057
V\u53d6\u4ee3
p4058
aF0.6207673688244193
aa(lp4059
V\u4e5d\u9633
p4060
aF0.44952119811423469
aa(lp4061
V\u5b9e\u73b0
p4062
aF0.57463041843754314
aa(lp4063
V\u53ef\u4ee5
p4064
aF1.1969589119058912
aa(lp4065
V\u8d85\u8dcc\u80a1
p4066
aF0.91305610030274764
aa(lp4067
V\u53ea\u5dee
p4068
aF1.2415347376488386
aa(lp4069
V\u9732\u51fa
p4070
aF0.57938287756945805
aa(lp4071
V\u8bf8\u591a
p4072
aF0.79006756032198833
aa(lp4073
V\u5cf0
aF0.27589660836640861
aa(lp4074
V\u65f6
aF0.25487840296303149
aa(lp4075
V\u6de1\u5b9a
p4076
aF0.89931106859820775
aa(lp4077
V\u73a9\u53bb
p4078
aF0.33323316595758024
aa(lp4079
V\u54e5\u4eec
p4080
aF0.31038368441220965
aa(lp4081
V\u9876\u90e8
p4082
aF0.66404080022018008
aa(lp4083
V\u5982\u610f
p4084
aF0.22215544397172016
aa(lp4085
V\u51c0\u4e70\u989d
p4086
aF0.32795257220912721
aa(lp4087
V\u4e0d\u80fd
p4088
aF0.35403384374923125
aa(lp4089
V\u770b\u7a7a
p4090
aF0.62964777351067003
aa(lp4091
V\u7f6a\u9b41\u7978\u9996
p4092
aF0.24235139342369474
aa(lp4093
V\u82b1\u94b1
p4094
aF0.28061740291164655
aa(lp4095
V\u4e00\u5f20
p4096
aF0.86907431635418719
aa(lp4097
V\u62a5
aF0.34515536321767282
aa(lp4098
V\u4fa7
aF0.88862177588688063
aa(lp4099
V\u56de\u5230
p4100
aF1.6862082536216396
aa(lp4101
V\u53bb\u535a
p4102
aF0.2946014631709109
aa(lp4103
V\u591a\u5c11
p4104
aF0.25458267925275152
aa(lp4105
V\u9ad8\u6280\u672f
p4106
aF0.25561009304534915
aa(lp4107
V\u5c0f\u867e\u7c73
p4108
aF0.26335585344066276
aa(lp4109
V\u4e0d\u80dc
p4110
aF0.39503378016099416
aa(lp4111
V\u5fc5\u7136
p4112
aF0.30921517077169774
aa(lp4113
V\u4e24\u6761\u817f\u8d70
p4114
aF0.15912401317317618
aa(lp4115
V\u4f3c
aF0.26335585344066276
aa(lp4116
V\u63d0\u524d
p4117
aF0.29965942336873813
aa(lp4118
V\u6536\u590d\u5931\u5730
p4119
aF0.280346553662641
aa(lp4120
V\u63d0\u5230
p4121
aF0.36729453454789085
aa(lp4122
V\u6709\u589e\u65e0\u51cf
p4123
aF0.41384491254961286
aa(lp4124
V\u4e0d\u80af
p4125
aF0.17772435517737614
aa(lp4126
V\u8fc7\u9ad8
p4127
aF0.54229506249098292
aa(lp4128
V\u897f\u90e8
p4129
aF1.4608897604843962
aa(lp4130
V\u6211\u6015
p4131
aF0.37785839841486396
aa(lp4132
V\u5f00\u6e90
p4133
aF0.37785839841486396
aa(lp4134
V\u53ef
aF0.39252428236988884
aa(lp4135
V\u80a1\u7968\u540d\u79f0
p4136
aF0.41384491254961286
aa(lp4137
V\u5e72
aF1.0343060856256452
aa(lp4138
V\u505c\u6b62
p4139
aF0.33425935244391813
aa(lp4140
V\u5f88\u4e45\u6ca1
p4141
aF0.25561009304534915
aa(lp4142
V\u534a\u4e2a
p4143
aF0.47208701674051806
aa(lp4144
V\u65e0\u6cd5
p4145
aF0.31464239453717507
aa(lp4146
V\u7ef4\u62a4
p4147
aF0.5013890286658772
aa(lp4148
V\u544a\u8bc9
p4149
aF0.70979534117198062
aa(lp4150
V\u5f88\u591a
p4151
aF0.25476818746483226
aa(lp4152
V\u4e00\u590f\u8f6c
p4153
aF1.448457193923645
aa(lp4154
V\u719f\u6089
p4155
aF0.26979332057946237
aa(lp4156
V\u62fc\u547d
p4157
aF0.88862177588688063
aa(lp4158
V\u53c2\u534a
p4159
aF0.28969143878472903
aa(lp4160
V\u6000\u7591
p4161
aF0.20692245627480643
aa(lp4162
V\u89c1\u5e95
p4163
aF0.21326922621285138
aa(lp4164
V\u64a4\u9000
p4165
aF0.33323316595758024
aa(lp4166
V\u6536\u83b7
p4167
aF1.1018836036436725
aa(lp4168
V\u7acb\u523b
p4169
aF0.20211030612888073
aa(lp4170
V\u77ed\u671f
p4171
aF0.23672617765208362
aa(lp4172
V\u9646\u5bb6\u5634
p4173
aF0.69019371589761469
aa(lp4174
V\u6027\u522b
p4175
aF1.7381486327083744
aa(lp4176
V\u6570\u91cf
p4177
aF0.37778866410640205
aa(lp4178
V\u4e0a\u8c03
p4179
aF0.40775477046049952
aa(lp4180
V\u7092\u5e95
p4181
aF0.72705418027108426
aa(lp4182
V\u5f3a\u4e8e
p4183
aF0.28745765392974232
aa(lp4184
V\u751f\u6d3b
p4185
aF0.51883330880665834
aa(lp4186
V\u5165\u624b
p4187
aF0.37785839841486396
aa(lp4188
V\u4ebf\u6bd4
p4189
aF0.38083790395152028
aa(lp4190
V\u5927\u9633\u7ebf
p4191
aF0.9125940100782608
aa(lp4192
V\u5305\u5b50
p4193
aF0.72422859696182251
aa(lp4194
V\u4e3a\u5b9c
p4195
aF0.24235139342369474
aa(lp4196
V\u79d1\u6280
p4197
aF0.21433754388168788
aa(lp4198
V\u65b0\u80a1
p4199
aF2.2996612314379385
aa(lp4200
V\u529b\u5ea6
p4201
aF0.49200703183339511
aa(lp4202
V\u524d\u671f
p4203
aF0.94103678763640808
aa(lp4204
V\u5c55\u5f00
p4205
aF0.11237613542187663
aa(lp4206
V\u6b21\u8981
p4207
aF0.25561009304534915
aa(lp4208
V\u5143
aF0.20339324607099574
aa(lp4209
V\u5b9e\u529b
p4210
aF0.7494258904985065
aa(lp4211
V\u8be5\u6da8
p4212
aF0.57938287756945805
aa(lp4213
V\u88e4\u8869
p4214
aF0.27158572386068347
aa(lp4215
V\u7ffb\u7eff
p4216
aF1.4608897604843962
aa(lp4217
V\u6ee1\u8db3
p4218
aF0.21399436254323692
aa(lp4219
V\u4e07\u7ef4
p4220
aF0.25798696719296538
aa(lp4221
V\u6bd4
aF0.60798525985263008
aa(lp4222
V\u98de
aF0.67448330144865587
aa(lp4223
V\u6885\u82b1\u9999
p4224
aF0.5235952327499146
aa(lp4225
V\u65e0
aF0.78681169456753008
aa(lp4226
V\u53ef\u6015
p4227
aF0.33425935244391813
aa(lp4228
V\u4e0b\u661f\u671f
p4229
aF0.25561009304534915
aa(lp4230
V\u7740\u6025
p4231
aF0.17726332086601412
aa(lp4232
V\u6869
aF0.67448330144865587
aa(lp4233
V\u54aa\u5495
p4234
aF0.6207673688244193
aa(lp4235
V\u4ee3\u7801
p4236
aF1.2411673027507744
aa(lp4237
V\u8170\u7f20\u4e07\u8d2f
p4238
aF0.86907431635418719
aa(lp4239
V\u7ade\u4ef7
p4240
aF0.43226327385190089
aa(lp4241
V\u4e0d\u6015
p4242
aF0.99969949787274082
aa(lp4243
V\u8e29
aF0.66426126186099388
aa(lp4244
V\u5973
aF1.7381486327083744
aa(lp4245
V\u7f29\u51cf
p4246
aF0.54317144772136694
aa(lp4247
V\u6536\u5c0f\u9633
p4248
aF0.30759984549930486
aa(lp4249
V\u5927\u574e
p4250
aF0.33425935244391813
aa(lp4251
V\u6052\u751f\u6307\u6570
p4252
aF0.41384491254961286
aa(lp4253
V\u8981\u6c42
p4254
aF0.19670292364188252
aa(lp4255
V\u6e05\u51c9
p4256
aF1.448457193923645
aa(lp4257
V\u771f\u5b9e
p4258
aF0.15494144642599514
aa(lp4259
V\u5b89
aF0.280346553662641
aa(lp4260
V\u623f\u95f4
p4261
aF0.66851870488783627
aa(lp4262
V\u4f24\u5fc3
p4263
aF0.4345371581770936
aa(lp4264
V\u7edd\u6740
p4265
aF0.26335585344066276
aa(lp4266
V\u80fd\u5927\u6da8
p4267
aF0.6207673688244193
aa(lp4268
V\u7ea7\u522b
p4269
aF0.19014152391328526
aa(lp4270
V\u6211\u4eec
p4271
aF0.21067410614836643
aa(lp4272
V\u770b\u597d
p4273
aF1.8665669033945185
aa(lp4274
V\u5f04
aF0.34762972654167484
aa(lp4275
V\u770b\u98db\u9f8d
p4276
aF0.36211429848091126
aa(lp4277
V\u552f\u72ec
p4278
aF1.0863428954427339
aa(lp4279
V\u4e0d\u65ad\u524d\u8fdb
p4280
aF0.29968079874282316
aa(lp4281
V\u4e0b\u624b
p4282
aF0.47044682252834863
aa(lp4283
V\u5e45\u5ea6
p4284
aF0.56188067710938316
aa(lp4285
V\u8861\u91cf
p4286
aF0.25561009304534915
aa(lp4287
V\u4e70\u597d
p4288
aF0.31038368441220965
aa(lp4289
V\u7834
aF0.49950142970812716
aa(lp4290
V\u597d\u5403
p4291
aF0.45740753492325636
aa(lp4292
V\u6df1\u7efc\u6307
p4293
aF0.20211030612888073
aa(lp4294
V\u6709\u65e0
p4295
aF0.23488495036599652
aa(lp4296
V\u6218\u9e70
p4297
aF0.45740753492325636
aa(lp4298
V\u6982\u5ff5\u80a1
p4299
aF1.4280079720925394
aa(lp4300
V\u7b49\u7ea7
p4301
aF0.28562842796364024
aa(lp4302
V\u4f4e\u4ef7\u80a1
p4303
aF1.0863428954427339
aa(lp4304
V\u5e94\u58f0
p4305
aF0.5112201860906983
aa(lp4306
V\u4e50
aF2.1726857908854678
aa(lp4307
V\u5927\u54e5
p4308
aF0.27114753124549146
aa(lp4309
V\u5c16\u5e95
p4310
aF0.38934004486532109
aa(lp4311
V\u521a\u56de\u6765
p4312
aF0.48281906464121505
aa(lp4313
V\u6563\u6237
p4314
aF0.64935185862056533
aa(lp4315
V\u6e05\u9192
p4316
aF0.33323316595758024
aa(lp4317
V\u4e8c\u5341\u5206\u949f
p4318
aF0.6207673688244193
aa(lp4319
V\u5403\u4e2a
p4320
aF0.26335585344066276
aa(lp4321
V\u80a1\u8bc4
p4322
aF0.37471294524925325
aa(lp4323
V\u6700\u96be
p4324
aF0.34762972654167484
aa(lp4325
V\u604b\u7231
p4326
aF0.36211429848091126
aa(lp4327
V\u51cf\u4ed3
p4328
aF0.22823978231344258
aa(lp4329
V\u8fd9\u513f
p4330
aF1.0863428954427339
aa(lp4331
V\u6ef4\u6cea
p4332
aF0.49661389505953546
aa(lp4333
V\u770b\u591a
p4334
aF1.1018836036436725
aa(lp4335
V\u5e73\u6de1
p4336
aF0.6207673688244193
aa(lp4337
V\u548b\u529e
p4338
aF1.0863428954427339
aa(lp4339
V\u5192\u98ce\u9669
p4340
aF0.39503378016099416
aa(lp4341
V\u6362\u624b\u7387
p4342
aF0.86907431635418719
aa(lp4343
V\u8fd9\u91cc
p4344
aF0.42248350448872884
aa(lp4345
V\u4e0a\u6f14
p4346
aF1.2174081337369969
aa(lp4347
V\u7518\u5fc3
p4348
aF0.31990383931927707
aa(lp4349
V\u8d70\u9ad8
p4350
aF0.4215520634054099
aa(lp4351
V\u5c0f\u77f3\u5934
p4352
aF0.8418522087349396
aa(lp4353
V\u65b0\u6587\u5316
p4354
aF1.7247459235784541
aa(lp4355
V\u6709\u6548
p4356
aF0.20606961517896213
aa(lp4357
V\u5417
aF0.79315292180292429
aa(lp4358
V\u51fa\u51fb
p4359
aF0.94901635935922024
aa(lp4360
V\u5927\u5173
p4361
aF1.448457193923645
aa(lp4362
V\u5b9e
aF0.45740753492325636
aa(lp4363
V\u51fa\u91cf
p4364
aF0.11905127621290233
aa(lp4365
V\u5f88\u7a33
p4366
aF2.1726857908854678
aa(lp4367
V\u9884\u5224
p4368
aF0.32467592931028266
aa(lp4369
V\u820d\u5f97
p4370
aF0.5331730655321284
aa(lp4371
V\u731c
aF0.44431088794344031
aa(lp4372
V\u8fc7\u5927
p4373
aF0.246392274796922
aa(lp4374
V\u6ee1\u4ed3
p4375
aF2.0976159635811671
aa(lp4376
V\u978b\u5b50
p4377
aF0.2104630521837349
aa(lp4378
V\u504f\u5f31
p4379
aF0.75921308748737626
aa(lp4380
V\u7269\u6d41
p4381
aF0.3160270241287953
aa(lp4382
V\u5bb6\u4f19
p4383
aF0.2104630521837349
aa(lp4384
V\u4e3b
aF0.17381486327083742
aa(lp4385
V\u52a0\u5927
p4386
aF0.16093875570699481
aa(lp4387
V\u534e\u7b49
p4388
aF0.20211030612888073
aa(lp4389
V\u7b49
aF0.26782308923635539
aa(lp4390
V\u81ea\u5df1
p4391
aF0.19630662636749582
aa(lp4392
V\u5f53\u65f6
p4393
aF0.31990383931927707
aa(lp4394
V\u4e2d\u9896
p4395
aF0.89308977556111124
aa(lp4396
V\u91cd\u62fe
p4397
aF0.44431088794344031
aa(lp4398
V\u548c\u987a
p4399
aF0.75921308748737626
aa(lp4400
V\u679c\u7136
p4401
aF0.44269386681345341
aa(lp4402
V\u65e0\u8bba\u662f
p4403
aF0.5112201860906983
aa(lp4404
V\u7acb\u514b
p4405
aF0.29620725862896025
aa(lp4406
V\u98ce\u6e05
p4407
aF0.79975959829819265
aa(lp4408
V\u5dcd\u4ed4
p4409
aF0.56069310732528199
aa(lp4410
V\u5df2
aF0.43857228533784648
aa(lp4411
V\u9ad8\u547c
p4412
aF0.20692245627480643
aa(lp4413
V\u9f13\u638c
p4414
aF1.9163843595316157
aa(lp4415
V\u9700
aF1.1018836036436725
aa(lp4416
V\U0001f62a
aF1.2415347376488386
aa(lp4417
V\u5916\u7525\u5973
p4418
aF0.29968079874282316
aa(lp4419
V\u8d70\u7b54
p4420
aF0.25561009304534915
aa(lp4421
V\u81f3\u5c11
p4422
aF0.29515993573662058
aa(lp4423
V\u7b2c\u4e00\u540d
p4424
aF0.86907431635418719
aa(lp4425
V\u4e91
aF0.22215544397172016
aa(lp4426
V\u5c0f\u767d
p4427
aF0.95971151795783116
aa(lp4428
V\u5360\u4f18\u52bf
p4429
aF0.49984974893637041
aa(lp4430
V\u65e5\u8d77
p4431
aF0.14541083605421684
aa(lp4432
V\u901a
aF0.4562970050391304
aa(lp4433
V\u7b49\u5f85
p4434
aF0.41800058085937158
aa(lp4435
V\u4f2f\u91d1
p4436
aF0.38625525171297204
aa(lp4437
V\u63a8\u8fdb
p4438
aF0.41105472417443195
aa(lp4439
V\u6240\u6709\u4eba
p4440
aF0.4209261043674698
aa(lp4441
V\u6587\u8bf4
p4442
aF0.4345371581770936
aa(lp4443
V\u89c1\u5230
p4444
aF0.11421460082431889
aa(lp4445
V\u53cd\u590d
p4446
aF0.21707025216762452
aa(lp4447
V\u5b89\u6170
p4448
aF0.86907431635418719
aa(lp4449
V\u6d89\u6377
p4450
aF0.79006756032198833
aa(lp4451
V\u5b50\u516c\u53f8
p4452
aF0.55059861342747407
aa(lp4453
V\u94c1\u7c89
p4454
aF0.21699475485322417
aa(lp4455
V\u5185\u90e8\u7ed3\u6784
p4456
aF0.38083790395152028
aa(lp4457
V\u5965\u98de
p4458
aF0.88862177588688063
aa(lp4459
V\u538b\u76d8
p4460
aF0.3300926467336418
aa(lp4461
V\u5927\u558a
p4462
aF1.7381486327083744
aa(lp4463
V\u5148\u4ee5
p4464
aF0.15519184220610482
aa(lp4465
V\u5f98\u5f8a
p4466
aF0.1650463233668209
aa(lp4467
V\u7740
aF0.51072242250857625
aa(lp4468
V\u4e24\u4e2a
p4469
aF0.57382029321396777
aa(lp4470
V\u7ec4\u5408
p4471
aF0.62718033584671062
aa(lp4472
V\u83b1\u5b9d
p4473
aF0.49278454959384399
aa(lp4474
V\u7528\u6237
p4475
aF0.82744486850051613
aa(lp4476
V\u98de\u9f99\u5728\u5929
p4477
aF2.8969143878472901
aa(lp4478
V\u4e45\u8fdd
p4479
aF0.66851870488783627
aa(lp4480
V\u52a8\u52a8
p4481
aF0.37785839841486396
aa(lp4482
V\u4e13\u7528
p4483
aF0.35544871035475228
aa(lp4484
V\u505a
aF0.46640665425703381
aa(lp4485
V\u80d6\u54e5
p4486
aF0.33904110881343774
aa(lp4487
V\u79d1\u6052
p4488
aF0.88654807339341013
aa(lp4489
V\u4ee3\u4ef7
p4490
aF0.32187937642747666
aa(lp4491
V\u4e24\u4e09
p4492
aF0.6207673688244193
aa(lp4493
V\u51c6\u70b9
p4494
aF1.3329326638303209
aa(lp4495
V\u515a\u7ae0
p4496
aF1.448457193923645
aa(lp4497
V\u4e4b\u524d
p4498
aF0.47017591169775974
aa(lp4499
V\u4e0d\u662f\u592a\u597d
p4500
aF0.3285230330625627
aa(lp4501
V\u7a0d\u7a0d
p4502
aF0.33202040011009004
aa(lp4503
V\u900d\u9065
p4504
aF0.31038368441220965
aa(lp4505
V\u9700\u6c42
p4506
aF0.23488495036599652
aa(lp4507
V\u6cea
aF0.61519969099860972
aa(lp4508
V\u59e5\u59e5
p4509
aF0.2172685790885468
aa(lp4510
V\u4ee5
aF0.60798525985263008
aa(lp4511
V\u5168\u65b0
p4512
aF0.99969949787274082
aa(lp4513
V\u98db\u6a5f
p4514
aF0.38913775359142705
aa(lp4515
V\u8dc3
aF0.34081345739379887
aa(lp4516
V\u7b14\u8bb0
p4517
aF0.44431088794344031
aa(lp4518
V\u4e3e\u52a8
p4519
aF0.20292245581892665
aa(lp4520
V\u6ce2\u6bb5
p4521
aF0.277588924435268
aa(lp4522
V\u8361\u8361
p4523
aF0.82768982509922573
aa(lp4524
V\u4e8b\u6570
p4525
aF0.48281906464121505
aa(lp4526
V\u4e2d\u79d1
p4527
aF0.88516315638847143
aa(lp4528
V\u5219
aF0.18781777723915336
aa(lp4529
V\u4ec5
aF0.54471578854675173
aa(lp4530
V\u591f
aF0.94901635935922024
aa(lp4531
V\u5b89\u5168\u611f
p4532
aF0.19271315621643198
aa(lp4533
V\u9996\u6ce2
p4534
aF0.6207673688244193
aa(lp4535
V\u94a2\u94c1
p4536
aF0.56950108899878804
aa(lp4537
V\u84c4\u52bf
p4538
aF0.15679508396167766
aa(lp4539
V\u5bf9\u8c03
p4540
aF0.5112201860906983
aa(lp4541
V\u6307\u5bfc
p4542
aF0.94901635935922024
aa(lp4543
V\u91d1\u989d
p4544
aF1.7381486327083744
aa(lp4545
V\u7f51\u7edc\u80a1
p4546
aF0.42741359820697727
aa(lp4547
V\u51cf\u901f
p4548
aF0.39503378016099416
aa(lp4549
V\u6d3b\u8dc3\u5ea6
p4550
aF0.22474456752655361
aa(lp4551
V\u7edd\u5bf9\u503c
p4552
aF0.37785839841486396
aa(lp4553
V\u542c\u5230
p4554
aF1.2415347376488386
aa(lp4555
V\u5c0f\u76d8
p4556
aF0.30435203343424921
aa(lp4557
V\u89c4\u5f8b
p4558
aF0.24348162674739937
aa(lp4559
V\u5c3e\u58f0
p4560
aF1.0845901249819658
aa(lp4561
V\u4f20\u52a8
p4562
aF1.0863428954427339
aa(lp4563
V\u6653\u5cf0
p4564
aF0.57938287756945805
aa(lp4565
V\u73b0\u8d27
p4566
aF0.63980767863855414
aa(lp4567
V\u652f\u6301
p4568
aF0.34628237347169277
aa(lp4569
V\u66b4\u98ce
p4570
aF0.53250271086233236
aa(lp4571
V\u7b14\u8bef
p4572
aF2.8969143878472901
aa(lp4573
V\u5218\u6b63\u6d9b
p4574
aF0.47044682252834863
aa(lp4575
V\u5e73\u8861
p4576
aF0.30759984549930486
aa(lp4577
V\u770b\u5c0f\u5f6c
p4578
aF0.36211429848091126
aa(lp4579
V\u6709\u6ca1\u6709
p4580
aF1.2585695781487003
aa(lp4581
V\u6da8\u505c
p4582
aF0.47914739044264532
aa(lp4583
V\u5962\u6c42
p4584
aF1.0863428954427339
aa(lp4585
V\u7f57\u65af\u798f
p4586
aF0.18892919920743198
aa(lp4587
V\u6311\u6218
p4588
aF0.22996612314379389
aa(lp4589
V\u6211\u4f1a
p4590
aF1.2174081337369969
aa(lp4591
V\u8fd9\u70b9
p4592
aF0.28391813646879227
aa(lp4593
V\u611f\u8c22
p4594
aF0.47208701674051806
aa(lp4595
V\u4f01\u7a33
p4596
aF0.40838625373868898
aa(lp4597
V\u54b1\u662f
p4598
aF0.24140953232060752
aa(lp4599
V\u52a8
aF0.43118648089461353
aa(lp4600
V\u610f\u56fe
p4601
aF0.5112201860906983
aa(lp4602
V\u8f7b
aF0.73044488024219811
aa(lp4603
V\u884c\u4e1a
p4604
aF0.8070210601775577
aa(lp4605
V\u7edf\u7edf
p4606
aF0.27577917182696299
aa(lp4607
V\u4e00\u5206
p4608
aF0.33425935244391813
aa(lp4609
V\u53e3\u8bc0
p4610
aF0.17381486327083742
aa(lp4611
V\u6743\u5a01
p4612
aF0.19751689008049708
aa(lp4613
V\u4e8f
aF0.57125685592728048
aa(lp4614
V\u7eb3\u514b
p4615
aF0.20692245627480643
aa(lp4616
V\u53d1\u8d22
p4617
aF0.29968079874282316
aa(lp4618
V\u4efb\u6027
p4619
aF1.5995191965963853
aa(lp4620
V\u5206\u7981
p4621
aF0.45740753492325636
aa(lp4622
V\u4e8c\u4e09
p4623
aF0.57125685592728048
aa(lp4624
V\u8f6c\u6362
p4625
aF1.142513711854561
aa(lp4626
V\u6240\u4ee5
p4627
aF0.1651911967110169
aa(lp4628
V\u7a33\u4f4f
p4629
aF0.5331730655321284
aa(lp4630
V\u672a
aF0.51772826272617101
aa(lp4631
V\u8dcc\u8dcc
p4632
aF0.22850274237091217
aa(lp4633
V\u5df4\u58eb
p4634
aF0.18490942901152915
aa(lp4635
V\u62a4\u76d8
p4636
aF0.18801890011812869
aa(lp4637
V\u767d\u773c
p4638
aF0.34762972654167484
aa(lp4639
V\u5e0c\u671b
p4640
aF0.20057416172331097
aa(lp4641
V\u6bcf\u5929\u82b1
p4642
aF0.22283956829594539
aa(lp4643
V\u4e92\u8054
p4644
aF0.4562970050391304
aa(lp4645
V\u6b63\u662f
p4646
aF0.15246917830775211
aa(lp4647
V\u62c6\u4e66
p4648
aF0.91481506984651273
aa(lp4649
V\u6307\u5411
p4650
aF0.28119003240273188
aa(lp4651
V\u7ee9\u4f18
p4652
aF0.39503378016099416
aa(lp4653
V\u6210\u529f\u7387
p4654
aF0.19751689008049708
aa(lp4655
V\u667a\u5ea6
p4656
aF1.0863428954427339
aa(lp4657
V\u800d\u6d41\u6c13
p4658
aF0.39354658098216078
aa(lp4659
V\u5bb3\u6015
p4660
aF0.96563812928243009
aa(lp4661
V\u5e72\u9884
p4662
aF0.32866832806775037
aa(lp4663
V\u4e00\u5251
p4664
aF1.0863428954427339
aa(lp4665
V\u7948\u798f
p4666
aF1.2415347376488386
aa(lp4667
V\u8dcc\u5230
p4668
aF0.41384491254961286
aa(lp4669
V\u5237\u65b0
p4670
aF0.58435590419375849
aa(lp4671
V\u5e26\u52a8
p4672
aF0.45247009971250585
aa(lp4673
V\u81ea\u82e6\u5bd2
p4674
aF0.5235952327499146
aa(lp4675
V\u8bb0\u4f4f
p4676
aF0.22037672072873452
aa(lp4677
V\u629b\u5f03
p4678
aF0.18105714924045563
aa(lp4679
V\u6218\u6597\u673a
p4680
aF0.88862177588688063
aa(lp4681
V\u5f85
aF0.35406526255538862
aa(lp4682
V\u9ad8\u9487\u77ff
p4683
aF0.25428083161007831
aa(lp4684
V\u770b\u770b
p4685
aF1.1575750382488632
aa(lp4686
V\u5fae\u4fe1
p4687
aF0.45740753492325636
aa(lp4688
V\u9a6c
aF0.56188067710938316
aa(lp4689
V\u7f29\u7a84
p4690
aF0.23488495036599652
aa(lp4691
V\u4e2d\u9634
p4692
aF0.34762972654167484
aa(lp4693
V\u516c\u53f8
p4694
aF0.47737203951952856
aa(lp4695
V\u65f6\u5019
p4696
aF0.21769211186107054
aa(lp4697
V\u5e84
aF0.96563812928243009
aa(lp4698
V\u751f\u6015
p4699
aF0.34762972654167484
aa(lp4700
V\u51e0\u652f
p4701
aF0.280346553662641
aa(lp4702
V\u65e5\u5927\u5355
p4703
aF0.66646633191516047
aa(lp4704
V\u54c8\u54c8
p4705
aF0.29716951188518148
aa(lp4706
V\u7f13\u6162
p4707
aF0.31472467782701208
aa(lp4708
V\u539f\u6587
p4709
aF0.27158572386068347
aa(lp4710
V\u76d2\u996d
p4711
aF0.45740753492325636
aa(lp4712
V\u8d25\u5bb6
p4713
aF0.19312762585648602
aa(lp4714
V\u514d\u8d39
p4715
aF0.64375502282797925
aa(lp4716
V\u4e2d\u76d8
p4717
aF0.27158572386068347
aa(lp4718
V\u767d\u5bab
p4719
aF0.42844264194546033
aa(lp4720
V\u8ffd\u8e2a
p4721
aF1.2987037172411307
aa(lp4722
V\u65b9\u6848
p4723
aF0.66851870488783627
aa(lp4724
V\u963f\u59e8
p4725
aF0.29968079874282316
aa(lp4726
V\u4e00\u52a8
p4727
aF0.79006756032198833
aa(lp4728
V\u7948\u7977
p4729
aF0.41384491254961286
aa(lp4730
V\u6536\u4e8e
p4731
aF0.48281906464121505
aa(lp4732
V\u96be\u5ea6\u5f88\u5927
p4733
aF0.34762972654167484
aa(lp4734
V\u51fa\u7fd4
p4735
aF0.4345371581770936
aa(lp4736
V\u9a6c\u7532
p4737
aF0.38625525171297204
aa(lp4738
V\u5236\u5b9a
p4739
aF0.99969949787274082
aa(lp4740
V\u7ad9\u4e0a\u53bb
p4741
aF0.18176354506777107
aa(lp4742
V\u51cf\u7f13
p4743
aF0.2104630521837349
aa(lp4744
V\u738b\u5927\u5f6c
p4745
aF0.22688125207704943
aa(lp4746
V\u542c\u4e0d\u8fdb\u53bb
p4747
aF0.6207673688244193
aa(lp4748
V\u738b\u5927
p4749
aF0.15519184220610482
aa(lp4750
V\u9ec4
aF2.2850274237091219
aa(lp4751
V\u8d5e\u70b9
p4752
aF0.41384491254961286
aa(lp4753
V\u8fd9\u4e00\u6ce2
p4754
aF0.30788283700468572
aa(lp4755
V\u8001\u5e08
p4756
aF0.4562970050391304
aa(lp4757
V\u8be5\u80a1
p4758
aF0.24155732413477918
aa(lp4759
V\u4f60\u4eec
p4760
aF0.49761973911829949
aa(lp4761
V\u5077\u4e50
p4762
aF0.79006756032198833
aa(lp4763
V\u673a\u7ec4\u4eba\u5458
p4764
aF0.48470278684738949
aa(lp4765
V\u7834\u4f4d
p4766
aF1.6862082536216396
aa(lp4767
V\u8fdb\u7a0b
p4768
aF0.21196934545224078
aa(lp4769
V\u52a0\u529b
p4770
aF0.61519969099860972
aa(lp4771
V\u770b\u4e0d\u51fa\u6765
p4772
aF0.22215544397172016
aa(lp4773
V\u7ec6\u5c0f
p4774
aF0.28969143878472903
aa(lp4775
V\u53f6\u6a80
p4776
aF0.48281906464121505
aa(lp4777
V\u5751
aF0.49984974893637041
aa(lp4778
V\u6025\u62c9
p4779
aF0.28745765392974232
aa(lp4780
V\u522b\u6025
p4781
aF1.7381486327083744
aa(lp4782
V\u8054\u4f17
p4783
aF1.3329326638303209
aa(lp4784
V\u63a5\u7740
p4785
aF0.14730073158545545
aa(lp4786
V\u4e34\u8d70
p4787
aF0.39958583551967164
aa(lp4788
V\u5dee
aF0.96354757349807973
aa(lp4789
V\u86fe\u5b50
p4790
aF0.23258044877539857
aa(lp4791
V\u4e00\u4f1a\u513f
p4792
aF0.39503378016099416
aa(lp4793
V\u533a\u57df
p4794
aF0.51048281717336119
aa(lp4795
V\u5965\u5df4\u9a6c
p4796
aF0.42844264194546033
aa(lp4797
V\u5b66\u5927\u9704
p4798
aF0.66851870488783627
aa(lp4799
V\u4e0d\u8d1f
p4800
aF0.26335585344066276
aa(lp4801
V\u4ffa
aF0.45269411224425998
aa(lp4802
V\u5206\u6790
p4803
aF0.73502524442585693
aa(lp4804
V\u5927\u5bb6
p4805
aF0.53923700803069508
aa(lp4806
V\u5927\u8c61
p4807
aF0.34772156447747504
aa(lp4808
V\u7387
aF0.27158572386068347
aa(lp4809
V\u9006
aF0.75921308748737626
aa(lp4810
V\u6ca1\u4e8b\u5e72
p4811
aF0.45740753492325636
aa(lp4812
V\u76f8\u4fe1
p4813
aF0.30038614458900798
aa(lp4814
V\u7ea2\u5c0f\u5175
p4815
aF0.23522341126417431
aa(lp4816
V\u7f51\u7edc\u79d1\u6280
p4817
aF0.32187937642747666
aa(lp4818
V\u5fc3\u810f
p4819
aF0.66851870488783627
aa(lp4820
V\u5f3a\u70c8\u63a8\u8350
p4821
aF0.38083790395152028
aa(lp4822
V\u7a00\u571f
p4823
aF0.8961994224103228
aa(lp4824
V\u5927\u76d8\u8d70\u52bf
p4825
aF2.6658653276606419
aa(lp4826
V\u653e\u8d27
p4827
aF1.7381486327083744
aa(lp4828
V\u4f53\u4f1a
p4829
aF1.0863428954427339
aa(lp4830
V\u884c\u60c5
p4831
aF0.16869636186547252
aa(lp4832
V\u72d0\u72f8\u7cbe
p4833
aF0.48281906464121505
aa(lp4834
V\u63a7
aF0.33425935244391813
aa(lp4835
V\u6740\u81f3
p4836
aF0.41384491254961286
aa(lp4837
V\u7b97\u662f
p4838
aF0.16810238427573923
aa(lp4839
V\u53ca\u65f6
p4840
aF0.99969949787274082
aa(lp4841
V\u63a5\u56de\u53bb
p4842
aF0.33425935244391813
aa(lp4843
V\u5e94\u9a8c
p4844
aF0.54529063520331311
aa(lp4845
V\u80fd\u529b
p4846
aF0.25290375896813466
aa(lp4847
V\u9c9c\u4e3a\u4eba\u77e5
p4848
aF0.79006756032198833
aa(lp4849
V\u62b1\u56e2
p4850
aF0.79006756032198833
aa(lp4851
V\u8e29\u8e0f
p4852
aF0.17040672869689943
aa(lp4853
V\u4ec5\u4e3a
p4854
aF0.37785839841486396
aa(lp4855
V\u672a\u5fc5
p4856
aF0.34762972654167484
aa(lp4857
V\u963f\u9ec4
p4858
aF1.142513711854561
aa(lp4859
V\u62bd
aF0.24532767648118053
aa(lp4860
V\u5bf9\u6297
p4861
aF0.54317144772136694
aa(lp4862
V\u670d\u52a1
p4863
aF0.24980863016616883
aa(lp4864
V\u5927\u65b9\u5411
p4865
aF0.22283956829594539
aa(lp4866
V\u4e00\u534a
p4867
aF0.63267757290614679
aa(lp4868
V\u9634\u5c0f\u9633
p4869
aF1.0863428954427339
aa(lp4870
V\u771f\u9762\u76ee
p4871
aF0.57938287756945805
aa(lp4872
V\u78c1\u6750
p4873
aF0.19362382247327253
aa(lp4874
V\uff0f
aF2.1726857908854678
aa(lp4875
V\u8001\u9f99
p4876
aF0.5554920061345936
aa(lp4877
V\u56fd\u7f51
p4878
aF0.36522244012109906
aa(lp4879
V\u4e5d\u5b89
p4880
aF0.64935185862056533
aa(lp4881
V\u8865\u5b8c
p4882
aF0.54317144772136694
aa(lp4883
V\u67d0\u7968
p4884
aF0.79006756032198833
aa(lp4885
V\u633a
aF0.3372050119575129
aa(lp4886
V\u6760\u6746
p4887
aF0.48470278684738949
aa(lp4888
V\u8fd9\u5e2e
p4889
aF0.5331730655321284
aa(lp4890
V\u663e\u8457
p4891
aF0.39503378016099416
aa(lp4892
V\u96c6\u6210\u7535\u8def
p4893
aF0.30435203343424921
aa(lp4894
V\u56de\u4e8b
p4895
aF1.2415347376488386
aa(lp4896
V\u63a5\u76d8
p4897
aF0.59031987147324116
aa(lp4898
V\u5371\u9669
p4899
aF0.4296734589659989
aa(lp4900
V\u8f6f\u4ef6
p4901
aF0.36609561371785349
aa(lp4902
V\u7f51\u53cb
p4903
aF0.21691802499639318
aa(lp4904
V\u54c8\u54c8\u54c8
p4905
aF0.36458556835062478
aa(lp4906
V\u542b\u6743
p4907
aF0.34762972654167484
aa(lp4908
V\u8001\u6ed1\u5934
p4909
aF0.2076540273247571
aa(lp4910
V\u72b9\u8c6b
p4911
aF0.5331730655321284
aa(lp4912
V\u9a82
aF0.58401006729798177
aa(lp4913
V\u59d4\u6258
p4914
aF0.76655374381264629
aa(lp4915
V\u5440
aF1.2411673027507744
aa(lp4916
V\u8f83\u5927
p4917
aF0.30349509955395332
aa(lp4918
V\u90ed\u5609
p4919
aF0.19751689008049708
aa(lp4920
V\u771f\u7231\u7c89
p4921
aF0.45740753492325636
aa(lp4922
V\u8d70\u52bf
p4923
aF0.2176496771321394
aa(lp4924
V\u770b\u56f0
p4925
aF1.0863428954427339
aa(lp4926
V\u81ea\u52a8
p4927
aF0.99969949787274082
aa(lp4928
V\u5927\u9633\u624d\u884c
p4929
aF0.6207673688244193
aa(lp4930
V\u9896
aF0.18980327187184406
aa(lp4931
V\u5b8f\u5174
p4932
aF0.79006756032198833
aa(lp4933
V\u771f
aF0.65757271570023224
aa(lp4934
V\u901a\u6653
p4935
aF0.54317144772136694
aa(lp4936
V\u8db3\u8ff9
p4937
aF0.32187937642747666
aa(lp4938
V\u574f\u4e8b
p4939
aF0.4345371581770936
aa(lp4940
V\u50f5\u5c38
p4941
aF0.72705418027108426
aa(lp4942
V\u4e09\u677f
p4943
aF0.5112201860906983
aa(lp4944
V\u6cbe\u6cbe\u81ea\u559c
p4945
aF0.25561009304534915
aa(lp4946
V\u518d\u5c31\u662f
p4947
aF0.17040672869689943
aa(lp4948
V\u4e0b\u8dcc
p4949
aF0.21010533969048659
aa(lp4950
V\u534e\u6620
p4951
aF1.7381486327083744
aa(lp4952
V\u96be\u770b
p4953
aF0.280346553662641
aa(lp4954
V\u4f11\u606f
p4955
aF0.69920532119372236
aa(lp4956
V\u591f\u7528
p4957
aF0.37785839841486396
aa(lp4958
V\u5b89\u4fe1
p4959
aF0.99969949787274082
aa(lp4960
V\u770b\u8001\u9f99
p4961
aF0.36211429848091126
aa(lp4962
V\u4eba
aF0.17678456158922198
aa(lp4963
V\u79c0
aF0.47044682252834863
aa(lp4964
V\u9ad8\u7b49
p4965
aF0.57938287756945805
aa(lp4966
V\u767b\u9876
p4967
aF0.57938287756945805
aa(lp4968
V\u5347
aF0.35406526255538862
aa(lp4969
V\u4ec5\u4ec5
p4970
aF0.5112201860906983
aa(lp4971
V\u6b63\u7ecf\u4eba
p4972
aF1.2415347376488386
aa(lp4973
V\u4e24\u80a1
p4974
aF0.79006756032198833
aa(lp4975
V\u8870\u843d
p4976
aF0.2849423988046515
aa(lp4977
V\u968f\u4fbf\u8bf4\u8bf4
p4978
aF0.39503378016099416
aa(lp4979
V\u5b57
aF0.44509572221379462
aa(lp4980
V\u5feb\u56de
p4981
aF0.5112201860906983
aa(lp4982
V\u8ba1\u7b97\u673a
p4983
aF0.35472421075681104
aa(lp4984
V\u5c3e\u76d8
p4985
aF1.0835085842130701
aa(lp4986
V\u8001\u5f20
p4987
aF0.84698068515725899
aa(lp4988
V\u76f4\u5954
p4989
aF0.19751689008049708
aa(lp4990
V\u4e00\u53ea
p4991
aF0.24022720808158174
aa(lp4992
V\u8981\u6765
p4993
aF0.5331730655321284
aa(lp4994
V\u4e92
aF0.13167792672033138
aa(lp4995
V\u66f4\u662f
p4996
aF0.28744789660269721
aa(lp4997
V\u5fc3\u9178
p4998
aF1.2415347376488386
aa(lp4999
V\u6709\u76ee\u5171\u7779
p5000
aF0.48281906464121505
aa(lp5001
V\u5c0f\u9634\u5c0f\u9633
p5002
aF0.26740748195513453
aa(lp5003
V\u771f\u6b63
p5004
aF0.4058225702537539
aa(lp5005
V\u677f
aF0.68989836943138172
aa(lp5006
V\u4e13\u9879
p5007
aF0.22850274237091217
aa(lp5008
V\u7406\u5e94
p5009
aF0.96563812928243009
aa(lp5010
V\u5b9e\u5728\u8bdd
p5011
aF0.86907431635418719
aa(lp5012
V\u5c0f\u5b66
p5013
aF0.280346553662641
aa(lp5014
V\u81ea\u7136
p5015
aF0.17502268017372385
aa(lp5016
V\u91cd\u6e29
p5017
aF0.14984039937141158
aa(lp5018
V\u5982\u4e0b
p5019
aF0.16468151746762258
aa(lp5020
V\u53ef\u601c
p5021
aF2.8470490780776609
aa(lp5022
V\u53d7\u5236\u4e8e
p5023
aF0.52174634303014145
aa(lp5024
V\u632f\u8361
p5025
aF0.14984039937141158
aa(lp5026
V\u652f\u4ed8
p5027
aF0.41320635136637723
aa(lp5028
V\u529b
aF0.41372243425025806
aa(lp5029
V\u7535\u673a
p5030
aF0.86907431635418719
aa(lp5031
V\u6682\u4f18
p5032
aF1.2415347376488386
aa(lp5033
V\u62a2\u7b79
p5034
aF0.2172685790885468
aa(lp5035
V\u949f
aF0.6207673688244193
aa(lp5036
V\u5fae\u6da8
p5037
aF0.44567913659189079
aa(lp5038
V\u683c\u6797
p5039
aF0.45524264933093006
aa(lp5040
V\u4e0d\u8fc7
p5041
aF0.42593181730531571
aa(lp5042
V\u9f50\u53d1
p5043
aF0.45740753492325636
aa(lp5044
V\u5f88\u96be
p5045
aF0.29913464812198309
aa(lp5046
V\u8bf8\u845b
p5047
aF0.19445004770182459
aa(lp5048
V\u6628
aF0.14730073158545545
aa(lp5049
V\u60f3\u5230
p5050
aF0.27158572386068347
aa(lp5051
V\u53ef\u4e0d\u662f
p5052
aF0.15801351206439765
aa(lp5053
V\u5230
aF0.98214230718602891
aa(lp5054
V\u55b5
aF0.96563812928243009
aa(lp5055
V\u8fc5\u6e38
p5056
aF0.19751689008049708
aa(lp5057
V\u7ed3\u5b8c
p5058
aF0.45740753492325636
aa(lp5059
V\u8fb9
aF0.27053514083044372
aa(lp5060
V\u56de\u5347
p5061
aF0.33120252056544741
aa(lp5062
V\u6216\u80fd
p5063
aF0.57938287756945805
aa(lp5064
V\u624b\u5230\u64d2\u6765
p5065
aF0.6207673688244193
aa(lp5066
V\u65e5\u6025
p5067
aF0.26335585344066276
aa(lp5068
V\u5e94\u6709
p5069
aF0.27158572386068347
aa(lp5070
V\u6700\u4f4e
p5071
aF0.19383637570763143
aa(lp5072
V\u884c
aF0.36310440496388507
aa(lp5073
V\u4f4e
aF0.19542383352405968
aa(lp5074
V\u4e00\u9053
p5075
aF0.21196934545224078
aa(lp5076
V\u4e00\u5927\u6b65
p5077
aF0.21196934545224078
aa(lp5078
V\u4e0b\u5468\u4e00
p5079
aF0.30435203343424921
aa(lp5080
V\u65f6\u523b
p5081
aF0.25974074344822612
aa(lp5082
V\u65b0\u4f4e
p5083
aF0.26900702005918592
aa(lp5084
V\u65b0\u4e00\u8f6e
p5085
aF0.66646633191516047
aa(lp5086
V\u54df
aF1.448457193923645
aa(lp5087
V\u6280\u5de7
p5088
aF0.79006756032198833
aa(lp5089
V\u522b\u62a5
p5090
aF0.18892919920743198
aa(lp5091
V\u4e3b\u529b
p5092
aF0.15388273317385678
aa(lp5093
V\u59cb\u7ec8
p5094
aF0.27053514083044372
aa(lp5095
V\u521a\u56de
p5096
aF0.41384491254961286
aa(lp5097
V\u66f4\u65b0
p5098
aF1.0343060856256452
aa(lp5099
V\u65b0\u6f6e
p5100
aF1.142513711854561
aa(lp5101
V\u5f00\u677f
p5102
aF0.20575912119498538
aa(lp5103
V\u6210\u5206\u80a1
p5104
aF0.11905127621290233
aa(lp5105
V\u5e03
aF0.19041895197576014
aa(lp5106
V\u82cf\u4e16\u5c71
p5107
aF0.22283956829594539
aa(lp5108
V\u591a\u4e48
p5109
aF0.34509685794880735
aa(lp5110
V\u6307\u56de
p5111
aF0.280346553662641
aa(lp5112
V\u5c3a\u5ea6
p5113
aF0.22870376746162818
aa(lp5114
V\u80fd\u62c9\u8d77
p5115
aF0.21089252430204894
aa(lp5116
V\u963f\u9ec4\u5f85
p5117
aF1.0863428954427339
aa(lp5118
V\u6613
aF1.3329326638303209
aa(lp5119
V\u7532\u9187
p5120
aF0.41384491254961286
aa(lp5121
V\u6ca1\u8865
p5122
aF0.86907431635418719
aa(lp5123
V\u6728\u51e1
p5124
aF0.33425935244391813
aa(lp5125
V\u52a0\u957f
p5126
aF0.20692245627480643
aa(lp5127
V\u72ec\u884c\u8005
p5128
aF0.12423342545803107
aa(lp5129
V\u6b21
aF0.49278454959384399
aa(lp5130
V\u89c2\u5bdf
p5131
aF0.56075631801886328
aa(lp5132
V\u8d25
aF0.18892919920743198
aa(lp5133
V\u9ad8\u6b4c
p5134
aF0.39503378016099416
aa(lp5135
V\u6027
aF0.52440399089529177
aa(lp5136
V\u4eba\u5de5\u667a\u80fd
p5137
aF0.27577917182696299
aa(lp5138
V\u4e0d\u4f4f
p5139
aF0.17386078223873752
aa(lp5140
V\u4e0d\u4f4e
p5141
aF0.36352709013554213
aa(lp5142
V\u5fae
aF0.3372050119575129
aa(lp5143
V\u9633
aF0.23725408983980506
aa(lp5144
V\u51b2
aF0.68064375623114826
aa(lp5145
V\u7535
aF1.142513711854561
aa(lp5146
V\u4e00\u70b9
p5147
aF0.36751262221292846
aa(lp5148
V\u6f2b\u957f
p5149
aF0.57125685592728048
aa(lp5150
V\u91d1\u56fa
p5151
aF0.24140953232060752
aa(lp5152
V\u6216\u8005
p5153
aF0.30373391413268697
aa(lp5154
V\u5047
aF0.34509685794880735
aa(lp5155
V\u8865\u8dcc
p5156
aF0.26087317151507072
aa(lp5157
V\u8fce
aF0.18517392377740882
aa(lp5158
V\u6700\u8fd1
p5159
aF0.38275276095476196
aa(lp5160
V\u533a\u95f4
p5161
aF0.4104502988839594
aa(lp5162
V\u725b
aF1.399925177545889
aa(lp5163
V\u80cc\u79bb
p5164
aF0.29902534737376846
aa(lp5165
V\u53e3\u4e0a
p5166
aF0.29968079874282316
aa(lp5167
V\u65af\u592a\u5c14
p5168
aF1.2415347376488386
aa(lp5169
V\u7fa4\u91cc
p5170
aF0.46012914393174315
aa(lp5171
V\u4e2d\u94a2
p5172
aF0.5090637009257778
aa(lp5173
V\u8fc7\u957f
p5174
aF0.29968079874282316
aa(lp5175
V\u524d\u884c
p5176
aF0.56069310732528199
aa(lp5177
V\u996d
aF1.0863428954427339
aa(lp5178
V\u963b\u529b\u4f4d
p5179
aF0.52158234671621262
aa(lp5180
V\u53ef\u80fd
p5181
aF0.16263547586499272
aa(lp5182
V\u94b1
aF1.5129214584816533
aa(lp5183
V\u91cd\u4ed3
p5184
aF0.21326779425361406
aa(lp5185
V\u8ffd\u6c42
p5186
aF0.12593877245555141
aa(lp5187
V\u6309\u5175\u4e0d\u52a8
p5188
aF0.48281906464121505
aa(lp5189
V\u5fab
aF1.2415347376488386
aa(lp5190
V\u4e0d\u4f1a
p5191
aF0.3174149978518489
aa(lp5192
V\u91d1\u901a
p5193
aF0.26979332057946237
aa(lp5194
V\u4e0a\u804a
p5195
aF2.1726857908854678
aa(lp5196
V\u5206
aF1.1292441451636896
aa(lp5197
V\u5356\u6389
p5198
aF0.57125685592728048
aa(lp5199
V\u5e26\u51fa
p5200
aF0.16712967622195907
aa(lp5201
V\u4e0b\u8f68
p5202
aF0.24830694752976773
aa(lp5203
V\u6e29\u6c34
p5204
aF0.86907431635418719
aa(lp5205
V\u751f\u6b7b\u672a\u535c
p5206
aF0.13527419008458463
aa(lp5207
V\u626f
aF0.69019371589761469
aa(lp5208
V\u6495
aF0.24830694752976773
aa(lp5209
V\u4e24\u6279
p5210
aF0.18892919920743198
aa(lp5211
V\u56de\u5c01
p5212
aF0.31038368441220965
aa(lp5213
V\u7eff\u8425
p5214
aF2.8969143878472901
aa(lp5215
V\u5fae\u535a\u7968
p5216
aF0.36211429848091126
aa(lp5217
V\u8ffd\u6da8
p5218
aF0.2545318504628889
aa(lp5219
V\u9886\u5934
p5220
aF0.22283956829594539
aa(lp5221
V\u800c\u8a00
p5222
aF0.19837744160254583
aa(lp5223
V\u529b\u514b
p5224
aF0.63980767863855414
aa(lp5225
V\u5f3a\u8005
p5226
aF1.0434926860602829
aa(lp5227
V\u8fd8\u52a0
p5228
aF0.34762972654167484
aa(lp5229
V\u4fe1\u606f\u5b89\u5168
p5230
aF0.23725408983980506
aa(lp5231
V\u51fa\u5c40
p5232
aF0.23306844039790744
aa(lp5233
V\u5e2e
aF0.78681169456753008
aa(lp5234
V\u91cd\u6f14
p5235
aF0.41654736771222184
aa(lp5236
V\u76f4\u64ad\u5ba4
p5237
aF0.26900702005918592
aa(lp5238
V\u94a2\u94c1\u884c\u4e1a
p5239
aF1.0863428954427339
aa(lp5240
V\u5fc3
aF0.37785839841486396
aa(lp5241
V\u795e\u8bdd
p5242
aF0.41384491254961286
aa(lp5243
V\u4e00\u53e3
p5244
aF0.99969949787274082
aa(lp5245
V\u4e3a\u5565
p5246
aF0.75921308748737626
aa(lp5247
V\u97f3\u4e50
p5248
aF0.59241451725792049
aa(lp5249
V\u6bb5\u65f6\u95f4
p5250
aF0.6207673688244193
aa(lp5251
V\u5a07\u5a07
p5252
aF0.5331730655321284
aa(lp5253
V\u5982\u4f55
p5254
aF1.4795386103255226
aa(lp5255
V\u53d8\u76d8
p5256
aF0.63980767863855414
aa(lp5257
V\u817e\u8baf
p5258
aF0.84357009720819576
aa(lp5259
V\u7ed9
aF0.14689401257581233
aa(lp5260
V\u53eb\u505a
p5261
aF1.3803874317952294
aa(lp5262
V\u597d\u4e86\u5417
p5263
aF0.28969143878472903
aa(lp5264
V\u9ad8\u79d1
p5265
aF0.49278454959384399
aa(lp5266
V\u597d\u7968
p5267
aF0.96563812928243009
aa(lp5268
V\u7531\u5f31
p5269
aF0.24140953232060752
aa(lp5270
V\u4e0d\u4e86
p5271
aF0.24486302303192722
aa(lp5272
V\u5206\u65f6
p5273
aF0.65083664660951723
aa(lp5274
V\u6768
aF0.32306939893079839
aa(lp5275
V\u9898\u6750\u80a1
p5276
aF0.211258722532151
aa(lp5277
V\u4e00\u5173
p5278
aF0.45740753492325636
aa(lp5279
V\u77f3
aF1.142513711854561
aa(lp5280
V\u65e9\u4e0a
p5281
aF0.20096181772085173
aa(lp5282
V\u5927\u79c0
p5283
aF0.4345371581770936
aa(lp5284
V\u5206\u578b
p5285
aF0.36211429848091126
aa(lp5286
V\u80fd
aF0.33480334322780175
aa(lp5287
V\u57ce\u5e02
p5288
aF0.49661389505953546
aa(lp5289
V\u4e24\u6210
p5290
aF0.69019371589761469
aa(lp5291
V\u5c06
aF0.26918975315585003
aa(lp5292
V\u6218\u53cb
p5293
aF0.28969143878472903
aa(lp5294
V\u9694\u5cb8\u89c2\u706b
p5295
aF0.34762972654167484
aa(lp5296
V\u4e8c\u6b21
p5297
aF0.39454362942013937
aa(lp5298
V\u8bb3\u83ab\u5982\u6df1
p5299
aF0.15519184220610482
aa(lp5300
V\u4e0b\u5f71\u7ebf
p5301
aF0.42178504860409788
aa(lp5302
V\u963f\u5c71
p5303
aF1.142513711854561
aa(lp5304
V\u5934\u8111
p5305
aF0.19751689008049708
aa(lp5306
V\u6211
aF0.32523802559044879
aa(lp5307
V\u84dd\u6d77
p5308
aF0.18889433205320103
aa(lp5309
V\u8d81\u706b\u6253\u52ab
p5310
aF0.34762972654167484
aa(lp5311
V\u5e94\u7528
p5312
aF0.30788283700468572
aa(lp5313
V\u5de6\u4fa7
p5314
aF0.39987979914909633
aa(lp5315
V\u8fc7\u540e
p5316
aF0.27053514083044372
aa(lp5317
V\u731b
aF0.22826402507568691
aa(lp5318
V\u5df2\u7ecf
p5319
aF0.28808436383674441
aa(lp5320
V\u673a\u68b0
p5321
aF0.33425935244391813
aa(lp5322
V\u4e00\u6a21\u4e00\u6837
p5323
aF0.24830694752976773
aa(lp5324
V\u7565\u504f
p5325
aF0.41384491254961286
aa(lp5326
V\u6211\u7231\u4f60
p5327
aF0.32187937642747666
aa(lp5328
V\u4e09\u90e8\u66f2
p5329
aF0.2104630521837349
aa(lp5330
V\u63a8\u8350
p5331
aF0.1579833148320148
aa(lp5332
V\u731c\u51fa
p5333
aF0.34762972654167484
aa(lp5334
V\u9752\u86d9
p5335
aF0.86907431635418719
aa(lp5336
V\u7d2f
aF0.24235139342369474
aa(lp5337
V\u90fd\u8fd8\u6ca1
p5338
aF0.4345371581770936
aa(lp5339
V\u7231
aF0.54107028166088744
aa(lp5340
V\u73b0
aF0.86907431635418719
aa(lp5341
V\u4e0d\u4e56
p5342
aF0.13167792672033138
aa(lp5343
V\u52a8\u52a8\u624b
p5344
aF0.48281906464121505
aa(lp5345
V\u51cf\u5c11
p5346
aF1.5736233891350602
aa(lp5347
V\u65ed\u5347
p5348
aF0.12103480165462835
aa(lp5349
V\u7559\u610f
p5350
aF1.4643824548714139
aa(lp5351
V\u8f7b\u677e
p5352
aF0.26445206487448142
aa(lp5353
V\u4ece
aF0.13433597477078849
aa(lp5354
V\u865a\u62df\u73b0\u5b9e
p5355
aF0.48394975759594533
aa(lp5356
V\u5c3d\u7ba1
p5357
aF0.43118648089461353
aa(lp5358
V\u5957
aF0.53069105340875511
aa(lp5359
V\u8282\u80fd
p5360
aF0.29968079874282316
aa(lp5361
V\u6765\u4e34
p5362
aF0.41038545269587906
aa(lp5363
V\u56de
aF1.1897293827043864
aa(lp5364
V\u5996\u80a1
p5365
aF1.0171233264403132
aa(lp5366
V\u5dee\u4e00\u70b9
p5367
aF2.6658653276606419
aa(lp5368
V\u70b9\u540e
p5369
aF1.2653551458122936
aa(lp5370
V\u8d22\u7ecf\u7f51
p5371
aF0.15681560750944953
aa(lp5372
V\u5a31\u4e50\u6027
p5373
aF0.66851870488783627
aa(lp5374
V\u6982\u5ff5
p5375
aF0.22653694557900581
aa(lp5376
V\u4e1d\u6beb
p5377
aF0.22850274237091217
aa(lp5378
V\u5b9a\u8bba
p5379
aF0.28562842796364024
aa(lp5380
V\u4e00\u51fa
p5381
aF0.84357009720819576
aa(lp5382
V\u5c71\u5be8
p5383
aF0.75571679682972792
aa(lp5384
V\u71c3\u8d77
p5385
aF0.12240483328932213
aa(lp5386
V\u66fe
aF0.4209261043674698
aa(lp5387
V\u6d3b\u751f\u751f
p5388
aF0.26335585344066276
aa(lp5389
V\u6210\u4e3a
p5390
aF0.17524666533936742
aa(lp5391
V\u5feb\u8baf
p5392
aF0.15681560750944953
aa(lp5393
V\u6084\u6084
p5394
aF0.42178504860409788
aa(lp5395
V\u7a0d\u65e9
p5396
aF0.25942516906095137
aa(lp5397
V\u5929\u9634
p5398
aF0.96563812928243009
aa(lp5399
V\u672a\u7aef
p5400
aF0.24830694752976773
aa(lp5401
V\u4e8b\u4ef6
p5402
aF0.59010877092564762
aa(lp5403
V\u4e0d\u8981
p5404
aF0.31582889883625392
aa(lp5405
V\u770b\u7a7a\u8005
p5406
aF0.23488495036599652
aa(lp5407
V\u4e0d\u4fe1
p5408
aF0.57938287756945805
aa(lp5409
V\u96c5\u5316
p5410
aF1.0863428954427339
aa(lp5411
V\u65f6\u673a
p5412
aF0.48177378674903987
aa(lp5413
V\u674e\u5927\u9704
p5414
aF0.2499248744681852
aa(lp5415
V\u5927\u5e95
p5416
aF0.28745765392974232
aa(lp5417
V\u9ad8\u5ea6
p5418
aF0.82641270273275447
aa(lp5419
V\u77db\u76fe
p5420
aF0.39340584728376504
aa(lp5421
V\u4e0b\u884c
p5422
aF0.37291803753047659
aa(lp5423
V\u7b2c\u4e8c\u4e2a
p5424
aF0.28745765392974232
aa(lp5425
V\u4e94\u5206\u949f
p5426
aF0.22129078909711786
aa(lp5427
V\u62c9\u4e2a
p5428
aF1.7381486327083744
aa(lp5429
V\u673a\u4f1a
p5430
aF0.12080269521930954
aa(lp5431
V\u5357\u534e
p5432
aF0.39503378016099416
aa(lp5433
V\u672c\u4eba
p5434
aF0.24830694752976773
aa(lp5435
V\u4e0b\u5b9a\u51b3\u5fc3
p5436
aF0.18892919920743198
aa(lp5437
V\u4e2d\u5206
p5438
aF0.41384491254961286
aa(lp5439
V\u540e\u7eed
p5440
aF0.22850274237091217
aa(lp5441
V\u8c28\u9632
p5442
aF1.8980327187184405
aa(lp5443
V\u534a
aF0.5331730655321284
aa(lp5444
V\u4eba\u53e3
p5445
aF0.40422061225776146
aa(lp5446
V\u96be\u8a00
p5447
aF0.23522341126417431
aa(lp5448
V\u503c
aF0.38625301369678749
aa(lp5449
V\u8212\u670d
p5450
aF0.79975959829819265
aa(lp5451
V\u8363\u535a\u4e3a
p5452
aF0.23488495036599652
aa(lp5453
V\u9633\u7ebf
p5454
aF0.31034286327828786
aa(lp5455
V\u6c1b\u56f4
p5456
aF0.45740753492325636
aa(lp5457
V\u9760\u524d
p5458
aF0.27158572386068347
aa(lp5459
V\u8c0b\u5212
p5460
aF0.4209261043674698
aa(lp5461
V\u5b8c\u6bd5
p5462
aF0.40580271124566558
aa(lp5463
V\u5047\u8c61
p5464
aF0.37785839841486396
aa(lp5465
V\u6df1\u6e2f
p5466
aF0.44948913505310722
aa(lp5467
V\u64cd\u4f5c
p5468
aF0.47983911245278182
aa(lp5469
V\u7ad9\u7a33
p5470
aF0.21903888038414926
aa(lp5471
V\u843d\u540e
p5472
aF0.3065833188402981
aa(lp5473
V\u8f6c\u673a
p5474
aF0.57938287756945805
aa(lp5475
V\u4f73\u521b
p5476
aF0.25561009304534915
aa(lp5477
V\u7eaa\u5ff5
p5478
aF0.22870376746162818
aa(lp5479
V\u4e24\u65e5
p5480
aF0.37960654374368813
aa(lp5481
V\u5fc3\u7406
p5482
aF0.37577400414987211
aa(lp5483
V\u53d6\u6696
p5484
aF0.79006756032198833
aa(lp5485
V\u7f13\u89e3
p5486
aF0.28969143878472903
aa(lp5487
V\u5b9a
aF0.2172685790885468
aa(lp5488
V\u7ee7\u7eed
p5489
aF0.30438426411382585
aa(lp5490
V\u975e\u5e38
p5491
aF0.27928786207845696
aa(lp5492
V\u4e2a\u8d5e
p5493
aF1.3329326638303209
aa(lp5494
V\u56fd\u52a1\u9662
p5495
aF0.31935337309208128
aa(lp5496
V\u9e3f\u535a
p5497
aF0.99969949787274082
aa(lp5498
V\u4e0a\u653b
p5499
aF0.22998025138607464
aa(lp5500
V\u5927\u9762\u79ef
p5501
aF0.69019371589761469
aa(lp5502
V\u540e\u5e02
p5503
aF0.18188595307010672
aa(lp5504
V\u8c37\u6b4c
p5505
aF0.94901635935922024
aa(lp5506
V\u8001\u9a6c
p5507
aF0.12423342545803107
aa(lp5508
V\u5e95\u4ed3
p5509
aF0.56188067710938316
aa(lp5510
V\u60b2\u4f24
p5511
aF1.0863428954427339
aa(lp5512
V\u8d28\u91cf
p5513
aF0.52174634303014145
aa(lp5514
V\u5468\u7ebf
p5515
aF0.35966041983583619
aa(lp5516
V\u53ca
aF0.22845902333216589
aa(lp5517
V\u5c45\u524d
p5518
aF0.25926673026909941
aa(lp5519
V\u503c\u5f97
p5520
aF0.47788690536879325
aa(lp5521
V\u5149
aF0.26335585344066276
aa(lp5522
V\u4e09\u6210
p5523
aF2.4348162674739937
aa(lp5524
V\u62d4\u5730\u800c\u8d77
p5525
aF0.79006756032198833
aa(lp5526
V\u4f4d
aF0.76572422576004184
aa(lp5527
V\u4e1c\u5174
p5528
aF0.18076502083032767
aa(lp5529
V\u5bb6\u6570
p5530
aF0.5112201860906983
aa(lp5531
V\u65e0\u6570
p5532
aF0.45740753492325636
aa(lp5533
V\u5fc3\u52a8
p5534
aF0.45740753492325636
aa(lp5535
V\u5929\u76ee
p5536
aF2.1726857908854678
aa(lp5537
V\u5171\u8fdb\u5348\u9910
p5538
aF0.28562842796364024
aa(lp5539
V\u6863
aF0.79975959829819265
aa(lp5540
V\u5927\u8dcc
p5541
aF0.70527277091729557
aa(lp5542
V\u677f\u5757
p5543
aF0.18377374774670246
aa(lp5544
V\u5206\u6279
p5545
aF0.41384491254961286
aa(lp5546
V\u65e5\u7ebf
p5547
aF0.38030073154139832
aa(lp5548
V\u6307\u70b9
p5549
aF0.48281906464121505
aa(lp5550
V\u6216\u662f
p5551
aF0.1615346994653992
aa(lp5552
V\u4fdd\u62a4
p5553
aF0.28562842796364024
aa(lp5554
V\u505a\u5f97\u597d
p5555
aF0.37785839841486396
aa(lp5556
V\u91d1\u53c9
p5557
aF0.20232300717450774
aa(lp5558
V\u65f6\u671f
p5559
aF0.86460497113318124
aa(lp5560
V\u628a\u63e1
p5561
aF0.16207005890175924
aa(lp5562
V\u5c81
aF1.7381486327083744
aa(lp5563
V\u53f7\u53ec\u529b
p5564
aF0.48281906464121505
aa(lp5565
V\u597d\u5f31
p5566
aF2.1726857908854678
aa(lp5567
V\u4f9d\u7136
p5568
aF0.29271312364433755
aa(lp5569
V\u8bde\u751f
p5570
aF0.42178504860409788
aa(lp5571
V\u822a\u8fd0
p5572
aF0.14281421398182012
aa(lp5573
V\u77e5\u79cb\u54e5
p5574
aF0.43230248556659062
aa(lp5575
V\u4e2d\u5348
p5576
aF0.69920532119372236
aa(lp5577
V\u4f5c\u6218
p5578
aF0.2104630521837349
aa(lp5579
V\u89e3\u8bfb
p5580
aF2.2482776714955195
aa(lp5581
V\u5f97
aF0.3905019879657104
aa(lp5582
V\u671f\u5f85
p5583
aF0.31950162651739938
aa(lp5584
V\u83ab\u975e
p5585
aF0.20211030612888073
aa(lp5586
V\u53cd\u5305
p5587
aF0.20292245581892665
aa(lp5588
V\u52c9\u5f3a
p5589
aF0.21386284154573978
aa(lp5590
V\u6536\u655b
p5591
aF0.96563812928243009
aa(lp5592
V\u673a\u4e0a
p5593
aF0.48470278684738949
aa(lp5594
V\u4eae\u70b9
p5595
aF0.6207673688244193
aa(lp5596
V\u91d1\u521a
p5597
aF0.14451643369607695
aa(lp5598
V\u54b1
aF0.25561009304534915
aa(lp5599
V\u9632
aF0.38083790395152028
aa(lp5600
V\u9500\u6237
p5601
aF0.54317144772136694
aa(lp5602
V\u63a5\u529b
p5603
aF1.4608897604843962
aa(lp5604
V\u4eba\u529b
p5605
aF0.58650721865100508
aa(lp5606
V\u5f00\u62c9\u7ea2
p5607
aF0.4345371581770936
aa(lp5608
V\u26bd
aF0.36153004166065533
aa(lp5609
V\u8d5a\u94b1
p5610
aF0.38804618753717068
aa(lp5611
V\u76f8\u6bd4
p5612
aF0.44258157819423571
aa(lp5613
V\u65e5\u672c
p5614
aF0.37785839841486396
aa(lp5615
V\u5e42
aF0.48281906464121505
aa(lp5616
V\u62c9\u4f5c
p5617
aF0.27158572386068347
aa(lp5618
V\u62d0\u5934
p5619
aF0.57491530785948464
aa(lp5620
V\u52b2\u80dc
p5621
aF0.280346553662641
aa(lp5622
V\u7126\u70b9
p5623
aF0.94901635935922024
aa(lp5624
V\u51fb\u7834
p5625
aF0.47044682252834863
aa(lp5626
V\u4ecd
aF0.3584031579104982
aa(lp5627
V\u5bfb\u627e
p5628
aF0.16232108449826627
aa(lp5629
V\u83b7\u5229
p5630
aF0.22478776239739762
aa(lp5631
V\u6709\u4e8b
p5632
aF2.1726857908854678
aa(lp5633
V\u4fdd\u6301
p5634
aF0.46664172584862962
aa(lp5635
V\u53d1\u8868
p5636
aF1.3489666028973117
aa(lp5637
V\u673a\u6784
p5638
aF1.1965385924879324
aa(lp5639
V\u8d8b\u52bf
p5640
aF0.37687255103063305
aa(lp5641
V\u5c0f\u5c0f
p5642
aF0.88862177588688063
aa(lp5643
V\u8df3\u7a7a
p5644
aF0.31482388675533501
aa(lp5645
V\u8bdd\u9898
p5646
aF0.96563812928243009
aa(lp5647
V\u6709\u4eba
p5648
aF0.20279866890628018
aa(lp5649
V\u6d41\u51fa\u91cf
p5650
aF0.72705418027108426
aa(lp5651
V\u60e0\u57ce
p5652
aF0.17502268017372385
aa(lp5653
V\u52c7\u8005\u80dc
p5654
aF0.36211429848091126
aa(lp5655
V\u5374
aF0.34998129438647224
aa(lp5656
V\u4f0f\u51fb
p5657
aF0.15246917830775211
aa(lp5658
V\u7ea2\u4e09\u5175
p5659
aF0.23604350837025903
aa(lp5660
V\u53d1\u884c
p5661
aF0.55658730738905593
aa(lp5662
V\u524d\u8fdb
p5663
aF0.57938287756945805
aa(lp5664
V\u4e0d\u8865
p5665
aF0.27158572386068347
aa(lp5666
V\u96c6\u5408\u7ade\u4ef7
p5667
aF0.97392650698959748
aa(lp5668
V\u771f\u4f1a
p5669
aF0.21196934545224078
aa(lp5670
V\u5236\u7ea6
p5671
aF0.19312762585648602
aa(lp5672
V\u9009
aF0.73044488024219811
aa(lp5673
V\u7ec4\u7ec7
p5674
aF0.26740748195513453
aa(lp5675
V\u5f15\u8d77
p5676
aF0.18889433205320103
aa(lp5677
V\u5dee\u4e0d\u591a
p5678
aF0.53250271086233236
aa(lp5679
V\u65f6\u95f4
p5680
aF0.31430598017096284
aa(lp5681
V\u6743\u91cd\u80a1
p5682
aF0.44327403669670506
aa(lp5683
V\u516c\u52df
p5684
aF0.32187937642747666
aa(lp5685
V\u4e00\u7c92
p5686
aF1.2415347376488386
aa(lp5687
V\u4f5c\u5bf9
p5688
aF0.37785839841486396
aa(lp5689
V\u6954\u5f62
p5690
aF0.24830694752976773
aa(lp5691
V\u53d8\u6210
p5692
aF0.19979291775983582
aa(lp5693
V\u91cd\u8981
p5694
aF0.25183635920434427
aa(lp5695
V\u4e0d\u884c
p5696
aF0.4058449116378533
aa(lp5697
V\u63d0\u9ad8
p5698
aF0.36522244012109906
aa(lp5699
V\u6559\u79d1\u4e66
p5700
aF0.16093968821373833
aa(lp5701
V\u4ed9\u4eba
p5702
aF0.21089252430204894
aa(lp5703
V\u6ce8\u610f
p5704
aF0.30835690052723153
aa(lp5705
V\u66b4\u52a8
p5706
aF0.57938287756945805
aa(lp5707
V\u82cf\u5317
p5708
aF0.96563812928243009
aa(lp5709
V\u600e\u4e48\u529e
p5710
aF1.142513711854561
aa(lp5711
V\u8865\u9f50
p5712
aF0.25685093431606126
aa(lp5713
V\u6050\u614c
p5714
aF0.53234650587898547
aa(lp5715
V\u6293\u7d27\u65f6\u95f4
p5716
aF0.66851870488783627
aa(lp5717
V\u5c41
aF0.66851870488783627
aa(lp5718
V\u518d\u5ea6
p5719
aF0.55301901075972926
aa(lp5720
V\u7a81\u7834\u53e3
p5721
aF0.33425935244391813
aa(lp5722
V\u7acb\u9a6c
p5723
aF0.5112201860906983
aa(lp5724
V\u8f6c\u6696
p5725
aF0.41384491254961286
aa(lp5726
V\u8865\u7f3a
p5727
aF0.17342773055343336
aa(lp5728
V\u699c\u540e
p5729
aF0.79975959829819265
aa(lp5730
V\u70b9\u5230
p5731
aF0.57125685592728048
aa(lp5732
V\u725b\u8089
p5733
aF0.39675488320509167
aa(lp5734
V\u91cd\u89c6
p5735
aF0.50375508982220563
aa(lp5736
V\u6536\u8bc4
p5737
aF0.48281906464121505
aa(lp5738
V\u6307\u51b2
p5739
aF0.57938287756945805
aa(lp5740
V\u6c34\u6676
p5741
aF0.36211429848091126
aa(lp5742
V\u67d0\u4e9b
p5743
aF0.2104630521837349
aa(lp5744
V\u76f4\u5230
p5745
aF0.5112201860906983
aa(lp5746
V\u62c9\u4e00\u6ce2
p5747
aF0.54317144772136694
aa(lp5748
V\u725b\u80a1
p5749
aF0.86073043982095165
aa(lp5750
V\u6709\u4e2a
p5751
aF0.78681169456753008
aa(lp5752
V\u5e08\u95ee
p5753
aF0.42178504860409788
aa(lp5754
V\u8c03\u67e5
p5755
aF0.57938287756945805
aa(lp5756
V\u4e07\u80a1
p5757
aF0.45595183599048522
aa(lp5758
V\u5230\u6765
p5759
aF0.41839498710611822
aa(lp5760
V\u9057\u61be
p5761
aF0.25190559894324266
aa(lp5762
V\u867d
aF0.22283956829594539
aa(lp5763
V\u6309\u8ba1\u5212
p5764
aF0.48281906464121505
aa(lp5765
V\u5c0f\u5f6c
p5766
aF0.28325221004431084
aa(lp5767
V\u56fe\u817e
p5768
aF0.31038368441220965
aa(lp5769
V\u7275\u5f15
p5770
aF0.27577917182696299
aa(lp5771
V\u4e09\u80d6
p5772
aF0.24140953232060752
aa(lp5773
V\u4e24\u677f
p5774
aF0.5112201860906983
aa(lp5775
V\u6293
aF0.28119003240273188
aa(lp5776
V\u623f\u5730\u4ea7
p5777
aF0.55797181276618091
aa(lp5778
V\u56de\u590d
p5779
aF0.59814007255345414
aa(lp5780
V\u4e0d\u592a\u8db3
p5781
aF0.27158572386068347
aa(lp5782
V\u4ed6\u4f1a
p5783
aF0.27158572386068347
aa(lp5784
V\u591a
aF0.14747187430385653
aa(lp5785
V\u7f13\u6b65
p5786
aF0.4209261043674698
aa(lp5787
V\u6fa1
aF0.24140953232060752
aa(lp5788
V\u8fd9\u7968
p5789
aF0.29217795209687925
aa(lp5790
V\u8d5a
aF0.29716951188518148
aa(lp5791
V\u957f\u5f97
p5792
aF0.18788700207493605
aa(lp5793
V\u89c4\u5212
p5794
aF0.42393869090448155
aa(lp5795
V\u70b9\u71c3
p5796
aF0.32187937642747666
aa(lp5797
V\u52a8\u80fd
p5798
aF0.54112654885047107
aa(lp5799
V\u56de\u5934
p5800
aF0.73044488024219811
aa(lp5801
V\u4e00\u4e0b\u5b50
p5802
aF0.17040672869689943
aa(lp5803
V\u505c
aF0.99969949787274082
aa(lp5804
V\u897f\u5b89
p5805
aF0.15246917830775211
aa(lp5806
V\u4e70\u5165
p5807
aF0.58074164277707507
aa(lp5808
V\u592a
aF0.74203365743934158
aa(lp5809
V\u6682\u65e0
p5810
aF0.79006756032198833
aa(lp5811
V\u54c7
aF0.36211429848091126
aa(lp5812
V\u63d0\u793a
p5813
aF0.16659183949221784
aa(lp5814
V\u4e0d\u4e8f
p5815
aF0.22283956829594539
aa(lp5816
V\u9886\u6da8
p5817
aF1.4500928514114269
aa(lp5818
V\u66f4\u597d
p5819
aF0.25798696719296538
aa(lp5820
V\u6d6e\u4e91
p5821
aF0.4345371581770936
aa(lp5822
V\u76db
aF0.71102444240536622
aa(lp5823
V\u654c\u4eba
p5824
aF0.40422061225776146
aa(lp5825
V\u6709\u70b9
p5826
aF0.23264482369432257
aa(lp5827
V\u4e00\u751f
p5828
aF0.23488495036599652
aa(lp5829
V\u89e3\u5957
p5830
aF1.6871401944163915
aa(lp5831
V\u663e\u73b0
p5832
aF0.17381486327083742
aa(lp5833
V\u6c38\u78c1
p5834
aF0.3133341478812644
aa(lp5835
V\u4e00\u6b65\u4e4b\u9065
p5836
aF0.28969143878472903
aa(lp5837
V\u5e73\u65f6
p5838
aF0.4209261043674698
aa(lp5839
V\u8fde\u63a5
p5840
aF0.28969143878472903
aa(lp5841
V\u5c0f\u534e\u5b50
p5842
aF0.34762972654167484
aa(lp5843
V\u4ecd\u5b58
p5844
aF0.48281906464121505
aa(lp5845
V\u589e\u9ad8
p5846
aF0.37785839841486396
aa(lp5847
V\u5e95\u76d8
p5848
aF0.5112201860906983
aa(lp5849
V\u4e00\u5b9a\u91cf
p5850
aF0.28969143878472903
aa(lp5851
V\u663e\u793a\u5668
p5852
aF0.86907431635418719
aa(lp5853
V\u52a0\u5165
p5854
aF0.7494258904985065
aa(lp5855
V\u4e0b
aF0.30624715094073368
aa(lp5856
V\u4efb\u91cd\u9053\u8fdc
p5857
aF0.280346553662641
aa(lp5858
V\u5b8c\u6210\u4f7f\u547d
p5859
aF1.2415347376488386
aa(lp5860
V\u56db\u8fde\u677f
p5861
aF0.30243706233554901
aa(lp5862
V\u660e\u663e
p5863
aF0.56845105464379242
aa(lp5864
V\u8d60\u4eba
p5865
aF0.5331730655321284
aa(lp5866
V\u561b
aF1.142513711854561
aa(lp5867
V\u6f6e
aF0.21757525853182447
aa(lp5868
V\u53d8\u5316
p5869
aF0.2149401335466784
aa(lp5870
V\u7f3a\u53e3\u5904
p5871
aF0.23488495036599652
aa(lp5872
V\u770b\u51c6
p5873
aF1.0863428954427339
aa(lp5874
V\u80a1\u6307
p5875
aF0.34119831797915928
aa(lp5876
V\u5f88\u723d
p5877
aF0.1615346994653992
aa(lp5878
V\u5e76\u4e0d\u5927
p5879
aF0.30759984549930486
aa(lp5880
V\u770b\u91cf
p5881
aF0.39958583551967164
aa(lp5882
V\u5f3a\u6709\u529b
p5883
aF0.69019371589761469
aa(lp5884
V\u534e\u5c14\u8857
p5885
aF0.58401006729798177
aa(lp5886
V\u9762\u770b
p5887
aF0.18892919920743198
aa(lp5888
V\u6982\u7387
p5889
aF0.67361512681639701
aa(lp5890
V\u660e\u661f
p5891
aF0.32187937642747666
aa(lp5892
V\u65e9\u8bc4
p5893
aF0.28103470893693994
aa(lp5894
V\u7f6e\u9876
p5895
aF0.25561009304534915
aa(lp5896
V\u5bf9\u5f97\u8d77
p5897
aF0.4345371581770936
aa(lp5898
V\u7406\u60f3
p5899
aF0.25798696719296538
aa(lp5900
V\u997f\u6b7b
p5901
aF0.61519969099860972
aa(lp5902
V\u90a3\u65e5
p5903
aF0.20692245627480643
aa(lp5904
V\u4f1a\u8c03
p5905
aF0.29968079874282316
aa(lp5906
V\u7eb7\u7eb7
p5907
aF0.24983931236414919
aa(lp5908
V\u4f11\u7720
p5909
aF0.54317144772136694
aa(lp5910
V\u6253
aF1.6431810159494362
aa(lp5911
V\u4e00\u767e\u4e2a
p5912
aF0.96563812928243009
aa(lp5913
V\u51c6\u5907
p5914
aF0.19981134435324233
aa(lp5915
V\u9ad8
aF1.3152703450595404
aa(lp5916
V\u62ed\u76ee\u4ee5\u5f85
p5917
aF0.69019371589761469
aa(lp5918
V\u5148\u673a
p5919
aF0.2172685790885468
aa(lp5920
V\u4e24\u878d
p5921
aF0.33425935244391813
aa(lp5922
V\u5404\u81ea
p5923
aF1.448457193923645
aa(lp5924
V\u5f85\u6da8
p5925
aF0.32759784977168338
aa(lp5926
V\u4ece\u5c0f
p5927
aF0.23725408983980506
aa(lp5928
V\u96be\u9053
p5929
aF0.31038368441220965
aa(lp5930
V\u6d6a\u5b50
p5931
aF0.38625525171297204
aa(lp5932
V\u6ce2\u62c9
p5933
aF0.49139677465752513
aa(lp5934
V\u4e0d\u8981\u8138
p5935
aF0.23488495036599652
aa(lp5936
V\u7b79\u7801
p5937
aF0.28181687815724238
aa(lp5938
V\u5c0f\u6da8
p5939
aF0.35379403560583672
aa(lp5940
V\u4ed3\u4f4d
p5941
aF0.9127217556993561
aa(lp5942
V\u5305\u9634
p5943
aF0.22283956829594539
aa(lp5944
V\u89c1\u95fb
p5945
aF0.61519969099860972
aa(lp5946
V\u5c0f\u76d8\u80a1
p5947
aF0.31990383931927707
aa(lp5948
V\u8d44\u91d1\u6d41
p5949
aF0.69019371589761469
aa(lp5950
V\u5b9a\u4f4d
p5951
aF0.23522341126417431
aa(lp5952
V\u5b83
aF0.4562970050391304
aa(lp5953
V\u5904
aF1.0116150358725386
aa(lp5954
V\u8138\u8272
p5955
aF0.24140953232060752
aa(lp5956
V\u5f53\u5929
p5957
aF0.32467592931028266
aa(lp5958
V\u699c\u5355
p5959
aF0.33425935244391813
aa(lp5960
V\u9884\u5b9a
p5961
aF0.41384491254961286
aa(lp5962
V\u8ffd\u9ad8\u6015
p5963
aF0.13579286193034174
aa(lp5964
V\u8001\u59dc
p5965
aF0.28592876976423104
aa(lp5966
V\u6258\u76d8
p5967
aF1.448457193923645
aa(lp5968
V\u53d8\u52a8
p5969
aF0.99969949787274082
aa(lp5970
V\u5c0f\u5fc3
p5971
aF0.59181544413020903
aa(lp5972
V\u4e03\u996d
p5973
aF0.39503378016099416
aa(lp5974
V\u5173\u6ce8\u70b9
p5975
aF0.280346553662641
aa(lp5976
V\u5c0f\u5e45
p5977
aF0.17808846742290205
aa(lp5978
V\u602a
aF0.22283956829594539
aa(lp5979
V\u592a\u8fd1
p5980
aF0.1583785021025769
aa(lp5981
V\u504f\u591a
p5982
aF1.2174081337369969
aa(lp5983
V\u901f\u5ea6
p5984
aF0.44509572221379462
aa(lp5985
V\u70ed\u70b9
p5986
aF0.2847791641629559
aa(lp5987
V\u6d77\u54e5
p5988
aF0.45993224628758778
aa(lp5989
V\u5c42
aF0.38625301369678749
aa(lp5990
V\u4e2a\u4eba
p5991
aF0.34476869520854836
aa(lp5992
V\u5b50\u5973
p5993
aF0.31038368441220965
aa(lp5994
V\u53d1\u6539\u59d4
p5995
aF0.79006756032198833
aa(lp5996
V\u82f1\u6d1b\u534e
p5997
aF0.33323316595758024
aa(lp5998
V\u7bb1\u5b9d
p5999
aF0.79006756032198833
aa(lp6000
V\u8d4c
aF0.50614205832491743
aa(lp6001
V\u4ee5\u9022
p6002
aF0.30759984549930486
aa(lp6003
V\u65c5\u5ba2
p6004
aF0.39503378016099416
aa(lp6005
V\u5b9a\u4f1a
p6006
aF0.22870376746162818
aa(lp6007
V\u8138
aF0.38444467381168318
aa(lp6008
V\u822a\u7a7a\u516c\u53f8
p6009
aF0.37458711807292211
aa(lp6010
V\u5982\u6b64
p6011
aF0.1613782889047097
aa(lp6012
V\u4f60
aF0.22489463018154643
aa(lp6013
V\u5146\u5934
p6014
aF0.79006756032198833
aa(lp6015
V\u5feb
aF0.23454302793369106
aa(lp6016
V\u5c0f\u4f19\u4f34
p6017
aF0.21165938545406862
aa(lp6018
V\u5730\u56fe
p6019
aF0.39503378016099416
aa(lp6020
V\u5bf9\u5e94
p6021
aF0.32187937642747666
aa(lp6022
V\u559c\u62a5
p6023
aF0.35406526255538862
aa(lp6024
V\u5317\u77ff
p6025
aF0.78660598634293766
aa(lp6026
V\u4e0a\u8bc1\u6307\u6570
p6027
aF0.67603578639710959
aa(lp6028
V\u8282\u594f\u6027
p6029
aF0.39503378016099416
aa(lp6030
V\u697c\u4e0b
p6031
aF0.33323316595758024
aa(lp6032
V\u627e
aF0.24569838732876256
aa(lp6033
V\u7bb1\u5b50
p6034
aF0.28969143878472903
aa(lp6035
V\u70b9\u706b
p6036
aF0.86907431635418719
aa(lp6037
V\u4e70\u70b9
p6038
aF0.3065833188402981
aa(lp6039
V\u4e00\u8def\u4e0a
p6040
aF0.29968079874282316
aa(lp6041
V\u624b\u6bb5
p6042
aF0.57938287756945805
aa(lp6043
V\u6fc0\u60c5
p6044
aF0.86907431635418719
aa(lp6045
V\u4ed6\u4eec
p6046
aF0.29287649097428281
aa(lp6047
V\u4e2d\u91cf
p6048
aF0.23488495036599652
aa(lp6049
V\u76d1\u7ba1
p6050
aF0.33056508109310179
aa(lp6051
V\u80fd\u5426
p6052
aF1.1619229739268304
aa(lp6053
V\u504f\u79bb
p6054
aF0.21911221871183359
aa(lp6055
V\u76d8\u611f
p6056
aF0.12070476616030376
aa(lp6057
V\u5fc5\u5b9a
p6058
aF0.54229506249098292
aa(lp6059
V\u5b59\u5b50
p6060
aF0.57938287756945805
aa(lp6061
V\u8bd5\u63a2
p6062
aF0.17772435517737614
aa(lp6063
V\u5a01\u6b66
p6064
aF0.7345890690957817
aa(lp6065
V\u5347\u52bf
p6066
aF0.42178504860409788
aa(lp6067
V\u5730\u91cf
p6068
aF0.37966739266585869
aa(lp6069
V\u4ed3\u4e14
p6070
aF0.48281906464121505
aa(lp6071
V\u592a\u4f4e
p6072
aF0.19751689008049708
aa(lp6073
V\u8d85\u56fe
p6074
aF0.6207673688244193
aa(lp6075
V\u4e0d\u8f7b
p6076
aF2.1726857908854678
aa(lp6077
V\u5c45\u7136
p6078
aF1.2987037172411307
aa(lp6079
V\u9f99\u5934
p6080
aF0.54023352967253069
aa(lp6081
V\u5f3a\u529b
p6082
aF0.20660317568318862
aa(lp6083
V\u56de\u6d41
p6084
aF0.46551429491743179
aa(lp6085
V\u53c8
aF0.25411064689110008
aa(lp6086
V\u4e92\u76f8
p6087
aF0.23175315102778324
aa(lp6088
V\u8dcc
aF0.15667934944635167
aa(lp6089
V\u9119\u89c6
p6090
aF0.26335585344066276
aa(lp6091
V\u538c\u6076
p6092
aF0.27158572386068347
aa(lp6093
V\u89e3\u7b54
p6094
aF0.54317144772136694
aa(lp6095
V\u8c01\u9519
p6096
aF0.4345371581770936
aa(lp6097
V\u803f\u803f\u4e8e\u6000
p6098
aF0.23488495036599652
aa(lp6099
V\u8d76\u811a
p6100
aF1.0863428954427339
aa(lp6101
V\u53d6\u51b3\u4e8e
p6102
aF0.22283956829594539
aa(lp6103
V\u767e\u6218
p6104
aF0.84357009720819576
aa(lp6105
V\u6b63
aF0.54720416441247832
aa(lp6106
V\u8bb2\u8d77
p6107
aF0.47044682252834863
aa(lp6108
V\u8865
aF0.27053514083044372
aa(lp6109
V\u9e21\u86cb
p6110
aF0.4345371581770936
aa(lp6111
V\u6f5c\u80fd
p6112
aF0.62718033584671062
aa(lp6113
V\u6307\u53bb
p6114
aF0.54317144772136694
aa(lp6115
V\u80a1\u6709
p6116
aF0.14541083605421684
aa(lp6117
V\u8001\u5934
p6118
aF0.22275613840292124
aa(lp6119
V\u6d77
aF0.91305610030274764
aa(lp6120
V\u4ef6
aF0.86907431635418719
aa(lp6121
V\u5c0f\u5e95
p6122
aF0.17040672869689943
aa(lp6123
V\u52a0\u901f
p6124
aF0.49984974893637041
aa.