(lp1
F0.64271632693305336
aF0.23219338683412774
aF0.13720112151348496
aF0.2653763149374827
aF0.098671527507029622
aF0.9911920400472729
aF0.71562003641200389
aF0.28312625591592028
aF-0.092018898720252137
aF0.26072626246325264
aF-0.14424960884454679
aF0.037457562534900415
aF-0.32964627155081311
aF0.39803012962064632
aF0.23747337686903464
aF0.036813973122716399
aF-0.010050335853501451
aF-0.049871830040172982
aF-0.4879861317961679
aF0.0086580627431145311
aF0.39465419200394874
aF-0.18058393689541388
aF0.27996002635787059
aF0.47873730921449009
aF-0.061087691979838148
aF0.17062551703076345
aF0.15541410387403032
aF-0.18805223150293959
aF-0.32066857144808741
aF0.67634006224356402
aF0.23001643060197177
aF-0.026668247082161294
aF0.3780661339200499
aF0.064538521137571164
aF-0.10109611687136875
aF-0.0088106296821549197
aF-0.36662527479190055
aF-0.098440072813252524
aF-0.14660347419187539
aF0.13045288839743524
aF0.51082562376599072
aF0.36396537720141159
aF0.43254606671083512
aF1.1349799328389845
aF0.88926205948623571
aF1.2584609896100056
aF0.84342938360928321
aF1.1499055830556602
a.