(lp1
F-0.091846796491103513
aF-0.76294294249548733
aF-0.2293741010648459
aF-0.37059628245734044
aF0.24167579944313744
aF0.20252426411147409
aF0.40234498077192071
aF-0.057158413839948637
aF-0.22206188544346875
aF0.31563814971837095
aF-0.41651494429474939
aF0.54067858691567183
aF0.22664618186541174
aF-0.14705341795649662
aF0.4684780759368985
aF0.59234248143797963
aF-0.048790164169432056
aF-0.072320661579626133
aF0.14001323022671347
aF-0.25951119548508456
aF0.38752740742149711
aF0.092658830482704763
aF0.10219094089654716
aF-0.031581572050298927
aF-0.30134971118044468
aF-0.59681607162151318
aF0.026491615446976285
aF-0.19832189814039575
aF-0.7391322938017687
aF-0.19832189814039575
aF-0.018462062839735442
aF0.18672685026187097
aF0.44507424620321018
aF0.19490033900081477
aF0.13601175768285467
aF0.33377317965204784
aF0
aF0.55552580268389762
aF0.47445797959511588
aF0.71043867767000635
aF1.1574527886910431
aF0.82667857318446791
aF0.41119578281714936
aF0.40924583094807038
aF-0.091630322845924261
aF-0.095310179804324893
aF0.13587605958377685
aF0.30254118685553077
a.