(lp1
F0.9268356450507701
aF1.0986122886681098
aF0.46470794167102519
aF0.85033276408235769
aF0.95378134078965371
aF0.44839015282519834
aF0.8232003088081431
aF0.27675300191959074
aF0.22450317083024937
aF-0.225161715470447
aF-0.22705745063534608
aF-0.32378707709389715
aF-0.59516677219974146
aF-0.19139485299962947
aF-0.21741287660522471
aF0.055262678675049519
aF0.20067069546215124
aF0.25995752443692605
aF-0.11778303565638351
aF0.33234284327920172
aF1.0000103118635701
aF0.3720491111883204
aF0.27958486221916151
aF0.68087708796813096
aF0.57096149620713055
aF1.2237754316221157
aF0.67164097533898171
aF0.49899116611898781
aF1.3573068242466384
aF1.329135947279942
aF0.72391883922669897
aF1.1308731508863312
aF0.035718082602079246
aF0.66205659348991419
aF0.018349138668196617
aF0.66329421741026418
aF0.60025343366724893
aF0.42050298547270487
aF1.0753554265038423
aF0.87546873735389985
aF0.90570862254361817
aF0.67164097533898171
aF0.091807549253122886
aF0.08515780834030677
aF0.38299225225610573
aF0.3760512229018711
aF0.047628048989254664
aF-0.11075136429270276
a.