(lp1
F0.043608423088038036
aF0.23195750758930561
aF0.67820870451226478
aF0.37958552284216818
aF0.35229711513446832
aF0.40992134283142057
aF-0.05991060732176981
aF-0.026101904519091432
aF0.4037691839285556
aF-0.14547936424589775
aF-0.016094370923963024
aF0.044847942332263774
aF0.21840227809387253
aF0.55048020984084511
aF-0.0081479157087228759
aF-0.010383571662367764
aF-0.026217643932682343
aF-0.026229450544247693
aF-0.59210819631077871
aF-0.28506561403486386
aF-0.25171893331387457
aF-0.25820815516783652
aF0.12048148777949978
aF0.017758344050175554
aF-0.086319448892477835
aF-0.16126435811902867
aF-0.35724566305869926
aF-0.17169441756084339
aF0.01
aF0.01
aF-0.19375630756219153
aF0.26813564948281599
aF0.20421278676378468
aF0.20825013017098457
aF0.59706619356349111
aF0.21361279882853276
aF0.59810659478358108
aF0.04158129520545914
aF-0.024782622721611653
aF0.1252786681790444
aF0.14318664071232282
aF-0.13862170673499299
aF-0.23140416508863509
aF-0.23190844443122452
aF0.43905186501359889
aF0.28552011998737342
aF-0.44027337938514671
aF-0.14475825287840671
a.