(lp1
F102
aF63
aF64
aF91
aF43
aF114
aF15
aF5
aF88
aF43
aF30
aF58
aF38
aF104
aF19
aF38
aF-2
aF-24
aF-92
aF-38
aF-39
aF-69
aF20
aF6
aF-30
aF-82
aF-114
aF-48
aF0
aF0
aF-5
aF-32
aF-27
aF44
aF125
aF86
aF58
aF67
aF12
aF45
aF-6
aF-30
aF-6
aF11
aF50
aF10
aF-29
aF-20
a.