(lp1
F435
aF201
aF187
aF193
aF116
aF87
aF126
aF143
aF124
aF65
aF125
aF75
aF110
aF150
aF63
aF119
aF102
aF125
aF93
aF79
aF100
aF75
aF60
aF56
aF71
aF57
aF86
aF85
aF104
aF71
aF59
aF-25
aF44
aF69
aF113
aF103
aF63
aF23
aF91
aF78
aF83
aF42
aF34
aF75
aF68
aF56
aF51
aF46
a.