(lp1
F-0.59731962556084262
aF-0.039891329027301969
aF0.51345374617226014
aF0.81831032351395128
aF0.73430525305345284
aF0.69772384758735717
aF0.78151633101003548
aF1.3019532126861397
aF0.92494879461726964
aF0.78471437408543576
aF0.98323021454926429
aF0.30466040898619884
aF0.36497374675342747
aF0.81241060138676302
aF0.93203908884229414
aF0.7326780193165805
aF0.46856581447610801
aF0.54266622962164945
aF0.57113222999698177
aF0.26912866455603313
aF-0.050772325373423258
aF0.75632608218147701
aF0.55770920966484105
aF0.57443087372056334
aF0.48884671704721538
aF0.056618893999507904
aF-0.18571714579509283
aF0.99325177301028345
aF0.59086833143952711
aF0.59962112254912181
aF-0.19268434382950125
aF-0.052643733485422027
aF0.43891304217570443
aF0.047067510857985731
aF-0.16430305129127629
aF-0.067441280795532535
aF0.49578774640145024
aF0.3604414267342092
aF0.86499743748660451
aF0.56580775818334383
aF0.95683682626850497
aF1.0608719606852626
aF1.0986122886681098
aF1.4350845252893227
aF0.67445504754779284
aF-0.16126814759612226
aF0.26570316573300568
aF0.5753641449035618
a.