(lp1
F-0.079083106793835622
aF-0.70897864577662595
aF0.31424909983650273
aF0.47803580094299974
aF0.18081892690941961
aF0.031548357734926057
aF-0.23052365861183238
aF0.090596895352226647
aF0.297632403304949
aF0.95729875560153221
aF0.38247558988346558
aF0.54023950897228401
aF0.76352797732174493
aF0.81620727331717247
aF0.41318715420207469
aF0.60299608356564782
aF0.95551144502743635
aF1.1271856611121658
aF0.78495472981306824
aF0.29205844705157985
aF0.54569444941681466
aF1.0531499145913523
aF0.50656122497953315
aF-0.021739986636405875
aF0.078068373369818742
aF-0.028170876966696335
aF-0.19022673630106793
aF-0.77614410013091317
aF-0.61475654661422252
aF-0.56774591401867291
aF-0.12337902116050466
aF-0.14571181118139365
aF0.25270235355575421
aF-0.087705580419105575
aF0.37548427589622857
aF-0.1427219840036355
aF-0.84561577420421885
aF-0.47542369671507478
aF-0.35806286921358044
aF0.26570316573300568
aF-0.092781733450966214
aF0.66845456796957381
aF-0.41616039722491244
aF-0.51644361607021394
aF-0.56393544907993909
aF-0.55228974784334983
aF-0.55719154432391638
aF-0.46790057904895682
a.