(lp1
F1.1962507582320256
aF1.2651088043176675
aF1.4271163556401458
aF0.4621604517847096
aF1.0050862306572863
aF0.96885306196501053
aF1.3616017485295191
aF1.0348964742820019
aF1.6094379124341003
aF1.0385083645984043
aF0.89648810457797545
aF0.39786050872294498
aF0.76775804435111994
aF0.95551144502743635
aF0.53749387084815203
aF1.0775588794702773
aF1.3340259325741337
aF0.57931203791114672
aF0.27443684570176036
aF0.43363598507486073
aF0.69945634975321003
aF0.98690829908810851
aF0.22918586577017239
aF0.83739678940449203
aF1.1488209842508559
aF2.0600234558227344
aF1.2313717785140506
aF1.0719440415859482
aF1.2280703559049966
aF0.99325177301028345
aF0.78015855754957497
aF0.45072169969628523
aF0.079137320558723787
aF0.60179740197171738
aF0.494696241836107
aF-0.50310357767208047
aF0.12210269680089991
aF0.29873190863836585
aF0.31213316831594534
aF0.59136448625000293
aF0.3839589028872008
aF0.40546510810816438
aF1.0712133144799951
aF0.79199301519657794
aF0.64841128671855386
aF0.69314718055994529
aF0.74840985923499481
aF0.37776250555882862
a.