(lp1
F-0.03475863336517418
aF0.40344286272739666
aF0.77745428701993935
aF0.85189556963583313
aF0.9633156705190179
aF0.47000362924573563
aF0.68375744021010632
aF0.54453668110830244
aF0.48550781578170082
aF0.43901664227939718
aF0.068992871486951421
aF0.18830959863857732
aF0.18502791839169766
aF0.28768207245178085
aF0.28410425110389692
aF0.38822330167365837
aF0.019608471388376337
aF0.23483959107740099
aF0.41158133512560041
aF0.17768117723745241
aF0.54522705048332309
aF0.30748469974796072
aF-0.088107267510266901
aF0.02454110891611766
aF-0.092830986042893748
aF0.087011376989629699
aF0.51082562376599072
aF-0.082996919570967914
aF0.17824823140631876
aF0.11441035117774412
aF0.19923803046065539
aF0.26570316573300568
aF0.2556793413656071
aF0.38893580615695389
aF0.27958486221916151
aF-0.39589565709201358
aF-0.21319322046104161
aF0.099629840948841336
aF-0.028987536873252298
aF0.27286698666664028
aF0.11778303565638346
aF0.61903920840622351
aF0.65392646740666405
aF0.88503818837005055
aF0.74859848509615956
aF0.96327094079834763
aF0.69314718055994529
aF1.0812205459562405
a.