(lp1
F0.32819632731735315
aF0.85893943540268936
aF1.2497188261141399
aF0.98941299670311778
aF0.90445627422715225
aF0.73840377214806618
aF0.55097269177940267
aF1.413693335308005
aF0.76497291513120091
aF1.0906441190189329
aF0.81093021621632877
aF0.85913231803420642
aF0.88074579445474366
aF0.61180154110599294
aF0.58122926435596001
aF0.92576947582869884
aF0.76578636419991697
aF1.1079581510863474
aF0.9028677115420144
aF1.0116009116784799
aF0.65392646740666405
aF0.97257156777274467
aF0.91629073187415511
aF1.6602963296675914
aF0.65973118364010119
aF1.2527629684953681
aF1.7211419020141017
aF0.24846135929849972
aF0.62117368093485603
aF0.81503699816898212
aF0.5937747067467416
aF0.8564722366632449
aF1.2092221602120798
aF0.82848852842970744
aF1.3800247481062953
aF0.66071190480679143
aF0.56309405231174747
aF0.21465693743689096
aF0.81093021621632877
aF-0.0076628727455691371
aF-0.41397579777607302
aF0.053345980705292714
aF0.41494385206270812
aF0.99852883011112725
aF0.62739580299716491
aF0.095310179804324935
aF0.40546510810816438
aF0.3237870770938972
a.