(lp1
F0.24532560684018434
aF0.3588308915938006
aF0.63332868534903508
aF0.21584424883259823
aF0.11034805716886541
aF0.20359895524123955
aF0.1993329026204913
aF0.58009431927896338
aF0.38148314342167888
aF0.48954822531870579
aF0.1299121342402095
aF-0.11591910221832069
aF0.069361127797502323
aF0.14732471475685852
aF-0.0051151006667703768
aF-0.01279335145990947
aF0.16487464319023404
aF0.15886989575890481
aF0.46693143020876532
aF0.11142573516091707
aF0.66950541750290493
aF0.40139178272052856
aF0.32220326682001404
aF0.325877670189817
aF0.32302143889708984
aF0.23954958670131971
aF0.1042037775300025
aF0.18457127652797004
aF0.15415067982725836
aF0.50474657768960851
aF0.46170482643104049
aF0.83034830207343024
aF0.64662716492505246
aF0.67652629932390496
aF0.5720692490067093
aF0.5039051809214169
aF0.094310679471241415
aF-0.34409616173187224
aF-0.16929205650362072
aF-0.45874647472110114
aF-0.2876820724517809
aF0.46313074995797349
aF0.50279345206872639
aF0.54935928776823362
aF0.99380441187485968
aF0.49899116611898781
aF0.52806743020049673
aF0.50781357329599908
a.