(lp1
F165.99717387093435
aF28.346097731106038
aF29.488436313582625
aF49.956969715185416
aF44.744901345130074
aF39.137606885424383
aF41.99559367021395
aF30.978401433567264
aF52.03570029264997
aF25.520939362845116
aF41.77734188798248
aF46.763894126968509
aF37.925283365947308
aF23.578350023144193
aF40.319747140972339
aF51.600263940879117
aF48.874569419699853
aF35.261374873386352
aF35.360152314839972
aF45.970083511664079
aF21.765564131289366
aF34.002877346887701
aF29.47713937218473
aF30.197775215116359
aF37.222891352819566
aF32.287651573457133
aF37.692386625794391
aF36.859596392625484
aF27.426515817256107
aF29.828966598581516
aF27.06383075492387
aF28.337760069082147
aF37.276407251689839
aF22.52557680516162
aF14.306427509117414
aF23.838247715143986
aF24.278263830323045
aF24.59773241261151
aF21.293961712851399
aF20.783880988290491
aF30.231843585890118
aF22.534747145335761
aF24.862054944814737
aF32.09622945166852
aF21.009226598573541
aF35.085628768444458
aF23.163349109967537
aF34.011043914231585
a.