(lp1
F-0.69492495880594463
aF-1.9459101490553135
aF-0.69834199743704928
aF-0.51082562376599072
aF-0.23052365861183238
aF-0.28410425110389698
aF-0.044997365930735805
aF0.054394072065798764
aF0.17733401528291545
aF0.0093023926623134103
aF-0.082238098236972118
aF-0.037457562534900443
aF0.15110653744603006
aF0.34830669426821581
aF0.26947610795520843
aF-0.045256591588120829
aF-0.051959738930711104
aF0.14994014729091487
aF0.17788695972608895
aF0.2696635669491026
aF0.38623374618027684
aF0.47573430395472061
aF0.46021562287957274
aF0.62252961334599188
aF-0.31499551441557766
aF0.11302338840339544
aF0.24480504809538922
aF-0.16126814759612226
aF-0.053704178971861097
aF0.45041649597043065
aF0.38193461069797024
aF0.39551477725499629
aF0.11653381625595161
aF0.71783979315031676
aF0.64185388617239469
aF0.31158759330533525
aF0.17693070815907824
aF0.59652034487087369
aF0
aF0.014598799421152631
aF0.24921579162398483
aF0.3839589028872008
aF0.78411895876567206
aF1.1188149959856291
aF1.1592369104845446
aF0.38077249551779285
aF0.23638877806423034
aF0.72391883922669897
a.