(lp1
F2.7707006369426752
aF3.0454545454545454
aF3.3392857142857144
aF3.3275862068965516
aF2.3199999999999998
aF1.8913043478260869
aF3.4054054054054053
aF2.1666666666666665
aF2.6382978723404253
aF1.6666666666666667
aF2.9069767441860463
aF2.1428571428571428
aF3.1428571428571428
aF3.0612244897959182
aF2.032258064516129
aF3.9666666666666668
aF1.9245283018867925
aF2.4038461538461537
aF2.3846153846153846
aF2.6333333333333333
aF2.4390243902439024
aF2.0833333333333335
aF1.4634146341463414
aF1.4358974358974359
aF1.2456140350877194
aF1.78125
aF2
aF2.5
aF3.0588235294117645
aF1.4791666666666667
aF1.5128205128205128
aF-0.64102564102564108
aF1.2571428571428571
aF1.9166666666666667
aF2.6904761904761907
aF2.3409090909090908
aF1.6578947368421053
aF0.47916666666666669
aF2.2749999999999999
aF2.1081081081081079
aF2.0750000000000002
aF1.0769230769230769
aF1.1333333333333333
aF1.7441860465116279
aF2.193548387096774
aF2.2400000000000002
aF1.9615384615384615
aF1.3529411764705883
a.