(lp1
F0.036943515191684276
aF0.12445417447340605
aF0.8060875917405409
aF0.97725143166384221
aF0.70556970055850243
aF0.83290912293510388
aF1.4954936530848826
aF1.4975199962301151
aF0.95310470499687139
aF1.0986122886681098
aF1.0469879232628025
aF0.83225998302266313
aF0.18026182383094405
aF0.71024161391924534
aF0.40546510810816438
aF0.88319078344781021
aF1.1048819016817051
aF0.62860865942237409
aF1.3044643428722584
aF1.2039728043259361
aF1.3451362886263831
aF0.83532166934048779
aF1.8050046959780757
aF0.76590653484237359
aF0.80656339704998836
aF0.74795541705494029
aF0.43969827975040665
aF0.25299651446389088
aF0.96141116715462471
aF0.37037378829689427
aF-0.020202707317519466
aF1.1415373333851437
aF0.52324814376454787
aF1.2104036946562264
aF0.13976194237515863
aF1.2888390249691777
aF2.0082140323914683
aF0.990398704027877
aF1.3156767939059373
aF1.0793809267402221
aF1.07880966137193
aF1.1186129553747792
aF0.48798613179616795
aF1.4415570397949402
aF1.5184661342283736
aF1.6766901394432678
aF0.85348983063512474
aF0.86903784702360953
a.