(lp1
F1.3001166648788383
aF0.90903556099298322
aF0.86499743748660451
aF1.1599812350444019
aF0.75768570169751648
aF0.44547044272186359
aF0.52472852893498212
aF0.24740817331384096
aF0.096849825989917621
aF0.37755631999108774
aF0.26543646350446126
aF0.35020242943311497
aF0.26358452087272044
aF1.062054692934312
aF0.5584145865897886
aF0.28185115214098766
aF0.50499470345519748
aF0.31534469019533767
aF0.30024869505163948
aF0.71868048256511019
aF0.71294980785612505
aF0.46288616147687162
aF0.35512335324731359
aF0.51345374617226014
aF0.20102574606059073
aF0.67764299402398009
aF0.42433359241254714
aF0.71946448887731862
aF1.0581209273133727
aF1.4213856809311609
aF0.27541197985996663
aF0.63297865909349249
aF0.90490540964902977
aF0.69314718055994529
aF0.65109894431644588
aF0.67116827384117006
aF0.75632608218147701
aF0.60005675749393339
aF0.60613580357031549
aF0.26481624771477769
aF0.3746934494414107
aF0.10848064299406987
aF-0.33647223662121289
aF0.49140753790888908
aF0.29479954022064481
aF0.55961578793542266
aF0.36572477945865023
aF0.94957670950762185
a.