(lp1
F0.3820107373727939
aF0.63808740337691783
aF0.98082925301172619
aF0.61779774331815851
aF0.64369890514596406
aF0.43413300297773622
aF0.13248918304607887
aF0.37129621249291445
aF0.30586439153497141
aF0.1964753042320484
aF0.030397477184370948
aF0.17768117723745241
aF-0.080472353222573081
aF-0.16303962724450435
aF0.45758110924717832
aF0.58289069428991236
aF0.28445105187033448
aF0.12344419109112176
aF0.24472712298138427
aF1.136764054632486
aF0.34574587340654217
aF0.016393809775676352
aF-0.035245939061674829
aF0.089167944571181046
aF-0.035014517845102032
aF-0.10536051565782628
aF0.26570316573300568
aF0.38229804882662999
aF0.49956243148727991
aF0.50909999779852089
aF-0.24382375655174854
aF-0.20312468442371789
aF0.38865798979178323
aF0.06351340572232593
aF1.4718165345580525
aF0.99274428758959743
aF0.70036742853343237
aF-0.056695343676545294
aF-0.42010665810111253
aF-0.44118319071024364
aF-0.3205656643216781
aF-0.71846498854423524
aF-0.28989201810258369
aF-0.41161897368254274
aF0.12516314295400599
aF0.050920090427256946
aF0.33270575382573597
aF0
a.