(lp1
F39
aF61
aF125
aF118
aF115
aF126
aF77
aF119
aF60
aF53
aF145
aF56
aF80
aF81
aF68
aF88
aF103
aF48
aF19
aF71
aF83
aF90
aF36
aF46
aF103
aF23
aF78
aF78
aF116
aF188
aF87
aF117
aF111
aF107
aF68
aF30
aF39
aF147
aF76
aF55
aF67
aF25
aF37
aF92
aF35
aF63
aF110
aF139
a.