(lp1
F-0.27521266284779444
aF-0.63188792981475239
aF0.092864991566603994
aF0.03841014982136845
aF-0.0385376077045076
aF-0.053350169936901469
aF0.27423201540752246
aF0.1930743781775367
aF-0.080074665115886609
aF0.59066342891888535
aF0.44681492816008128
aF0.29944146588414217
aF0.47562037434420068
aF0.32494167449515876
aF0.25343144405146378
aF0.58859311454620666
aF0.93383289814461157
aF0.56682570240245722
aF0.15898560027402842
aF0.30809891539255435
aF0.59886091393386753
aF0.64345198258288261
aF0.19918453017844676
aF-0.16865798785884903
aF-0.13294267876070054
aF0.15970435664194527
aF-0.29732463349444305
aF-1.0470965529895528
aF-0.61384014274583476
aF-0.77030639629339726
aF-0.12113271612832721
aF-0.51360635153759504
aF0.13395258124317516
aF-0.11125129971965952
aF0.24736142340854431
aF0.030922746212381644
aF-0.79324953382803287
aF-0.74369266406752077
aF-0.36299162507543009
aF0.21633240514913554
aF0.20721841056475518
aF0.56332035444946504
aF-0.59087825197963451
aF-0.70682876074677037
aF-0.76301502350945072
aF-0.62687362971203875
aF-0.5117137938439158
aF-0.59032341179722747
a.