(lp1
F-33
aF-97
aF48
aF38
aF22
aF5
aF-21
aF11
aF26
aF69
aF41
aF48
aF55
aF53
aF22
aF48
aF72
aF96
aF62
aF58
aF45
aF84
aF31
aF-2
aF19
aF-3
aF-22
aF-61
aF-107
aF-107
aF-13
aF-24
aF23
aF-11
aF36
aF-27
aF-113
aF-70
aF-31
aF14
aF-7
aF39
aF-48
aF-48
aF-50
aF-101
aF-44
aF-71
a.