(lp1
F0.54280866961904151
aF0.49247648509779424
aF1.3944576717590516
aF1.2864740258376797
aF0.62860865942237409
aF0.32190002976212223
aF0.22314355131420976
aF0.35020242943311497
aF0.22078783762175069
aF0.31077778724643024
aF0.53408248593025787
aF0.77559084977101989
aF0.89097292388986515
aF0.06062462181643484
aF0.52030436772053446
aF1.1307694003026412
aF0.52976282478574155
aF0.35020242943311497
aF0.51082562376599072
aF0.71868048256511019
aF0.43178241642553783
aF0.59066851127700792
aF1.0116009116784799
aF1.1561821404895876
aF0.22986250156295468
aF-0.1423162221802555
aF0.41836851294407224
aF1.4490952623589211
aF0.59783700075562041
aF1.5293952047605639
aF0.45309315709741904
aF0.71825310169102152
aF0.68797921040150278
aF0.57617550397444106
aF0.12210269680089991
aF0.58551651636757984
aF1.2712250313351035
aF0.39230702353065328
aF0.32988242694215736
aF1.4996230464268938
aF1.0986122886681098
aF0.39834764033930037
aF0.66623972764002093
aF0.38996092157219919
aF0.75983855505861742
aF0.78845736036427028
aF-0.028573372444056
aF0.69881291809562263
a.