(lp1
F-0.71147017036016125
aF-0.070531187099801759
aF-0.1194119210379723
aF0.22064379467850137
aF-0.12804135493674115
aF0.0014610266685157981
aF0.27329960215194438
aF0.15531794267303545
aF0.69417222687933611
aF0.20874477127403657
aF0.48263080438553518
aF-0.12308013634683868
aF0.2629528118692363
aF0.41557450298198234
aF1.0652441759267046
aF0.35348303592649266
aF0.08833201771109804
aF0.17259677582346314
aF0.10408049209807609
aF0.38618444332047597
aF0.53948463810848013
aF-0.40130065928811331
aF-0.36914675984021006
aF-0.48976444592064822
aF-0.40203701543904524
aF-0.29287515164971889
aF-0.32459831644363568
aF0.2465096154197674
aF0.41179166192904093
aF0.83467633593007051
aF0.8158908223532404
aF0.73771593174175298
aF0.82008468385844302
aF0.85262995687170151
aF0.64687454332442962
aF0.68890851021535637
aF0.2101299899767605
aF0.45414891030721277
aF1.2188208796123294
aF0.63490323131042226
aF0.091078586127173608
aF0.24087609227969253
aF-0.46089143625855022
aF-0.33141940043485268
aF-0.37606219425907067
aF0.0047392860473692445
aF0.2513880921565293
aF0.48870491879542938
a.