(lp1
F-307
aF-19
aF-13
aF35
aF-31
aF-10
aF49
aF16
aF60
aF26
aF120
aF23
aF31
aF71
aF122
aF31
aF-14
aF5
aF-7
aF33
aF19
aF-12
aF-47
aF-5
aF-54
aF4
aF-33
aF22
aF40
aF111
aF112
aF87
aF49
aF34
aF39
aF85
aF-1
aF65
aF62
aF56
aF25
aF26
aF-7
aF-4
aF-17
aF2
aF35
aF39
a.