(lp1
F-0.28965640675549847
aF-0.68267588069264984
aF-0.18232155679395459
aF0.24445333790096074
aF0.26038993016377349
aF-0.034133006369458471
aF0.12967782330853261
aF0.10265415406008337
aF0.19129022677671509
aF0.47927726603106469
aF0.41161897368254269
aF0.24659521234925952
aF0.30192442916732409
aF0.43286408229627887
aF0.88376754016859504
aF0.35254270665382192
aF0.21130909366720696
aF-0.23977861181874185
aF0
aF0.034786116085415604
aF-0.11531084651099437
aF0.013029500290333897
aF-0.034401426717332435
aF-0.040821994520255166
aF-0.22071930770270337
aF0.401795379219202
aF0.18151216783839605
aF0.48005396509923698
aF0.34092658697059319
aF0.69314718055994529
aF1.3862943611198906
aF0.94778939893352609
aF0.23867449334508636
aF0.1210266324022258
aF-0.082064953054304168
aF0.7587444630457586
aF0.24445333790096074
aF-0.26447917537211707
aF0.032260862218221477
aF-0.14618251017808145
aF-0.30178667863332287
aF-0.10536051565782628
aF-0.42956265968722485
aF0.032365284502031716
aF-0.81186348739932723
aF-0.12861737782209359
aF-0.043802622658392888
aF0.16184302545041396
a.