(lp1
F-0.0076190844764394052
aF-0.010638398205055754
aF0.11332868530700327
aF0.15790302944580875
aF0.73434293699821263
aF0.50871814142642602
aF0.46234075650016643
aF0.9473813189441862
aF0.62191967127157755
aF0.67462813279270784
aF0.34294475112683043
aF0.54935928776823362
aF0.62335141862440335
aF1.0726368022648489
aF0.48022518331727365
aF1.2595426554807467
aF0.41985384556026406
aF0.4799981599707312
aF1.1516048188086201
aF0.76019168318894237
aF0.67723172525404574
aF0.8069060659166033
aF0.76477683669920016
aF1.1810312350835293
aF0.44281074746701604
aF1.1134273744532504
aF1.3694872428035094
aF0.5020919437972361
aF0.59470710774669278
aF0.41197978912935806
aF-0.073502461992926496
aF0.18038169197612797
aF0.39515573844930318
aF0.0089686699827603161
aF0.55388511322643763
aF0.58915746703589766
aF0.85293962429387171
aF0.58192154544972097
aF0.71043867767000635
aF0.62378605276244292
aF0.55657164555419458
aF0.49112055268665822
aF0.3651912089702245
aF0.11466290832013973
aF0.19971329950582384
aF0.016086137751624444
aF0.49423302867257102
aF0.22508341613203645
a.