(lp1
F-0.65045777186489473
aF-0.15168458733206477
aF-0.08701137698962981
aF0.32850406697203605
aF-0.1712159403814453
aF-0.08701137698962981
aF0.44264411134991849
aF0.13935552091051134
aF0.61903920840622351
aF0.18361271255757444
aF0.87352887253607325
aF0.19979618731721868
aF0.29885537304990611
aF0.72256106576623869
aF1.1564318595569358
aF0.42819335918572055
aF-0.10863384100279541
aF0.051825067864585947
aF-0.070380796761799494
aF0.30942205908818687
aF0.33950714031636697
aF-0.098440072813252524
aF-0.30458388325438412
aF-0.067139302837628562
aF-0.29080219978802457
aF0.051293294387550481
aF-0.27103483901862457
aF0.21233263520999412
aF0.46262352194811296
aF1.4733057381095203
aF0.91362050331827616
aF0.98323021454926429
aF0.53657811986840542
aF0.40546510810816438
aF0.22705745063534608
aF1.0756227704434109
aF-0.02409755157906053
aF0.78015855754957497
aF0.68517901091076849
aF0.72105596867702193
aF0.44991687067899816
aF0.75632608218147701
aF-0.08489944378648627
aF-0.06782259633876106
aF-0.27820332849723717
aF0.023256862164267183
aF0.42546577481483389
aF0.58551651636757984
a.