(lp1
F0.44062136509274213
aF0.64259490139711395
aF0.74040006541049086
aF1.547562508716013
aF1.2272296664902032
aF1.6046646336814427
aF1.1053919756534885
aF0.62718921276814787
aF0.78227496045595268
aF0.58394788859495339
aF0.79492987486988764
aF0.75828648273090682
aF0.52287396228216521
aF1.017386848745524
aF1.0003738490846965
aF1.085189268335969
aF0.67739882359180614
aF0.84078317936600999
aF0.66387679825983203
aF0.3604414267342092
aF0.43078291609245434
aF1.1972838161751393
aF0.74721440183022114
aF0.70774597998109789
aF-0.012422519998557209
aF0
aF-0.46034171833399856
aF0.0408219945202552
aF0.1561607307552825
aF0.053109825313948332
aF0.51082562376599072
aF0.97816613559224252
aF1.4469189829363254
aF1.1174807729724925
aF1.8055527913603908
aF1.5232167369869716
aF1.2568362938830038
aF1.235471471385307
aF0.65540685257709819
aF0.84308732785086016
aF1.5012243277938677
aF1.2039728043259361
aF1.7397031072720019
aF1.6389967146756448
aF1.0581209273133727
aF0.49824684155913052
aF0.70158604920580991
aF0.37729423114146798
a.