(lp1
F14
aF11
aF57
aF116
aF82
aF65
aF90
aF118
aF51
aF68
aF98
aF87
aF16
aF60
aF39
aF61
aF107
aF35
aF94
aF112
aF88
aF47
aF127
aF61
aF253
aF79
aF37
aF19
aF84
aF26
aF-1
aF81
aF22
aF73
aF6
aF92
aF129
aF88
aF90
aF68
aF33
aF68
aF39
aF71
aF82
aF100
aF31
aF90
a.