(lp1
F-0.14649347276979383
aF0.0017754734925423915
aF0.34352870769317845
aF0.7561251051111203
aF0.41560329636335308
aF0.27375527256453602
aF0.7961125771674209
aF0.67235863342517843
aF0.46065903036001815
aF0.56290462920022688
aF0.37868713419248134
aF0.55932197112683957
aF-0.0056901054831335921
aF0.52762695450168484
aF0.18105558141473505
aF0.59418517117242609
aF0.69568657279361523
aF0.20124872769808802
aF0.43150283016919555
aF0.6654976420980363
aF0.54262440302426762
aF0.47718401647261066
aF0.69775242731287901
aF0.43163092935281688
aF0.49164233548726677
aF0.75006031632210501
aF0.39910218515141116
aF0.12123716909097314
aF0.44765074977136321
aF0.2895923361544358
aF-0.10171474883644259
aF0.32965624104427577
aF0.13780090015998064
aF0.59656470695347741
aF-0.38403017196998313
aF0.49144959693209467
aF0.67799106231012907
aF0.44550132206408216
aF1.033184952546399
aF0.82761068045263642
aF0.75742050028887453
aF0.58162466658311929
aF0.34837348925679656
aF0.8862640079198254
aF0.69276512295240367
aF1.1029199977080422
aF0.18804672036364145
aF0.52984356923301801
a.