(lp1
F1.0327990700985379
aF1.3937293396074086
aF0.97665388160124555
aF1.0483504538872215
aF1.1819938976071607
aF0.71686370717726133
aF0.87973313614035742
aF0.76600852882481696
aF1.1104467463151124
aF0.81902742644894799
aF1.1349799328389845
aF0.62814235025094944
aF0.48379695137807138
aF0.049190244190771781
aF0.26175838744198926
aF0.1119179162039854
aF0.47198579044972683
aF0.52682596511243185
aF1.4170660197866443
aF0.49451688572406671
aF0.59470710774669278
aF0.65965851080590143
aF0.34953655544893958
aF0.28149010220385984
aF0.49197435101744685
aF0.45718294081667415
aF0.59470710774669278
aF0.48333248318579197
aF0.80834289265137782
aF0.73673761663480708
aF0.79850769621777162
aF0.24512245803298491
aF-0.1971680649109491
aF0.067822596338761088
aF0.25975329692677079
aF0.60701802683000661
aF0.69314718055994529
aF1.0473189942805592
aF0.48701497507227215
aF0.85566611005772031
aF0.85977852161081281
aF0.73018845224029438
aF0.82198005240291372
aF1.3663601462190733
aF1.4689860769650041
aF1.466337068793427
aF1.7047480922384253
aF1.1451323043030026
a.