(lp1
F0.66921441434831708
aF0.90755705190540037
aF0.66574820637183096
aF0.89014545176983284
aF0.98676398853154068
aF1.1349799328389845
aF0.85913231803420642
aF0.7789140023173704
aF0.67661787860873468
aF0.48130318449966891
aF0.76725515271366718
aF0.050261834780888297
aF0.28525193759848921
aF0.51082562376599072
aF0.20821790109753399
aF0.88845593288071101
aF0.25423413838424086
aF0.96343751029985703
aF0.098117855958523417
aF-0.017241806434506103
aF0.33056379993504659
aF0.29376111852816317
aF0.29238796348919355
aF0.34918427220957482
aF0.63679424400881357
aF0.5389965007326869
aF1.0625072840259935
aF0.89705936994626756
aF0.95729875560153221
aF1.1363526166509568
aF0.50310357767208036
aF0.55961578793542266
aF1.5567941789486783
aF1.5746949639902275
aF1.499437017219772
aF1.7969542861051591
aF1.2163953243244932
aF1.6608700860663712
aF1.0704414117014134
aF1.1301606464030356
aF0.85913231803420642
aF0.49507726679785152
aF0.8564722366632449
aF0.79223808320417632
aF0.91140074657996328
aF0.80526447868065132
aF0.78151633101003548
aF1.3224724290491714
a.