(lp1
F117
aF27
aF54
aF59
aF18
aF62
aF135
aF52
aF54
aF21
aF60
aF109
aF68
aF96
aF35
aF1
aF11
aF30
aF32
aF43
aF69
aF63
aF40
aF46
aF233
aF131
aF80
aF142
aF165
aF76
aF125
aF74
aF36
aF19
aF61
aF53
aF34
aF56
aF104
aF21
aF19
aF102
aF119
aF139
aF96
aF106
aF86
aF152
a.