(lp1
F0.40422518234484389
aF0.35346981298978397
aF1.1871656860095547
aF0.75502258427803282
aF1.2305398317106577
aF0.84548790514196415
aF1.7190001149456267
aF1.4972514317058743
aF0.88468539245882383
aF0.90780411799683625
aF0.69314718055994529
aF0.67886122331246879
aF0.73041857535717691
aF0.50287329557549565
aF0.59436563600016157
aF1.5010698757123189
aF0.73146604486208189
aF0.6332490389788763
aF0.69314718055994529
aF-0.18232155679395459
aF0.50704490092608467
aF1.0913395293390298
aF1.4234733643616446
aF1.1143606456362487
aF0.89819698843145601
aF0.5936175852129123
aF0.77192805841305967
aF1.4748477584613358
aF1.0428209290396941
aF0.71376646776268093
aF0.99852883011112725
aF0.50693456827302408
aF0.34228620648663277
aF0.42773774371728762
aF0.10406935989420638
aF0.48480185034468548
aF0.022223136784710256
aF0.27917138278387232
aF0.64401449198230065
aF0.37001835911241676
aF0.62168821657780038
aF0.16907633004393391
aF0.64022477910560271
aF1.0986122886681098
aF0.48036641628128218
aF0.55083095837968976
aF0.42923532744207638
aF0.42923532744207638
a.