(lp1
F-0.23540056594173983
aF0.29869713268245834
aF0.038786025035156449
aF-0.48815682395327781
aF-0.3291818033585337
aF0.46563362957461712
aF0.48835276791393201
aF0.32132043160061075
aF0.38996092157219919
aF0.049596941139372186
aF0.022989518224698781
aF-0.018832948333092125
aF0.068267971129002875
aF-0.031252543504104426
aF0.11488027599842202
aF0.26662866325394863
aF0.98912805582642138
aF0.66268797307523675
aF0.68587442123086551
aF0.68587442123086551
aF0.46234075650016643
aF0.42028019389330501
aF-0.13465688514625712
aF-0.15700374880966481
aF-0.12438371968773551
aF0.37297965296367602
aF0.37948962170490369
aF0.10536051565782635
aF0.38077249551779285
aF0.11944003686401299
aF0.030771658666753687
aF0.14842000511827322
aF1.0704414117014134
aF0.1388364448542159
aF0.016129381929883717
aF-0.12883287184296843
aF-0.62718921276814799
aF0.16034265007517948
aF0.94176981717513997
aF0.53280453048476595
aF0.44802472252696035
aF0.67739882359180614
aF0.21588838043303793
aF0.6348782724359695
aF0.64819579269767902
aF0.38005539258279608
aF-0.35482137528940944
aF-0.058107630807280694
a.