(lp1
F-0.40546510810816444
aF-0.68536504011789035
aF-0.5059356384717989
aF-0.2707325141380077
aF-0.38220824594389707
aF-0.50352632128437913
aF-0.34110723912536139
aF-0.17645643734155653
aF-0.015831465216680628
aF0.21459649073575129
aF-0.52609309589677911
aF0.097045789149470874
aF0.14660347419187544
aF-0.093526058010823476
aF0.015037877364540502
aF-0.062800901239030357
aF0.56146935658474562
aF0.17589066646366419
aF-0.059423420470800764
aF-0.5337745567515354
aF-0.297632403304949
aF-0.17301916413164112
aF-0.10724553035359756
aF-0.3823693933135151
aF-0.59598343210629767
aF-1.0685348334308318
aF-0.81729561008340479
aF-0.80338301058094586
aF-0.61677420177537134
aF-0.20661424936299916
aF-0.4003237086077458
aF0.054067221270275793
aF0.40032370860774574
aF0.11934675763256623
aF0.014184634991956381
aF-0.020619287202735703
aF-0.36974702550608513
aF-0.27570588140506525
aF-0.18457127652797004
aF-0.16077322058775173
aF0.60473622321589227
aF0.44349250369740373
aF0.23901690047049992
aF0.040273899137939898
aF0.10969891725642453
aF-0.40912141931127494
aF-0.78845736036427017
aF-0.49693651160532348
a.